
riscdsp.o:     file format elf32-littlemips

Disassembly of section .text:

80000000 <__do_global_dtors_aux>:
80000000:	27bdffe8 	addiu	sp,sp,-24
80000004:	afbf0014 	sw	ra,20(sp)
80000008:	afb00010 	sw	s0,16(sp)
8000000c:	3c028001 	lui	v0,0x8001
80000010:	9043f720 	lbu	v1,-2272(v0)
80000014:	00000000 	nop
80000018:	14600019 	bnez	v1,80000080 <__do_global_dtors_aux+0x80>
8000001c:	3c108001 	lui	s0,0x8001
80000020:	8e02df44 	lw	v0,-8380(s0)
80000024:	00000000 	nop
80000028:	8c430000 	lw	v1,0(v0)
8000002c:	00000000 	nop
80000030:	10600009 	beqz	v1,80000058 <__do_global_dtors_aux+0x58>
80000034:	24420004 	addiu	v0,v0,4
80000038:	0060f809 	jalr	v1
8000003c:	ae02df44 	sw	v0,-8380(s0)
80000040:	8e02df44 	lw	v0,-8380(s0)
80000044:	00000000 	nop
80000048:	8c430000 	lw	v1,0(v0)
8000004c:	00000000 	nop
80000050:	1460fff9 	bnez	v1,80000038 <__do_global_dtors_aux+0x38>
80000054:	24420004 	addiu	v0,v0,4
80000058:	3c020000 	lui	v0,0x0
8000005c:	24420000 	addiu	v0,v0,0
80000060:	10400005 	beqz	v0,80000078 <__do_global_dtors_aux+0x78>
80000064:	24030001 	li	v1,1
80000068:	3c048001 	lui	a0,0x8001
8000006c:	0c000000 	jal	80000000 <__do_global_dtors_aux>
80000070:	2484e9f0 	addiu	a0,a0,-5648
80000074:	24030001 	li	v1,1
80000078:	3c028001 	lui	v0,0x8001
8000007c:	a043f720 	sb	v1,-2272(v0)
80000080:	8fbf0014 	lw	ra,20(sp)
80000084:	8fb00010 	lw	s0,16(sp)
80000088:	03e00008 	jr	ra
8000008c:	27bd0018 	addiu	sp,sp,24

80000090 <call___do_global_dtors_aux>:
80000090:	27bdffe8 	addiu	sp,sp,-24
80000094:	afbf0010 	sw	ra,16(sp)
80000098:	8fbf0010 	lw	ra,16(sp)
8000009c:	00000000 	nop
800000a0:	03e00008 	jr	ra
800000a4:	27bd0018 	addiu	sp,sp,24

800000a8 <frame_dummy>:
800000a8:	3c020000 	lui	v0,0x0
800000ac:	27bdffe8 	addiu	sp,sp,-24
800000b0:	3c048001 	lui	a0,0x8001
800000b4:	3c058001 	lui	a1,0x8001
800000b8:	24420000 	addiu	v0,v0,0
800000bc:	afbf0010 	sw	ra,16(sp)
800000c0:	2484e9f0 	addiu	a0,a0,-5648
800000c4:	10400003 	beqz	v0,800000d4 <frame_dummy+0x2c>
800000c8:	24a5f728 	addiu	a1,a1,-2264
800000cc:	0c000000 	jal	80000000 <__do_global_dtors_aux>
800000d0:	00000000 	nop
800000d4:	3c028001 	lui	v0,0x8001
800000d8:	8c43e9f4 	lw	v1,-5644(v0)
800000dc:	00000000 	nop
800000e0:	10600007 	beqz	v1,80000100 <frame_dummy+0x58>
800000e4:	2444e9f4 	addiu	a0,v0,-5644
800000e8:	3c020000 	lui	v0,0x0
800000ec:	24420000 	addiu	v0,v0,0
800000f0:	10400003 	beqz	v0,80000100 <frame_dummy+0x58>
800000f4:	00000000 	nop
800000f8:	0c000000 	jal	80000000 <__do_global_dtors_aux>
800000fc:	00000000 	nop
80000100:	8fbf0010 	lw	ra,16(sp)
80000104:	00000000 	nop
80000108:	03e00008 	jr	ra
8000010c:	27bd0018 	addiu	sp,sp,24

80000110 <call_frame_dummy>:
80000110:	27bdffe8 	addiu	sp,sp,-24
80000114:	afbf0010 	sw	ra,16(sp)
80000118:	8fbf0010 	lw	ra,16(sp)
8000011c:	00000000 	nop
80000120:	03e00008 	jr	ra
80000124:	27bd0018 	addiu	sp,sp,24
	...

80000134 <_start>:
80000134:	00000000 	nop
80000138:	3c1c8001 	lui	gp,0x8001
8000013c:	279cea00 	addiu	gp,gp,-5632
80000140:	3c088001 	lui	t0,0x8001
80000144:	25080780 	addiu	t0,t0,1920
80000148:	251d0100 	addiu	sp,t0,256
8000014c:	0c000091 	jal	80000244 <fpu_check>
80000150:	00000000 	nop

80000154 <zerobss>:
80000154:	3c028001 	lui	v0,0x8001
80000158:	2442f708 	addiu	v0,v0,-2296
8000015c:	3c038002 	lui	v1,0x8002
80000160:	24635a10 	addiu	v1,v1,23056
80000164:	ac400000 	sw	zero,0(v0)
80000168:	1443fffe 	bne	v0,v1,80000164 <zerobss+0x10>
8000016c:	24420004 	addiu	v0,v0,4
80000170:	3c048001 	lui	a0,0x8001
80000174:	24840770 	addiu	a0,a0,1904
80000178:	0c000078 	jal	800001e0 <get_mem_info>
8000017c:	00000000 	nop
80000180:	3c088002 	lui	t0,0x8002
80000184:	25085a00 	addiu	t0,t0,23040
80000188:	15000005 	bnez	t0,800001a0 <zerobss+0x4c>
8000018c:	00000000 	nop
80000190:	8c880000 	lw	t0,0(a0)
80000194:	3c098000 	lui	t1,0x8000
80000198:	01094021 	addu	t0,t0,t1
8000019c:	2508ffe0 	addiu	t0,t0,-32
800001a0:	0100e821 	move	sp,t0

800001a4 <init>:
800001a4:	3c048001 	lui	a0,0x8001
800001a8:	2484df18 	addiu	a0,a0,-8424
800001ac:	0c0000fc 	jal	800003f0 <atexit>
800001b0:	00000000 	nop
800001b4:	0c0037bc 	jal	8000def0 <_init>
800001b8:	00000000 	nop
800001bc:	00002021 	move	a0,zero
800001c0:	0c0000a0 	jal	80000280 <main>
800001c4:	00000000 	nop
800001c8:	0c000108 	jal	80000420 <exit>
800001cc:	00402021 	move	a0,v0

800001d0 <_exit>:
800001d0:	0000ffcd 	break	0x3ff
800001d4:	00000000 	nop
800001d8:	1000fffd 	b	800001d0 <_exit>
800001dc:	00000000 	nop

800001e0 <get_mem_info>:
800001e0:	27bdffe8 	addiu	sp,sp,-24
800001e4:	afbf0000 	sw	ra,0(sp)
800001e8:	0c000089 	jal	80000224 <__sizemem>
800001ec:	00000000 	nop
800001f0:	ac820000 	sw	v0,0(a0)
800001f4:	40058000 	mfc0	a1,$16
800001f8:	00000000 	nop
800001fc:	30a60e00 	andi	a2,a1,0xe00
80000200:	00063100 	sll	a2,a2,0x4
80000204:	ac860004 	sw	a2,4(a0)
80000208:	30a601c0 	andi	a2,a1,0x1c0
8000020c:	000631c0 	sll	a2,a2,0x7
80000210:	ac860008 	sw	a2,8(a0)
80000214:	8fbf0000 	lw	ra,0(sp)
80000218:	00000000 	nop
8000021c:	03e00008 	jr	ra
80000220:	27bd0018 	addiu	sp,sp,24

80000224 <__sizemem>:
80000224:	03e00008 	jr	ra
80000228:	3c020010 	lui	v0,0x10

8000022c <__main>:
8000022c:	03e00008 	jr	ra
80000230:	00000000 	nop
80000234:	00000000 	nop

80000238 <_mem_setup>:
80000238:	03e00008 	jr	ra
8000023c:	00000000 	nop
80000240:	00000000 	nop

80000244 <fpu_check>:
80000244:	24022000 	li	v0,8192
80000248:	40037800 	mfc0	v1,$15
8000024c:	3063ff00 	andi	v1,v1,0xff00
80000250:	14430006 	bne	v0,v1,8000026c <fpu_check+0x28>
80000254:	00000000 	nop
80000258:	00000000 	nop
8000025c:	40036000 	mfc0	v1,$12
80000260:	00021400 	sll	v0,v0,0x10
80000264:	00621825 	or	v1,v1,v0
80000268:	40836000 	mtc0	v1,$12
8000026c:	03e00008 	jr	ra
80000270:	00000000 	nop
	...

80000280 <main>:
80000280:	27bdffe0 	addiu	sp,sp,-32
80000284:	afbe0018 	sw	s8,24(sp)
80000288:	03a0f021 	move	s8,sp
8000028c:	3c01b848 	lui	at,0xb848
80000290:	ac200100 	sw	zero,256(at)
80000294:	3c01b848 	lui	at,0xb848
80000298:	ac200104 	sw	zero,260(at)
8000029c:	3c03b844 	lui	v1,0xb844
800002a0:	24630000 	addiu	v1,v1,0
800002a4:	3c0247bc 	lui	v0,0x47bc
800002a8:	00621021 	addu	v0,v1,v0
800002ac:	00021082 	srl	v0,v0,0x2
800002b0:	3c01b848 	lui	at,0xb848
800002b4:	ac220120 	sw	v0,288(at)
800002b8:	24024000 	li	v0,16384
800002bc:	3c01b848 	lui	at,0xb848
800002c0:	ac220100 	sw	v0,256(at)
800002c4:	3c02b848 	lui	v0,0xb848
800002c8:	8c421004 	lw	v0,4100(v0)
800002cc:	30420008 	andi	v0,v0,0x8
800002d0:	1040fffc 	beqz	v0,800002c4 <main+0x44>
800002d4:	00000000 	nop
800002d8:	afc00010 	sw	zero,16(s8)
800002dc:	8fc20010 	lw	v0,16(s8)
800002e0:	28420004 	slti	v0,v0,4
800002e4:	14400003 	bnez	v0,800002f4 <main+0x74>
800002e8:	00000000 	nop
800002ec:	080000d8 	j	80000360 <main+0xe0>
800002f0:	00000000 	nop
800002f4:	afc00014 	sw	zero,20(s8)
800002f8:	8fc20014 	lw	v0,20(s8)
800002fc:	28420004 	slti	v0,v0,4
80000300:	14400003 	bnez	v0,80000310 <main+0x90>
80000304:	00000000 	nop
80000308:	080000d3 	j	8000034c <main+0xcc>
8000030c:	00000000 	nop
80000310:	8fc20014 	lw	v0,20(s8)
80000314:	00021080 	sll	v0,v0,0x2
80000318:	005e2021 	addu	a0,v0,s8
8000031c:	8fc20014 	lw	v0,20(s8)
80000320:	00021880 	sll	v1,v0,0x2
80000324:	3c02b840 	lui	v0,0xb840
80000328:	24420100 	addiu	v0,v0,256
8000032c:	00621021 	addu	v0,v1,v0
80000330:	8c420000 	lw	v0,0(v0)
80000334:	ac820000 	sw	v0,0(a0)
80000338:	8fc20014 	lw	v0,20(s8)
8000033c:	24420001 	addiu	v0,v0,1
80000340:	afc20014 	sw	v0,20(s8)
80000344:	080000be 	j	800002f8 <main+0x78>
80000348:	00000000 	nop
8000034c:	8fc20010 	lw	v0,16(s8)
80000350:	24420001 	addiu	v0,v0,1
80000354:	afc20010 	sw	v0,16(s8)
80000358:	080000b7 	j	800002dc <main+0x5c>
8000035c:	00000000 	nop
80000360:	00000000 	nop
80000364:	080000d9 	j	80000364 <main+0xe4>
80000368:	00000000 	nop
8000036c:	00000000 	nop

80000370 <__do_global_ctors_aux>:
80000370:	27bdffe0 	addiu	sp,sp,-32
80000374:	3c028001 	lui	v0,0x8001
80000378:	afb00010 	sw	s0,16(sp)
8000037c:	2442e9e4 	addiu	v0,v0,-5660
80000380:	afbf0018 	sw	ra,24(sp)
80000384:	afb10014 	sw	s1,20(sp)
80000388:	8c44fffc 	lw	a0,-4(v0)
8000038c:	2403ffff 	li	v1,-1
80000390:	10830009 	beq	a0,v1,800003b8 <__do_global_ctors_aux+0x48>
80000394:	2450fffc 	addiu	s0,v0,-4
80000398:	00801821 	move	v1,a0
8000039c:	2411ffff 	li	s1,-1
800003a0:	0060f809 	jalr	v1
800003a4:	2610fffc 	addiu	s0,s0,-4
800003a8:	8e020000 	lw	v0,0(s0)
800003ac:	00000000 	nop
800003b0:	1451fffb 	bne	v0,s1,800003a0 <__do_global_ctors_aux+0x30>
800003b4:	00401821 	move	v1,v0
800003b8:	8fbf0018 	lw	ra,24(sp)
800003bc:	8fb10014 	lw	s1,20(sp)
800003c0:	8fb00010 	lw	s0,16(sp)
800003c4:	03e00008 	jr	ra
800003c8:	27bd0020 	addiu	sp,sp,32

800003cc <call___do_global_ctors_aux>:
800003cc:	27bdffe8 	addiu	sp,sp,-24
800003d0:	afbf0010 	sw	ra,16(sp)
800003d4:	8fbf0010 	lw	ra,16(sp)
800003d8:	00000000 	nop
800003dc:	03e00008 	jr	ra
800003e0:	27bd0018 	addiu	sp,sp,24
	...

800003f0 <atexit>:
800003f0:	27bdffe8 	addiu	sp,sp,-24
800003f4:	00802821 	move	a1,a0
800003f8:	00003021 	move	a2,zero
800003fc:	00002021 	move	a0,zero
80000400:	afbf0010 	sw	ra,16(sp)
80000404:	0c000118 	jal	80000460 <__register_exitproc>
80000408:	00003821 	move	a3,zero
8000040c:	8fbf0010 	lw	ra,16(sp)
80000410:	03e00008 	jr	ra
80000414:	27bd0018 	addiu	sp,sp,24
	...

80000420 <exit>:
80000420:	27bdffe8 	addiu	sp,sp,-24
80000424:	00002821 	move	a1,zero
80000428:	afb00010 	sw	s0,16(sp)
8000042c:	afbf0014 	sw	ra,20(sp)
80000430:	0c00015c 	jal	80000570 <__call_exitprocs>
80000434:	00808021 	move	s0,a0
80000438:	3c038001 	lui	v1,0x8001
8000043c:	8c64ea04 	lw	a0,-5628(v1)
80000440:	8c82003c 	lw	v0,60(a0)
80000444:	10400003 	beqz	v0,80000454 <exit+0x34>
80000448:	00000000 	nop
8000044c:	0040f809 	jalr	v0
80000450:	00000000 	nop
80000454:	0c000074 	jal	800001d0 <_exit>
80000458:	02002021 	move	a0,s0
8000045c:	00000000 	nop

80000460 <__register_exitproc>:
80000460:	27bdffd8 	addiu	sp,sp,-40
80000464:	3c038001 	lui	v1,0x8001
80000468:	afb00010 	sw	s0,16(sp)
8000046c:	8c70ea04 	lw	s0,-5628(v1)
80000470:	afb40020 	sw	s4,32(sp)
80000474:	afb3001c 	sw	s3,28(sp)
80000478:	afb20018 	sw	s2,24(sp)
8000047c:	afb10014 	sw	s1,20(sp)
80000480:	afbf0024 	sw	ra,36(sp)
80000484:	00a0a021 	move	s4,a1
80000488:	8e050148 	lw	a1,328(s0)
8000048c:	00808821 	move	s1,a0
80000490:	00c09821 	move	s3,a2
80000494:	10a00032 	beqz	a1,80000560 <__register_exitproc+0x100>
80000498:	00e09021 	move	s2,a3
8000049c:	8ca60004 	lw	a2,4(a1)
800004a0:	28c30020 	slti	v1,a2,32
800004a4:	10600021 	beqz	v1,8000052c <__register_exitproc+0xcc>
800004a8:	00000000 	nop
800004ac:	1220000e 	beqz	s1,800004e8 <__register_exitproc+0x88>
800004b0:	00068080 	sll	s0,a2,0x2
800004b4:	24a70088 	addiu	a3,a1,136
800004b8:	8ceb0100 	lw	t3,256(a3)
800004bc:	24020001 	li	v0,1
800004c0:	00c21804 	sllv	v1,v0,a2
800004c4:	00066080 	sll	t4,a2,0x2
800004c8:	01875021 	addu	t2,t4,a3
800004cc:	01634825 	or	t1,t3,v1
800004d0:	24080002 	li	t0,2
800004d4:	ad520080 	sw	s2,128(t2)
800004d8:	ad530000 	sw	s3,0(t2)
800004dc:	1228000f 	beq	s1,t0,8000051c <__register_exitproc+0xbc>
800004e0:	ace90100 	sw	t1,256(a3)
800004e4:	00068080 	sll	s0,a2,0x2
800004e8:	02057821 	addu	t7,s0,a1
800004ec:	24c70001 	addiu	a3,a2,1
800004f0:	adf40008 	sw	s4,8(t7)
800004f4:	aca70004 	sw	a3,4(a1)
800004f8:	00001021 	move	v0,zero
800004fc:	8fbf0024 	lw	ra,36(sp)
80000500:	8fb40020 	lw	s4,32(sp)
80000504:	8fb3001c 	lw	s3,28(sp)
80000508:	8fb20018 	lw	s2,24(sp)
8000050c:	8fb10014 	lw	s1,20(sp)
80000510:	8fb00010 	lw	s0,16(sp)
80000514:	03e00008 	jr	ra
80000518:	27bd0028 	addiu	sp,sp,40
8000051c:	8cee0104 	lw	t6,260(a3)
80000520:	01c36825 	or	t5,t6,v1
80000524:	08000139 	j	800004e4 <__register_exitproc+0x84>
80000528:	aced0104 	sw	t5,260(a3)
8000052c:	0c0001b8 	jal	800006e0 <malloc>
80000530:	24040190 	li	a0,400
80000534:	00402821 	move	a1,v0
80000538:	10a0fff0 	beqz	a1,800004fc <__register_exitproc+0x9c>
8000053c:	2402ffff 	li	v0,-1
80000540:	8e040148 	lw	a0,328(s0)
80000544:	aca00004 	sw	zero,4(a1)
80000548:	aca00188 	sw	zero,392(a1)
8000054c:	aca40000 	sw	a0,0(a1)
80000550:	aca0018c 	sw	zero,396(a1)
80000554:	ae050148 	sw	a1,328(s0)
80000558:	0800012b 	j	800004ac <__register_exitproc+0x4c>
8000055c:	00003021 	move	a2,zero
80000560:	2605014c 	addiu	a1,s0,332
80000564:	08000127 	j	8000049c <__register_exitproc+0x3c>
80000568:	ae050148 	sw	a1,328(s0)
8000056c:	00000000 	nop

80000570 <__call_exitprocs>:
80000570:	3c038001 	lui	v1,0x8001
80000574:	8c66ea04 	lw	a2,-5628(v1)
80000578:	27bdffd0 	addiu	sp,sp,-48
8000057c:	afb60028 	sw	s6,40(sp)
80000580:	afb50024 	sw	s5,36(sp)
80000584:	afb3001c 	sw	s3,28(sp)
80000588:	afbf002c 	sw	ra,44(sp)
8000058c:	afb40020 	sw	s4,32(sp)
80000590:	afb20018 	sw	s2,24(sp)
80000594:	afb10014 	sw	s1,20(sp)
80000598:	afb00010 	sw	s0,16(sp)
8000059c:	8cd20148 	lw	s2,328(a2)
800005a0:	0080b021 	move	s6,a0
800005a4:	00a09821 	move	s3,a1
800005a8:	1240001a 	beqz	s2,80000614 <__call_exitprocs+0xa4>
800005ac:	24d50148 	addiu	s5,a2,328
800005b0:	8e450004 	lw	a1,4(s2)
800005b4:	24b0ffff 	addiu	s0,a1,-1
800005b8:	0600000e 	bltz	s0,800005f4 <__call_exitprocs+0x84>
800005bc:	26510088 	addiu	s1,s2,136
800005c0:	24140001 	li	s4,1
800005c4:	12600041 	beqz	s3,800006cc <__call_exitprocs+0x15c>
800005c8:	02143804 	sllv	a3,s4,s0
800005cc:	52200007 	beqzl	s1,800005ec <__call_exitprocs+0x7c>
800005d0:	2610ffff 	addiu	s0,s0,-1
800005d4:	00102080 	sll	a0,s0,0x2
800005d8:	00914021 	addu	t0,a0,s1
800005dc:	8d060080 	lw	a2,128(t0)
800005e0:	10d3001b 	beq	a2,s3,80000650 <__call_exitprocs+0xe0>
800005e4:	00921821 	addu	v1,a0,s2
800005e8:	2610ffff 	addiu	s0,s0,-1
800005ec:	0601fff5 	bgez	s0,800005c4 <__call_exitprocs+0x54>
800005f0:	00000000 	nop
800005f4:	14a00003 	bnez	a1,80000604 <__call_exitprocs+0x94>
800005f8:	8e420000 	lw	v0,0(s2)
800005fc:	5440000f 	bnezl	v0,8000063c <__call_exitprocs+0xcc>
80000600:	02402021 	move	a0,s2
80000604:	0240a821 	move	s5,s2
80000608:	00409021 	move	s2,v0
8000060c:	5640ffe9 	bnezl	s2,800005b4 <__call_exitprocs+0x44>
80000610:	8e450004 	lw	a1,4(s2)
80000614:	8fbf002c 	lw	ra,44(sp)
80000618:	8fb60028 	lw	s6,40(sp)
8000061c:	8fb50024 	lw	s5,36(sp)
80000620:	8fb40020 	lw	s4,32(sp)
80000624:	8fb3001c 	lw	s3,28(sp)
80000628:	8fb20018 	lw	s2,24(sp)
8000062c:	8fb10014 	lw	s1,20(sp)
80000630:	8fb00010 	lw	s0,16(sp)
80000634:	03e00008 	jr	ra
80000638:	27bd0030 	addiu	sp,sp,48
8000063c:	0c0001c2 	jal	80000708 <free>
80000640:	aea20000 	sw	v0,0(s5)
80000644:	08000183 	j	8000060c <__call_exitprocs+0x9c>
80000648:	8eb20000 	lw	s2,0(s5)
8000064c:	00921821 	addu	v1,a0,s2
80000650:	24a9ffff 	addiu	t1,a1,-1
80000654:	1209001b 	beq	s0,t1,800006c4 <__call_exitprocs+0x154>
80000658:	8c660008 	lw	a2,8(v1)
8000065c:	ac600008 	sw	zero,8(v1)
80000660:	50c0ffe1 	beqzl	a2,800005e8 <__call_exitprocs+0x78>
80000664:	8e450004 	lw	a1,4(s2)
80000668:	12200005 	beqz	s1,80000680 <__call_exitprocs+0x110>
8000066c:	00000000 	nop
80000670:	8e2a0100 	lw	t2,256(s1)
80000674:	01472824 	and	a1,t2,a3
80000678:	54a00005 	bnezl	a1,80000690 <__call_exitprocs+0x120>
8000067c:	8e2c0104 	lw	t4,260(s1)
80000680:	00c0f809 	jalr	a2
80000684:	00000000 	nop
80000688:	0800017a 	j	800005e8 <__call_exitprocs+0x78>
8000068c:	8e450004 	lw	a1,4(s2)
80000690:	01875824 	and	t3,t4,a3
80000694:	15600007 	bnez	t3,800006b4 <__call_exitprocs+0x144>
80000698:	00916821 	addu	t5,a0,s1
8000069c:	00913821 	addu	a3,a0,s1
800006a0:	8ce50000 	lw	a1,0(a3)
800006a4:	00c0f809 	jalr	a2
800006a8:	02c02021 	move	a0,s6
800006ac:	0800017a 	j	800005e8 <__call_exitprocs+0x78>
800006b0:	8e450004 	lw	a1,4(s2)
800006b4:	00c0f809 	jalr	a2
800006b8:	8da40000 	lw	a0,0(t5)
800006bc:	0800017a 	j	800005e8 <__call_exitprocs+0x78>
800006c0:	8e450004 	lw	a1,4(s2)
800006c4:	08000198 	j	80000660 <__call_exitprocs+0xf0>
800006c8:	ae500004 	sw	s0,4(s2)
800006cc:	08000193 	j	8000064c <__call_exitprocs+0xdc>
800006d0:	00102080 	sll	a0,s0,0x2
	...

800006e0 <malloc>:
800006e0:	3c038001 	lui	v1,0x8001
800006e4:	00802821 	move	a1,a0
800006e8:	8c64e348 	lw	a0,-7352(v1)
800006ec:	27bdffe8 	addiu	sp,sp,-24
800006f0:	afbf0010 	sw	ra,16(sp)
800006f4:	0c0001cc 	jal	80000730 <_malloc_r>
800006f8:	00000000 	nop
800006fc:	8fbf0010 	lw	ra,16(sp)
80000700:	03e00008 	jr	ra
80000704:	27bd0018 	addiu	sp,sp,24

80000708 <free>:
80000708:	3c038001 	lui	v1,0x8001
8000070c:	00802821 	move	a1,a0
80000710:	8c64e348 	lw	a0,-7352(v1)
80000714:	27bdffe8 	addiu	sp,sp,-24
80000718:	afbf0010 	sw	ra,16(sp)
8000071c:	0c0003d4 	jal	80000f50 <_free_r>
80000720:	00000000 	nop
80000724:	8fbf0010 	lw	ra,16(sp)
80000728:	03e00008 	jr	ra
8000072c:	27bd0018 	addiu	sp,sp,24

80000730 <_malloc_r>:
80000730:	24a3000b 	addiu	v1,a1,11
80000734:	27bdffd8 	addiu	sp,sp,-40
80000738:	2c660017 	sltiu	a2,v1,23
8000073c:	afb20018 	sw	s2,24(sp)
80000740:	afbf0024 	sw	ra,36(sp)
80000744:	afb40020 	sw	s4,32(sp)
80000748:	afb3001c 	sw	s3,28(sp)
8000074c:	afb10014 	sw	s1,20(sp)
80000750:	afb00010 	sw	s0,16(sp)
80000754:	14c00153 	bnez	a2,80000ca4 <_malloc_r+0x574>
80000758:	00809021 	move	s2,a0
8000075c:	2404fff8 	li	a0,-8
80000760:	00648824 	and	s1,v1,a0
80000764:	06200003 	bltz	s1,80000774 <_malloc_r+0x44>
80000768:	0225182b 	sltu	v1,s1,a1
8000076c:	1060000a 	beqz	v1,80000798 <_malloc_r+0x68>
80000770:	00000000 	nop
80000774:	00001021 	move	v0,zero
80000778:	8fbf0024 	lw	ra,36(sp)
8000077c:	8fb40020 	lw	s4,32(sp)
80000780:	8fb3001c 	lw	s3,28(sp)
80000784:	8fb20018 	lw	s2,24(sp)
80000788:	8fb10014 	lw	s1,20(sp)
8000078c:	8fb00010 	lw	s0,16(sp)
80000790:	03e00008 	jr	ra
80000794:	27bd0028 	addiu	sp,sp,40
80000798:	0c0003b8 	jal	80000ee0 <__malloc_lock>
8000079c:	02402021 	move	a0,s2
800007a0:	2e2501f8 	sltiu	a1,s1,504
800007a4:	10a00111 	beqz	a1,80000bec <_malloc_r+0x4bc>
800007a8:	00111a42 	srl	v1,s1,0x9
800007ac:	3c148001 	lui	s4,0x8001
800007b0:	2687e350 	addiu	a3,s4,-7344
800007b4:	02273021 	addu	a2,s1,a3
800007b8:	8cd0000c 	lw	s0,12(a2)
800007bc:	12060011 	beq	s0,a2,80000804 <_malloc_r+0xd4>
800007c0:	001150c2 	srl	t2,s1,0x3
800007c4:	8e0f0004 	lw	t7,4(s0)
800007c8:	240efffc 	li	t6,-4
800007cc:	8e08000c 	lw	t0,12(s0)
800007d0:	01ee6824 	and	t5,t7,t6
800007d4:	020d4821 	addu	t1,s0,t5
800007d8:	8d2c0004 	lw	t4,4(t1)
800007dc:	8e0a0008 	lw	t2,8(s0)
800007e0:	02402021 	move	a0,s2
800007e4:	358b0001 	ori	t3,t4,0x1
800007e8:	ad0a0008 	sw	t2,8(t0)
800007ec:	ad2b0004 	sw	t3,4(t1)
800007f0:	ad48000c 	sw	t0,12(t2)
800007f4:	0c0003ba 	jal	80000ee8 <__malloc_unlock>
800007f8:	00000000 	nop
800007fc:	080001de 	j	80000778 <_malloc_r+0x48>
80000800:	26020008 	addiu	v0,s0,8
80000804:	26020008 	addiu	v0,s0,8
80000808:	8c50000c 	lw	s0,12(v0)
8000080c:	5602ffee 	bnel	s0,v0,800007c8 <_malloc_r+0x98>
80000810:	8e0f0004 	lw	t7,4(s0)
80000814:	254a0002 	addiu	t2,t2,2
80000818:	3c0c8001 	lui	t4,0x8001
8000081c:	2585e358 	addiu	a1,t4,-7336
80000820:	8cb00008 	lw	s0,8(a1)
80000824:	12050022 	beq	s0,a1,800008b0 <_malloc_r+0x180>
80000828:	240efffc 	li	t6,-4
8000082c:	8e0f0004 	lw	t7,4(s0)
80000830:	01ee3824 	and	a3,t7,t6
80000834:	00f13023 	subu	a2,a3,s1
80000838:	28cd0010 	slti	t5,a2,16
8000083c:	51a000e0 	beqzl	t5,80000bc0 <_malloc_r+0x490>
80000840:	02115021 	addu	t2,s0,s1
80000844:	aca5000c 	sw	a1,12(a1)
80000848:	04c00007 	bltz	a2,80000868 <_malloc_r+0x138>
8000084c:	aca50008 	sw	a1,8(a1)
80000850:	0207c021 	addu	t8,s0,a3
80000854:	8f190004 	lw	t9,4(t8)
80000858:	02402021 	move	a0,s2
8000085c:	37320001 	ori	s2,t9,0x1
80000860:	080001fd 	j	800007f4 <_malloc_r+0xc4>
80000864:	af120004 	sw	s2,4(t8)
80000868:	2ce40200 	sltiu	a0,a3,512
8000086c:	108000a0 	beqz	a0,80000af0 <_malloc_r+0x3c0>
80000870:	00071a42 	srl	v1,a3,0x9
80000874:	000758c2 	srl	t3,a3,0x3
80000878:	24a5fff8 	addiu	a1,a1,-8
8000087c:	000b18c0 	sll	v1,t3,0x3
80000880:	00654821 	addu	t1,v1,a1
80000884:	8d280008 	lw	t0,8(t1)
80000888:	8ca30004 	lw	v1,4(a1)
8000088c:	000b2082 	srl	a0,t3,0x2
80000890:	24060001 	li	a2,1
80000894:	00865804 	sllv	t3,a2,a0
80000898:	006b2025 	or	a0,v1,t3
8000089c:	aca40004 	sw	a0,4(a1)
800008a0:	ae09000c 	sw	t1,12(s0)
800008a4:	ae080008 	sw	t0,8(s0)
800008a8:	ad10000c 	sw	s0,12(t0)
800008ac:	ad300008 	sw	s0,8(t1)
800008b0:	25480003 	addiu	t0,t2,3
800008b4:	29580000 	slti	t8,t2,0
800008b8:	2689e350 	addiu	t1,s4,-7344
800008bc:	0158400a 	movz	t0,t2,t8
800008c0:	8d250004 	lw	a1,4(t1)
800008c4:	00088083 	sra	s0,t0,0x2
800008c8:	24030001 	li	v1,1
800008cc:	02034004 	sllv	t0,v1,s0
800008d0:	00a8102b 	sltu	v0,a1,t0
800008d4:	54400044 	bnezl	v0,800009e8 <_malloc_r+0x2b8>
800008d8:	2690e350 	addiu	s0,s4,-7344
800008dc:	01053824 	and	a3,t0,a1
800008e0:	54e0000d 	bnezl	a3,80000918 <_malloc_r+0x1e8>
800008e4:	3c058001 	lui	a1,0x8001
800008e8:	00084040 	sll	t0,t0,0x1
800008ec:	240bfffc 	li	t3,-4
800008f0:	014b2024 	and	a0,t2,t3
800008f4:	0105c824 	and	t9,t0,a1
800008f8:	17200006 	bnez	t9,80000914 <_malloc_r+0x1e4>
800008fc:	248a0004 	addiu	t2,a0,4
80000900:	00a01821 	move	v1,a1
80000904:	00084040 	sll	t0,t0,0x1
80000908:	01033024 	and	a2,t0,v1
8000090c:	10c0fffd 	beqz	a2,80000904 <_malloc_r+0x1d4>
80000910:	254a0004 	addiu	t2,t2,4
80000914:	3c058001 	lui	a1,0x8001
80000918:	24abe350 	addiu	t3,a1,-7344
8000091c:	01606021 	move	t4,t3
80000920:	00a06821 	move	t5,a1
80000924:	01607021 	move	t6,t3
80000928:	000a78c0 	sll	t7,t2,0x3
8000092c:	01eb2021 	addu	a0,t7,t3
80000930:	01404821 	move	t1,t2
80000934:	00801821 	move	v1,a0
80000938:	8c70000c 	lw	s0,12(v1)
8000093c:	5203000e 	beql	s0,v1,80000978 <_malloc_r+0x248>
80000940:	254a0001 	addiu	t2,t2,1
80000944:	2405fffc 	li	a1,-4
80000948:	8e180004 	lw	t8,4(s0)
8000094c:	03053824 	and	a3,t8,a1
80000950:	00f13023 	subu	a2,a3,s1
80000954:	28d30010 	slti	s3,a2,16
80000958:	52600053 	beqzl	s3,80000aa8 <_malloc_r+0x378>
8000095c:	0211a021 	addu	s4,s0,s1
80000960:	04c30048 	bgezl	a2,80000a84 <_malloc_r+0x354>
80000964:	02076021 	addu	t4,s0,a3
80000968:	8e10000c 	lw	s0,12(s0)
8000096c:	5603fff7 	bnel	s0,v1,8000094c <_malloc_r+0x21c>
80000970:	8e180004 	lw	t8,4(s0)
80000974:	254a0001 	addiu	t2,t2,1
80000978:	31500003 	andi	s0,t2,0x3
8000097c:	1600ffee 	bnez	s0,80000938 <_malloc_r+0x208>
80000980:	24630008 	addiu	v1,v1,8
80000984:	25a5e350 	addiu	a1,t5,-7344
80000988:	00081827 	nor	v1,zero,t0
8000098c:	31270003 	andi	a3,t1,0x3
80000990:	2484fff8 	addiu	a0,a0,-8
80000994:	10e00037 	beqz	a3,80000a74 <_malloc_r+0x344>
80000998:	2529ffff 	addiu	t1,t1,-1
8000099c:	8c860008 	lw	a2,8(a0)
800009a0:	10c4fffb 	beq	a2,a0,80000990 <_malloc_r+0x260>
800009a4:	31270003 	andi	a3,t1,0x3
800009a8:	8d830004 	lw	v1,4(t4)
800009ac:	00084040 	sll	t0,t0,0x1
800009b0:	0068202b 	sltu	a0,v1,t0
800009b4:	1480000c 	bnez	a0,800009e8 <_malloc_r+0x2b8>
800009b8:	2690e350 	addiu	s0,s4,-7344
800009bc:	1100000a 	beqz	t0,800009e8 <_malloc_r+0x2b8>
800009c0:	01032824 	and	a1,t0,v1
800009c4:	14a0ffd9 	bnez	a1,8000092c <_malloc_r+0x1fc>
800009c8:	000a78c0 	sll	t7,t2,0x3
800009cc:	8dc30004 	lw	v1,4(t6)
800009d0:	00084040 	sll	t0,t0,0x1
800009d4:	01037824 	and	t7,t0,v1
800009d8:	11e0fffd 	beqz	t7,800009d0 <_malloc_r+0x2a0>
800009dc:	254a0004 	addiu	t2,t2,4
800009e0:	0800024b 	j	8000092c <_malloc_r+0x1fc>
800009e4:	000a78c0 	sll	t7,t2,0x3
800009e8:	8e0e0008 	lw	t6,8(s0)
800009ec:	2413fffc 	li	s3,-4
800009f0:	8dcd0004 	lw	t5,4(t6)
800009f4:	01b36024 	and	t4,t5,s3
800009f8:	0191502b 	sltu	t2,t4,s1
800009fc:	15400004 	bnez	t2,80000a10 <_malloc_r+0x2e0>
80000a00:	01913023 	subu	a2,t4,s1
80000a04:	28c30010 	slti	v1,a2,16
80000a08:	10600011 	beqz	v1,80000a50 <_malloc_r+0x320>
80000a0c:	2688e350 	addiu	t0,s4,-7344
80000a10:	02402021 	move	a0,s2
80000a14:	0c00032b 	jal	80000cac <malloc_extend_top>
80000a18:	02202821 	move	a1,s1
80000a1c:	8e180008 	lw	t8,8(s0)
80000a20:	8f0b0004 	lw	t3,4(t8)
80000a24:	01731024 	and	v0,t3,s3
80000a28:	0051402b 	sltu	t0,v0,s1
80000a2c:	15000004 	bnez	t0,80000a40 <_malloc_r+0x310>
80000a30:	00513023 	subu	a2,v0,s1
80000a34:	28d30010 	slti	s3,a2,16
80000a38:	12600005 	beqz	s3,80000a50 <_malloc_r+0x320>
80000a3c:	2688e350 	addiu	t0,s4,-7344
80000a40:	0c0003ba 	jal	80000ee8 <__malloc_unlock>
80000a44:	02402021 	move	a0,s2
80000a48:	080001de 	j	80000778 <_malloc_r+0x48>
80000a4c:	00001021 	move	v0,zero
80000a50:	8d100008 	lw	s0,8(t0)
80000a54:	34c30001 	ori	v1,a2,0x1
80000a58:	36380001 	ori	t8,s1,0x1
80000a5c:	02115821 	addu	t3,s0,s1
80000a60:	ae180004 	sw	t8,4(s0)
80000a64:	02402021 	move	a0,s2
80000a68:	ad630004 	sw	v1,4(t3)
80000a6c:	080001fd 	j	800007f4 <_malloc_r+0xc4>
80000a70:	ad0b0008 	sw	t3,8(t0)
80000a74:	8cb90004 	lw	t9,4(a1)
80000a78:	03234824 	and	t1,t9,v1
80000a7c:	0800026a 	j	800009a8 <_malloc_r+0x278>
80000a80:	aca90004 	sw	t1,4(a1)
80000a84:	8d8e0004 	lw	t6,4(t4)
80000a88:	8e0a000c 	lw	t2,12(s0)
80000a8c:	8e060008 	lw	a2,8(s0)
80000a90:	35cd0001 	ori	t5,t6,0x1
80000a94:	ad8d0004 	sw	t5,4(t4)
80000a98:	ad460008 	sw	a2,8(t2)
80000a9c:	acca000c 	sw	t2,12(a2)
80000aa0:	080001fd 	j	800007f4 <_malloc_r+0xc4>
80000aa4:	02402021 	move	a0,s2
80000aa8:	8e0f000c 	lw	t7,12(s0)
80000aac:	8e190008 	lw	t9,8(s0)
80000ab0:	02862021 	addu	a0,s4,a2
80000ab4:	3c058001 	lui	a1,0x8001
80000ab8:	24a7e358 	addiu	a3,a1,-7336
80000abc:	36290001 	ori	t1,s1,0x1
80000ac0:	ac860000 	sw	a2,0(a0)
80000ac4:	34d10001 	ori	s1,a2,0x1
80000ac8:	02402021 	move	a0,s2
80000acc:	adf90008 	sw	t9,8(t7)
80000ad0:	af2f000c 	sw	t7,12(t9)
80000ad4:	ae090004 	sw	t1,4(s0)
80000ad8:	acf40008 	sw	s4,8(a3)
80000adc:	acf4000c 	sw	s4,12(a3)
80000ae0:	ae910004 	sw	s1,4(s4)
80000ae4:	ae870008 	sw	a3,8(s4)
80000ae8:	080001fd 	j	800007f4 <_malloc_r+0xc4>
80000aec:	ae87000c 	sw	a3,12(s4)
80000af0:	10600006 	beqz	v1,80000b0c <_malloc_r+0x3dc>
80000af4:	000730c2 	srl	a2,a3,0x3
80000af8:	2c650005 	sltiu	a1,v1,5
80000afc:	10a0001e 	beqz	a1,80000b78 <_malloc_r+0x448>
80000b00:	2c690015 	sltiu	t1,v1,21
80000b04:	00074182 	srl	t0,a3,0x6
80000b08:	25060038 	addiu	a2,t0,56
80000b0c:	0006c0c0 	sll	t8,a2,0x3
80000b10:	2685e350 	addiu	a1,s4,-7344
80000b14:	03054821 	addu	t1,t8,a1
80000b18:	8d280008 	lw	t0,8(t1)
80000b1c:	51090011 	beql	t0,t1,80000b64 <_malloc_r+0x434>
80000b20:	24c70003 	addiu	a3,a2,3
80000b24:	8d0d0004 	lw	t5,4(t0)
80000b28:	2403fffc 	li	v1,-4
80000b2c:	01a36024 	and	t4,t5,v1
80000b30:	00ec282b 	sltu	a1,a3,t4
80000b34:	50a0ff5a 	beqzl	a1,800008a0 <_malloc_r+0x170>
80000b38:	8d09000c 	lw	t1,12(t0)
80000b3c:	8d080008 	lw	t0,8(t0)
80000b40:	5109ff57 	beql	t0,t1,800008a0 <_malloc_r+0x170>
80000b44:	8d09000c 	lw	t1,12(t0)
80000b48:	8d130004 	lw	s3,4(t0)
80000b4c:	02637824 	and	t7,s3,v1
80000b50:	00ef702b 	sltu	t6,a3,t7
80000b54:	55c0fffa 	bnezl	t6,80000b40 <_malloc_r+0x410>
80000b58:	8d080008 	lw	t0,8(t0)
80000b5c:	08000228 	j	800008a0 <_malloc_r+0x170>
80000b60:	8d09000c 	lw	t1,12(t0)
80000b64:	28d90000 	slti	t9,a2,0
80000b68:	8ca30004 	lw	v1,4(a1)
80000b6c:	00f9300b 	movn	a2,a3,t9
80000b70:	08000224 	j	80000890 <_malloc_r+0x160>
80000b74:	00062083 	sra	a0,a2,0x2
80000b78:	1520ffe4 	bnez	t1,80000b0c <_malloc_r+0x3dc>
80000b7c:	2466005b 	addiu	a2,v1,91
80000b80:	2c660055 	sltiu	a2,v1,85
80000b84:	10c00004 	beqz	a2,80000b98 <_malloc_r+0x468>
80000b88:	2c6d0155 	sltiu	t5,v1,341
80000b8c:	00076302 	srl	t4,a3,0xc
80000b90:	080002c3 	j	80000b0c <_malloc_r+0x3dc>
80000b94:	2586006e 	addiu	a2,t4,110
80000b98:	11a00004 	beqz	t5,80000bac <_malloc_r+0x47c>
80000b9c:	2c6f0555 	sltiu	t7,v1,1365
80000ba0:	000773c2 	srl	t6,a3,0xf
80000ba4:	080002c3 	j	80000b0c <_malloc_r+0x3dc>
80000ba8:	25c60077 	addiu	a2,t6,119
80000bac:	51e0ffd7 	beqzl	t7,80000b0c <_malloc_r+0x3dc>
80000bb0:	2406007e 	li	a2,126
80000bb4:	00079c82 	srl	s3,a3,0x12
80000bb8:	080002c3 	j	80000b0c <_malloc_r+0x3dc>
80000bbc:	2666007c 	addiu	a2,s3,124
80000bc0:	36330001 	ori	s3,s1,0x1
80000bc4:	0146a021 	addu	s4,t2,a2
80000bc8:	34d10001 	ori	s1,a2,0x1
80000bcc:	ae130004 	sw	s3,4(s0)
80000bd0:	acaa000c 	sw	t2,12(a1)
80000bd4:	acaa0008 	sw	t2,8(a1)
80000bd8:	ae860000 	sw	a2,0(s4)
80000bdc:	ad510004 	sw	s1,4(t2)
80000be0:	ad450008 	sw	a1,8(t2)
80000be4:	080002a8 	j	80000aa0 <_malloc_r+0x370>
80000be8:	ad45000c 	sw	a1,12(t2)
80000bec:	10600006 	beqz	v1,80000c08 <_malloc_r+0x4d8>
80000bf0:	001150c2 	srl	t2,s1,0x3
80000bf4:	2c700005 	sltiu	s0,v1,5
80000bf8:	12000018 	beqz	s0,80000c5c <_malloc_r+0x52c>
80000bfc:	2c740015 	sltiu	s4,v1,21
80000c00:	00119982 	srl	s3,s1,0x6
80000c04:	266a0038 	addiu	t2,s3,56
80000c08:	3c148001 	lui	s4,0x8001
80000c0c:	000a38c0 	sll	a3,t2,0x3
80000c10:	2688e350 	addiu	t0,s4,-7344
80000c14:	00e81821 	addu	v1,a3,t0
80000c18:	8c70000c 	lw	s0,12(v1)
80000c1c:	5203fefe 	beql	s0,v1,80000818 <_malloc_r+0xe8>
80000c20:	254a0001 	addiu	t2,t2,1
80000c24:	2404fffc 	li	a0,-4
80000c28:	8e0b0004 	lw	t3,4(s0)
80000c2c:	01643824 	and	a3,t3,a0
80000c30:	00f13023 	subu	a2,a3,s1
80000c34:	28c90010 	slti	t1,a2,16
80000c38:	51200006 	beqzl	t1,80000c54 <_malloc_r+0x524>
80000c3c:	254affff 	addiu	t2,t2,-1
80000c40:	04c1ff90 	bgez	a2,80000a84 <_malloc_r+0x354>
80000c44:	02076021 	addu	t4,s0,a3
80000c48:	8e10000c 	lw	s0,12(s0)
80000c4c:	5603fff7 	bnel	s0,v1,80000c2c <_malloc_r+0x4fc>
80000c50:	8e0b0004 	lw	t3,4(s0)
80000c54:	08000206 	j	80000818 <_malloc_r+0xe8>
80000c58:	254a0001 	addiu	t2,t2,1
80000c5c:	1680ffea 	bnez	s4,80000c08 <_malloc_r+0x4d8>
80000c60:	246a005b 	addiu	t2,v1,91
80000c64:	2c780055 	sltiu	t8,v1,85
80000c68:	13000004 	beqz	t8,80000c7c <_malloc_r+0x54c>
80000c6c:	2c640155 	sltiu	a0,v1,341
80000c70:	0011cb02 	srl	t9,s1,0xc
80000c74:	08000302 	j	80000c08 <_malloc_r+0x4d8>
80000c78:	272a006e 	addiu	t2,t9,110
80000c7c:	10800004 	beqz	a0,80000c90 <_malloc_r+0x560>
80000c80:	2c650555 	sltiu	a1,v1,1365
80000c84:	00111bc2 	srl	v1,s1,0xf
80000c88:	08000302 	j	80000c08 <_malloc_r+0x4d8>
80000c8c:	246a0077 	addiu	t2,v1,119
80000c90:	50a0ffdd 	beqzl	a1,80000c08 <_malloc_r+0x4d8>
80000c94:	240a007e 	li	t2,126
80000c98:	00113482 	srl	a2,s1,0x12
80000c9c:	08000302 	j	80000c08 <_malloc_r+0x4d8>
80000ca0:	24ca007c 	addiu	t2,a2,124
80000ca4:	080001d9 	j	80000764 <_malloc_r+0x34>
80000ca8:	24110010 	li	s1,16

80000cac <malloc_extend_top>:
80000cac:	27bdffc8 	addiu	sp,sp,-56
80000cb0:	3c0a8001 	lui	t2,0x8001
80000cb4:	afb7002c 	sw	s7,44(sp)
80000cb8:	afb60028 	sw	s6,40(sp)
80000cbc:	afb50024 	sw	s5,36(sp)
80000cc0:	afb40020 	sw	s4,32(sp)
80000cc4:	afb20018 	sw	s2,24(sp)
80000cc8:	afb10014 	sw	s1,20(sp)
80000ccc:	afbf0030 	sw	ra,48(sp)
80000cd0:	afb3001c 	sw	s3,28(sp)
80000cd4:	afb00010 	sw	s0,16(sp)
80000cd8:	2556e350 	addiu	s6,t2,-7344
80000cdc:	8ed30008 	lw	s3,8(s6)
80000ce0:	3c088001 	lui	t0,0x8001
80000ce4:	8d07e75c 	lw	a3,-6308(t0)
80000ce8:	3c038001 	lui	v1,0x8001
80000cec:	8e690004 	lw	t1,4(s3)
80000cf0:	8c68e760 	lw	t0,-6304(v1)
80000cf4:	2406fffc 	li	a2,-4
80000cf8:	0126a024 	and	s4,t1,a2
80000cfc:	00a71821 	addu	v1,a1,a3
80000d00:	2415ffff 	li	s5,-1
80000d04:	0080b821 	move	s7,a0
80000d08:	02748821 	addu	s1,s3,s4
80000d0c:	11150004 	beq	t0,s5,80000d20 <malloc_extend_top+0x74>
80000d10:	24720010 	addiu	s2,v1,16
80000d14:	2462100f 	addiu	v0,v1,4111
80000d18:	2405f000 	li	a1,-4096
80000d1c:	00459024 	and	s2,v0,a1
80000d20:	0c0003bc 	jal	80000ef0 <_sbrk_r>
80000d24:	02402821 	move	a1,s2
80000d28:	10550006 	beq	v0,s5,80000d44 <malloc_extend_top+0x98>
80000d2c:	00408021 	move	s0,v0
80000d30:	0051202b 	sltu	a0,v0,s1
80000d34:	1080000e 	beqz	a0,80000d70 <malloc_extend_top+0xc4>
80000d38:	3c0b8001 	lui	t3,0x8001
80000d3c:	1276000d 	beq	s3,s6,80000d74 <malloc_extend_top+0xc8>
80000d40:	8d6de76c 	lw	t5,-6292(t3)
80000d44:	8fbf0030 	lw	ra,48(sp)
80000d48:	8fb7002c 	lw	s7,44(sp)
80000d4c:	8fb60028 	lw	s6,40(sp)
80000d50:	8fb50024 	lw	s5,36(sp)
80000d54:	8fb40020 	lw	s4,32(sp)
80000d58:	8fb3001c 	lw	s3,28(sp)
80000d5c:	8fb20018 	lw	s2,24(sp)
80000d60:	8fb10014 	lw	s1,20(sp)
80000d64:	8fb00010 	lw	s0,16(sp)
80000d68:	03e00008 	jr	ra
80000d6c:	27bd0038 	addiu	sp,sp,56
80000d70:	8d6de76c 	lw	t5,-6292(t3)
80000d74:	01b26021 	addu	t4,t5,s2
80000d78:	12110050 	beq	s0,s1,80000ebc <malloc_extend_top+0x210>
80000d7c:	ad6ce76c 	sw	t4,-6292(t3)
80000d80:	3c048001 	lui	a0,0x8001
80000d84:	8c96e760 	lw	s6,-6304(a0)
80000d88:	2415ffff 	li	s5,-1
80000d8c:	12d50049 	beq	s6,s5,80000eb4 <malloc_extend_top+0x208>
80000d90:	3c188001 	lui	t8,0x8001
80000d94:	8f07e76c 	lw	a3,-6292(t8)
80000d98:	02113023 	subu	a2,s0,s1
80000d9c:	00e6c821 	addu	t9,a3,a2
80000da0:	af19e76c 	sw	t9,-6292(t8)
80000da4:	32050007 	andi	a1,s0,0x7
80000da8:	10a00004 	beqz	a1,80000dbc <malloc_extend_top+0x110>
80000dac:	00008821 	move	s1,zero
80000db0:	24090008 	li	t1,8
80000db4:	01258823 	subu	s1,t1,a1
80000db8:	02118021 	addu	s0,s0,s1
80000dbc:	02122821 	addu	a1,s0,s2
80000dc0:	30a30fff 	andi	v1,a1,0xfff
80000dc4:	240a1000 	li	t2,4096
80000dc8:	01434023 	subu	t0,t2,v1
80000dcc:	02288821 	addu	s1,s1,t0
80000dd0:	02e02021 	move	a0,s7
80000dd4:	0c0003bc 	jal	80000ef0 <_sbrk_r>
80000dd8:	02202821 	move	a1,s1
80000ddc:	2412ffff 	li	s2,-1
80000de0:	10520031 	beq	v0,s2,80000ea8 <malloc_extend_top+0x1fc>
80000de4:	00402021 	move	a0,v0
80000de8:	3c0d8001 	lui	t5,0x8001
80000dec:	8db5e76c 	lw	s5,-6292(t5)
80000df0:	0090b023 	subu	s6,a0,s0
80000df4:	02d17821 	addu	t7,s6,s1
80000df8:	3c048001 	lui	a0,0x8001
80000dfc:	02b17021 	addu	t6,s5,s1
80000e00:	248be350 	addiu	t3,a0,-7344
80000e04:	35ec0001 	ori	t4,t7,0x1
80000e08:	adaee76c 	sw	t6,-6292(t5)
80000e0c:	ad700008 	sw	s0,8(t3)
80000e10:	126b0013 	beq	s3,t3,80000e60 <malloc_extend_top+0x1b4>
80000e14:	ae0c0004 	sw	t4,4(s0)
80000e18:	2e910010 	sltiu	s1,s4,16
80000e1c:	52200004 	beqzl	s1,80000e30 <malloc_extend_top+0x184>
80000e20:	8e660004 	lw	a2,4(s3)
80000e24:	24130001 	li	s3,1
80000e28:	08000351 	j	80000d44 <malloc_extend_top+0x98>
80000e2c:	ae130004 	sw	s3,4(s0)
80000e30:	2692fff4 	addiu	s2,s4,-12
80000e34:	2409fff8 	li	t1,-8
80000e38:	0249c824 	and	t9,s2,t1
80000e3c:	30c70001 	andi	a3,a2,0x1
80000e40:	0279c021 	addu	t8,s3,t9
80000e44:	24140005 	li	s4,5
80000e48:	00f91025 	or	v0,a3,t9
80000e4c:	2f300010 	sltiu	s0,t9,16
80000e50:	ae620004 	sw	v0,4(s3)
80000e54:	af140008 	sw	s4,8(t8)
80000e58:	1200000e 	beqz	s0,80000e94 <malloc_extend_top+0x1e8>
80000e5c:	af140004 	sw	s4,4(t8)
80000e60:	3c0a8001 	lui	t2,0x8001
80000e64:	3c178001 	lui	s7,0x8001
80000e68:	3c0d8001 	lui	t5,0x8001
80000e6c:	8dabe76c 	lw	t3,-6292(t5)
80000e70:	8d45e764 	lw	a1,-6300(t2)
80000e74:	8ee8e768 	lw	t0,-6296(s7)
80000e78:	00ab182b 	sltu	v1,a1,t3
80000e7c:	010b602b 	sltu	t4,t0,t3
80000e80:	016c400b 	movn	t0,t3,t4
80000e84:	0163280b 	movn	a1,t3,v1
80000e88:	ad45e764 	sw	a1,-6300(t2)
80000e8c:	08000351 	j	80000d44 <malloc_extend_top+0x98>
80000e90:	aee8e768 	sw	t0,-6296(s7)
80000e94:	26650008 	addiu	a1,s3,8
80000e98:	0c0003d4 	jal	80000f50 <_free_r>
80000e9c:	02e02021 	move	a0,s7
80000ea0:	08000399 	j	80000e64 <malloc_extend_top+0x1b8>
80000ea4:	3c0a8001 	lui	t2,0x8001
80000ea8:	00008821 	move	s1,zero
80000eac:	0800037a 	j	80000de8 <malloc_extend_top+0x13c>
80000eb0:	02002021 	move	a0,s0
80000eb4:	08000369 	j	80000da4 <malloc_extend_top+0xf8>
80000eb8:	ac90e760 	sw	s0,-6304(a0)
80000ebc:	320e0fff 	andi	t6,s0,0xfff
80000ec0:	15c0ffb0 	bnez	t6,80000d84 <malloc_extend_top+0xd8>
80000ec4:	3c048001 	lui	a0,0x8001
80000ec8:	8ecf0008 	lw	t7,8(s6)
80000ecc:	02548821 	addu	s1,s2,s4
80000ed0:	36300001 	ori	s0,s1,0x1
80000ed4:	08000398 	j	80000e60 <malloc_extend_top+0x1b4>
80000ed8:	adf00004 	sw	s0,4(t7)
80000edc:	00000000 	nop

80000ee0 <__malloc_lock>:
80000ee0:	03e00008 	jr	ra
80000ee4:	00000000 	nop

80000ee8 <__malloc_unlock>:
80000ee8:	03e00008 	jr	ra
80000eec:	00000000 	nop

80000ef0 <_sbrk_r>:
80000ef0:	27bdffe0 	addiu	sp,sp,-32
80000ef4:	afb10014 	sw	s1,20(sp)
80000ef8:	afb00010 	sw	s0,16(sp)
80000efc:	00808821 	move	s1,a0
80000f00:	3c108001 	lui	s0,0x8001
80000f04:	00a02021 	move	a0,a1
80000f08:	afbf0018 	sw	ra,24(sp)
80000f0c:	0c00055c 	jal	80001570 <sbrk>
80000f10:	ae00f708 	sw	zero,-2296(s0)
80000f14:	2405ffff 	li	a1,-1
80000f18:	10450006 	beq	v0,a1,80000f34 <_sbrk_r+0x44>
80000f1c:	8e03f708 	lw	v1,-2296(s0)
80000f20:	8fbf0018 	lw	ra,24(sp)
80000f24:	8fb10014 	lw	s1,20(sp)
80000f28:	8fb00010 	lw	s0,16(sp)
80000f2c:	03e00008 	jr	ra
80000f30:	27bd0020 	addiu	sp,sp,32
80000f34:	5460fffa 	bnezl	v1,80000f20 <_sbrk_r+0x30>
80000f38:	ae230000 	sw	v1,0(s1)
80000f3c:	080003c9 	j	80000f24 <_sbrk_r+0x34>
80000f40:	8fbf0018 	lw	ra,24(sp)
	...

80000f50 <_free_r>:
80000f50:	27bdffe0 	addiu	sp,sp,-32
80000f54:	afb10014 	sw	s1,20(sp)
80000f58:	afb00010 	sw	s0,16(sp)
80000f5c:	afbf0018 	sw	ra,24(sp)
80000f60:	00a08021 	move	s0,a1
80000f64:	10a00045 	beqz	a1,8000107c <_free_r+0x12c>
80000f68:	00808821 	move	s1,a0
80000f6c:	0c0003b8 	jal	80000ee0 <__malloc_lock>
80000f70:	00000000 	nop
80000f74:	260bfff8 	addiu	t3,s0,-8
80000f78:	8d650004 	lw	a1,4(t3)
80000f7c:	2403fffe 	li	v1,-2
80000f80:	3c068001 	lui	a2,0x8001
80000f84:	00a34824 	and	t1,a1,v1
80000f88:	24cce350 	addiu	t4,a2,-7344
80000f8c:	01693821 	addu	a3,t3,t1
80000f90:	8ce20004 	lw	v0,4(a3)
80000f94:	8d860008 	lw	a2,8(t4)
80000f98:	2404fffc 	li	a0,-4
80000f9c:	10e6007e 	beq	a3,a2,80001198 <_free_r+0x248>
80000fa0:	00445024 	and	t2,v0,a0
80000fa4:	30b80001 	andi	t8,a1,0x1
80000fa8:	acea0004 	sw	t2,4(a3)
80000fac:	1700000a 	bnez	t8,80000fd8 <_free_r+0x88>
80000fb0:	00006821 	move	t5,zero
80000fb4:	8e02fff8 	lw	v0,-8(s0)
80000fb8:	25990008 	addiu	t9,t4,8
80000fbc:	01625823 	subu	t3,t3,v0
80000fc0:	8d640008 	lw	a0,8(t3)
80000fc4:	10990072 	beq	a0,t9,80001190 <_free_r+0x240>
80000fc8:	01224821 	addu	t1,t1,v0
80000fcc:	8d66000c 	lw	a2,12(t3)
80000fd0:	acc40008 	sw	a0,8(a2)
80000fd4:	ac86000c 	sw	a2,12(a0)
80000fd8:	00ea2821 	addu	a1,a3,t2
80000fdc:	8ca80004 	lw	t0,4(a1)
80000fe0:	31040001 	andi	a0,t0,0x1
80000fe4:	1480000c 	bnez	a0,80001018 <_free_r+0xc8>
80000fe8:	35230001 	ori	v1,t1,0x1
80000fec:	15a00066 	bnez	t5,80001188 <_free_r+0x238>
80000ff0:	012a4821 	addu	t1,t1,t2
80000ff4:	8ce30008 	lw	v1,8(a3)
80000ff8:	3c0e8001 	lui	t6,0x8001
80000ffc:	25cae358 	addiu	t2,t6,-7336
80001000:	506a005c 	beql	v1,t2,80001174 <_free_r+0x224>
80001004:	240d0001 	li	t5,1
80001008:	8cef000c 	lw	t7,12(a3)
8000100c:	ade30008 	sw	v1,8(t7)
80001010:	ac6f000c 	sw	t7,12(v1)
80001014:	35230001 	ori	v1,t1,0x1
80001018:	01698021 	addu	s0,t3,t1
8000101c:	ad630004 	sw	v1,4(t3)
80001020:	15a00014 	bnez	t5,80001074 <_free_r+0x124>
80001024:	ae090000 	sw	t1,0(s0)
80001028:	2d2d0200 	sltiu	t5,t1,512
8000102c:	11a00018 	beqz	t5,80001090 <_free_r+0x140>
80001030:	00091a42 	srl	v1,t1,0x9
80001034:	000970c2 	srl	t6,t1,0x3
80001038:	3c088001 	lui	t0,0x8001
8000103c:	2509e350 	addiu	t1,t0,-7344
80001040:	000e30c0 	sll	a2,t6,0x3
80001044:	8d390004 	lw	t9,4(t1)
80001048:	00c94021 	addu	t0,a2,t1
8000104c:	000e1082 	srl	v0,t6,0x2
80001050:	240a0001 	li	t2,1
80001054:	8d060008 	lw	a2,8(t0)
80001058:	004a6004 	sllv	t4,t2,v0
8000105c:	032cc025 	or	t8,t9,t4
80001060:	ad380004 	sw	t8,4(t1)
80001064:	ad68000c 	sw	t0,12(t3)
80001068:	ad660008 	sw	a2,8(t3)
8000106c:	accb000c 	sw	t3,12(a2)
80001070:	ad0b0008 	sw	t3,8(t0)
80001074:	0c0003ba 	jal	80000ee8 <__malloc_unlock>
80001078:	02202021 	move	a0,s1
8000107c:	8fbf0018 	lw	ra,24(sp)
80001080:	8fb10014 	lw	s1,20(sp)
80001084:	8fb00010 	lw	s0,16(sp)
80001088:	03e00008 	jr	ra
8000108c:	27bd0020 	addiu	sp,sp,32
80001090:	10600006 	beqz	v1,800010ac <_free_r+0x15c>
80001094:	000928c2 	srl	a1,t1,0x3
80001098:	2c640005 	sltiu	a0,v1,5
8000109c:	10800023 	beqz	a0,8000112c <_free_r+0x1dc>
800010a0:	2c6f0015 	sltiu	t7,v1,21
800010a4:	00093982 	srl	a3,t1,0x6
800010a8:	24e50038 	addiu	a1,a3,56
800010ac:	3c0a8001 	lui	t2,0x8001
800010b0:	2547e350 	addiu	a3,t2,-7344
800010b4:	000560c0 	sll	t4,a1,0x3
800010b8:	01874021 	addu	t0,t4,a3
800010bc:	8d060008 	lw	a2,8(t0)
800010c0:	10c80010 	beq	a2,t0,80001104 <_free_r+0x1b4>
800010c4:	2403fffc 	li	v1,-4
800010c8:	8cd80004 	lw	t8,4(a2)
800010cc:	03036824 	and	t5,t8,v1
800010d0:	012d382b 	sltu	a3,t1,t5
800010d4:	50e0ffe3 	beqzl	a3,80001064 <_free_r+0x114>
800010d8:	8cc8000c 	lw	t0,12(a2)
800010dc:	8cc60008 	lw	a2,8(a2)
800010e0:	50c8ffe0 	beql	a2,t0,80001064 <_free_r+0x114>
800010e4:	8cc8000c 	lw	t0,12(a2)
800010e8:	8cca0004 	lw	t2,4(a2)
800010ec:	01436024 	and	t4,t2,v1
800010f0:	012cc82b 	sltu	t9,t1,t4
800010f4:	5720fffa 	bnezl	t9,800010e0 <_free_r+0x190>
800010f8:	8cc60008 	lw	a2,8(a2)
800010fc:	08000419 	j	80001064 <_free_r+0x114>
80001100:	8cc8000c 	lw	t0,12(a2)
80001104:	24b00003 	addiu	s0,a1,3
80001108:	28a40000 	slti	a0,a1,0
8000110c:	0204280b 	movn	a1,s0,a0
80001110:	8cee0004 	lw	t6,4(a3)
80001114:	00051083 	sra	v0,a1,0x2
80001118:	24050001 	li	a1,1
8000111c:	00457804 	sllv	t7,a1,v0
80001120:	01cf4825 	or	t1,t6,t7
80001124:	08000419 	j	80001064 <_free_r+0x114>
80001128:	ace90004 	sw	t1,4(a3)
8000112c:	15e0ffdf 	bnez	t7,800010ac <_free_r+0x15c>
80001130:	2465005b 	addiu	a1,v1,91
80001134:	2c650055 	sltiu	a1,v1,85
80001138:	10a00004 	beqz	a1,8000114c <_free_r+0x1fc>
8000113c:	2c6d0155 	sltiu	t5,v1,341
80001140:	00098302 	srl	s0,t1,0xc
80001144:	0800042b 	j	800010ac <_free_r+0x15c>
80001148:	2605006e 	addiu	a1,s0,110
8000114c:	11a00004 	beqz	t5,80001160 <_free_r+0x210>
80001150:	2c780555 	sltiu	t8,v1,1365
80001154:	00091bc2 	srl	v1,t1,0xf
80001158:	0800042b 	j	800010ac <_free_r+0x15c>
8000115c:	24650077 	addiu	a1,v1,119
80001160:	5300ffd2 	beqzl	t8,800010ac <_free_r+0x15c>
80001164:	2405007e 	li	a1,126
80001168:	0009cc82 	srl	t9,t1,0x12
8000116c:	0800042b 	j	800010ac <_free_r+0x15c>
80001170:	2725007c 	addiu	a1,t9,124
80001174:	ac6b000c 	sw	t3,12(v1)
80001178:	ac6b0008 	sw	t3,8(v1)
8000117c:	ad63000c 	sw	v1,12(t3)
80001180:	08000405 	j	80001014 <_free_r+0xc4>
80001184:	ad630008 	sw	v1,8(t3)
80001188:	08000402 	j	80001008 <_free_r+0xb8>
8000118c:	8ce30008 	lw	v1,8(a3)
80001190:	080003f6 	j	80000fd8 <_free_r+0x88>
80001194:	240d0001 	li	t5,1
80001198:	30a70001 	andi	a3,a1,0x1
8000119c:	14e00008 	bnez	a3,800011c0 <_free_r+0x270>
800011a0:	012a4821 	addu	t1,t1,t2
800011a4:	8e08fff8 	lw	t0,-8(s0)
800011a8:	01685823 	subu	t3,t3,t0
800011ac:	8d6d000c 	lw	t5,12(t3)
800011b0:	8d6a0008 	lw	t2,8(t3)
800011b4:	01284821 	addu	t1,t1,t0
800011b8:	adaa0008 	sw	t2,8(t5)
800011bc:	ad4d000c 	sw	t5,12(t2)
800011c0:	3c108001 	lui	s0,0x8001
800011c4:	8e0fe758 	lw	t7,-6312(s0)
800011c8:	352e0001 	ori	t6,t1,0x1
800011cc:	ad8b0008 	sw	t3,8(t4)
800011d0:	012f282b 	sltu	a1,t1,t7
800011d4:	14a0ffa7 	bnez	a1,80001074 <_free_r+0x124>
800011d8:	ad6e0004 	sw	t6,4(t3)
800011dc:	3c098001 	lui	t1,0x8001
800011e0:	8d25e75c 	lw	a1,-6308(t1)
800011e4:	0c00047d 	jal	800011f4 <_malloc_trim_r>
800011e8:	02202021 	move	a0,s1
800011ec:	0800041d 	j	80001074 <_free_r+0x124>
800011f0:	00000000 	nop

800011f4 <_malloc_trim_r>:
800011f4:	27bdffd8 	addiu	sp,sp,-40
800011f8:	afb3001c 	sw	s3,28(sp)
800011fc:	afb20018 	sw	s2,24(sp)
80001200:	afb10014 	sw	s1,20(sp)
80001204:	00809021 	move	s2,a0
80001208:	afb00010 	sw	s0,16(sp)
8000120c:	afbf0020 	sw	ra,32(sp)
80001210:	0c0003b8 	jal	80000ee0 <__malloc_lock>
80001214:	00a08021 	move	s0,a1
80001218:	3c058001 	lui	a1,0x8001
8000121c:	24b3e350 	addiu	s3,a1,-7344
80001220:	8e640008 	lw	a0,8(s3)
80001224:	2409fffc 	li	t1,-4
80001228:	24081000 	li	t0,4096
8000122c:	8c8a0004 	lw	t2,4(a0)
80001230:	00002821 	move	a1,zero
80001234:	02402021 	move	a0,s2
80001238:	01498824 	and	s1,t2,t1
8000123c:	02303823 	subu	a3,s1,s0
80001240:	24e60fef 	addiu	a2,a3,4079
80001244:	00c8001b 	divu	zero,a2,t0
80001248:	51000001 	beqzl	t0,80001250 <_malloc_trim_r+0x5c>
8000124c:	0000018d 	break	0x6
80001250:	00001812 	mflo	v1
80001254:	2462ffff 	addiu	v0,v1,-1
80001258:	00028300 	sll	s0,v0,0xc
8000125c:	2a031000 	slti	v1,s0,4096
80001260:	14600007 	bnez	v1,80001280 <_malloc_trim_r+0x8c>
80001264:	00000000 	nop
80001268:	0c0003bc 	jal	80000ef0 <_sbrk_r>
8000126c:	00000000 	nop
80001270:	8e6d0008 	lw	t5,8(s3)
80001274:	01b15821 	addu	t3,t5,s1
80001278:	104b000b 	beq	v0,t3,800012a8 <_malloc_trim_r+0xb4>
8000127c:	02402021 	move	a0,s2
80001280:	0c0003ba 	jal	80000ee8 <__malloc_unlock>
80001284:	00000000 	nop
80001288:	00001021 	move	v0,zero
8000128c:	8fbf0020 	lw	ra,32(sp)
80001290:	8fb3001c 	lw	s3,28(sp)
80001294:	8fb20018 	lw	s2,24(sp)
80001298:	8fb10014 	lw	s1,20(sp)
8000129c:	8fb00010 	lw	s0,16(sp)
800012a0:	03e00008 	jr	ra
800012a4:	27bd0028 	addiu	sp,sp,40
800012a8:	00102823 	negu	a1,s0
800012ac:	0c0003bc 	jal	80000ef0 <_sbrk_r>
800012b0:	02402021 	move	a0,s2
800012b4:	240effff 	li	t6,-1
800012b8:	02402021 	move	a0,s2
800012bc:	00002821 	move	a1,zero
800012c0:	104e000c 	beq	v0,t6,800012f4 <_malloc_trim_r+0x100>
800012c4:	3c068001 	lui	a2,0x8001
800012c8:	8e620008 	lw	v0,8(s3)
800012cc:	02303823 	subu	a3,s1,s0
800012d0:	34e80001 	ori	t0,a3,0x1
800012d4:	ac480004 	sw	t0,4(v0)
800012d8:	8cc3e76c 	lw	v1,-6292(a2)
800012dc:	02402021 	move	a0,s2
800012e0:	0070c823 	subu	t9,v1,s0
800012e4:	0c0003ba 	jal	80000ee8 <__malloc_unlock>
800012e8:	acd9e76c 	sw	t9,-6292(a2)
800012ec:	080004a3 	j	8000128c <_malloc_trim_r+0x98>
800012f0:	24020001 	li	v0,1
800012f4:	0c0003bc 	jal	80000ef0 <_sbrk_r>
800012f8:	00000000 	nop
800012fc:	8e660008 	lw	a2,8(s3)
80001300:	02402021 	move	a0,s2
80001304:	00468023 	subu	s0,v0,a2
80001308:	2a0f0010 	slti	t7,s0,16
8000130c:	15e0ffdc 	bnez	t7,80001280 <_malloc_trim_r+0x8c>
80001310:	36070001 	ori	a3,s0,0x1
80001314:	3c188001 	lui	t8,0x8001
80001318:	8f13e760 	lw	s3,-6304(t8)
8000131c:	3c118001 	lui	s1,0x8001
80001320:	00539023 	subu	s2,v0,s3
80001324:	ae32e76c 	sw	s2,-6292(s1)
80001328:	080004a0 	j	80001280 <_malloc_trim_r+0x8c>
8000132c:	acc70004 	sw	a3,4(a2)

80001330 <_reclaim_reent>:
80001330:	3c038001 	lui	v1,0x8001
80001334:	8c65e348 	lw	a1,-7352(v1)
80001338:	27bdffe0 	addiu	sp,sp,-32
8000133c:	afb10014 	sw	s1,20(sp)
80001340:	afbf001c 	sw	ra,28(sp)
80001344:	afb20018 	sw	s2,24(sp)
80001348:	afb00010 	sw	s0,16(sp)
8000134c:	10850017 	beq	a0,a1,800013ac <_reclaim_reent+0x7c>
80001350:	00808821 	move	s1,a0
80001354:	8c83004c 	lw	v1,76(a0)
80001358:	1460002f 	bnez	v1,80001418 <_reclaim_reent+0xe8>
8000135c:	00009021 	move	s2,zero
80001360:	8e250148 	lw	a1,328(s1)
80001364:	50a0000c 	beqzl	a1,80001398 <_reclaim_reent+0x68>
80001368:	8e250054 	lw	a1,84(s1)
8000136c:	2632014c 	addiu	s2,s1,332
80001370:	50b20009 	beql	a1,s2,80001398 <_reclaim_reent+0x68>
80001374:	8e250054 	lw	a1,84(s1)
80001378:	00a08021 	move	s0,a1
8000137c:	02002821 	move	a1,s0
80001380:	8e100000 	lw	s0,0(s0)
80001384:	0c0003d4 	jal	80000f50 <_free_r>
80001388:	02202021 	move	a0,s1
8000138c:	1612fffc 	bne	s0,s2,80001380 <_reclaim_reent+0x50>
80001390:	02002821 	move	a1,s0
80001394:	8e250054 	lw	a1,84(s1)
80001398:	14a0001b 	bnez	a1,80001408 <_reclaim_reent+0xd8>
8000139c:	00000000 	nop
800013a0:	8e270038 	lw	a3,56(s1)
800013a4:	54e00007 	bnezl	a3,800013c4 <_reclaim_reent+0x94>
800013a8:	8e28003c 	lw	t0,60(s1)
800013ac:	8fbf001c 	lw	ra,28(sp)
800013b0:	8fb20018 	lw	s2,24(sp)
800013b4:	8fb10014 	lw	s1,20(sp)
800013b8:	8fb00010 	lw	s0,16(sp)
800013bc:	03e00008 	jr	ra
800013c0:	27bd0020 	addiu	sp,sp,32
800013c4:	0100f809 	jalr	t0
800013c8:	02202021 	move	a0,s1
800013cc:	8e3002e0 	lw	s0,736(s1)
800013d0:	1200fff7 	beqz	s0,800013b0 <_reclaim_reent+0x80>
800013d4:	8fbf001c 	lw	ra,28(sp)
800013d8:	8e050000 	lw	a1,0(s0)
800013dc:	14a00006 	bnez	a1,800013f8 <_reclaim_reent+0xc8>
800013e0:	00000000 	nop
800013e4:	02202021 	move	a0,s1
800013e8:	0c0003d4 	jal	80000f50 <_free_r>
800013ec:	02002821 	move	a1,s0
800013f0:	080004ec 	j	800013b0 <_reclaim_reent+0x80>
800013f4:	8fbf001c 	lw	ra,28(sp)
800013f8:	0c00051b 	jal	8000146c <cleanup_glue>
800013fc:	02202021 	move	a0,s1
80001400:	080004fa 	j	800013e8 <_reclaim_reent+0xb8>
80001404:	02202021 	move	a0,s1
80001408:	0c0003d4 	jal	80000f50 <_free_r>
8000140c:	02202021 	move	a0,s1
80001410:	080004e9 	j	800013a4 <_reclaim_reent+0x74>
80001414:	8e270038 	lw	a3,56(s1)
80001418:	00122880 	sll	a1,s2,0x2
8000141c:	00a32021 	addu	a0,a1,v1
80001420:	8c900000 	lw	s0,0(a0)
80001424:	52000008 	beqzl	s0,80001448 <_reclaim_reent+0x118>
80001428:	26520001 	addiu	s2,s2,1
8000142c:	02002821 	move	a1,s0
80001430:	8e100000 	lw	s0,0(s0)
80001434:	0c0003d4 	jal	80000f50 <_free_r>
80001438:	02202021 	move	a0,s1
8000143c:	1600fffc 	bnez	s0,80001430 <_reclaim_reent+0x100>
80001440:	02002821 	move	a1,s0
80001444:	26520001 	addiu	s2,s2,1
80001448:	2a46000f 	slti	a2,s2,15
8000144c:	50c00003 	beqzl	a2,8000145c <_reclaim_reent+0x12c>
80001450:	8e25004c 	lw	a1,76(s1)
80001454:	08000506 	j	80001418 <_reclaim_reent+0xe8>
80001458:	8e23004c 	lw	v1,76(s1)
8000145c:	0c0003d4 	jal	80000f50 <_free_r>
80001460:	02202021 	move	a0,s1
80001464:	080004d9 	j	80001364 <_reclaim_reent+0x34>
80001468:	8e250148 	lw	a1,328(s1)

8000146c <cleanup_glue>:
8000146c:	27bdffe0 	addiu	sp,sp,-32
80001470:	afb10014 	sw	s1,20(sp)
80001474:	afb00010 	sw	s0,16(sp)
80001478:	afbf0018 	sw	ra,24(sp)
8000147c:	8ca30000 	lw	v1,0(a1)
80001480:	00a08821 	move	s1,a1
80001484:	00808021 	move	s0,a0
80001488:	14600009 	bnez	v1,800014b0 <cleanup_glue+0x44>
8000148c:	00602821 	move	a1,v1
80001490:	02002021 	move	a0,s0
80001494:	0c0003d4 	jal	80000f50 <_free_r>
80001498:	02202821 	move	a1,s1
8000149c:	8fbf0018 	lw	ra,24(sp)
800014a0:	8fb10014 	lw	s1,20(sp)
800014a4:	8fb00010 	lw	s0,16(sp)
800014a8:	03e00008 	jr	ra
800014ac:	27bd0020 	addiu	sp,sp,32
800014b0:	0c00051b 	jal	8000146c <cleanup_glue>
800014b4:	00000000 	nop
800014b8:	08000525 	j	80001494 <cleanup_glue+0x28>
800014bc:	02002021 	move	a0,s0

800014c0 <_wrapup_reent>:
800014c0:	27bdffd8 	addiu	sp,sp,-40
800014c4:	afb3001c 	sw	s3,28(sp)
800014c8:	afbf0020 	sw	ra,32(sp)
800014cc:	afb20018 	sw	s2,24(sp)
800014d0:	afb10014 	sw	s1,20(sp)
800014d4:	afb00010 	sw	s0,16(sp)
800014d8:	10800021 	beqz	a0,80001560 <_wrapup_reent+0xa0>
800014dc:	00809821 	move	s3,a0
800014e0:	8e720148 	lw	s2,328(s3)
800014e4:	52400011 	beqzl	s2,8000152c <_wrapup_reent+0x6c>
800014e8:	8e62003c 	lw	v0,60(s3)
800014ec:	8e420004 	lw	v0,4(s2)
800014f0:	2451ffff 	addiu	s1,v0,-1
800014f4:	06200009 	bltz	s1,8000151c <_wrapup_reent+0x5c>
800014f8:	00112080 	sll	a0,s1,0x2
800014fc:	00921821 	addu	v1,a0,s2
80001500:	24700008 	addiu	s0,v1,8
80001504:	8e050000 	lw	a1,0(s0)
80001508:	2631ffff 	addiu	s1,s1,-1
8000150c:	00a0f809 	jalr	a1
80001510:	2610fffc 	addiu	s0,s0,-4
80001514:	0623fffc 	bgezl	s1,80001508 <_wrapup_reent+0x48>
80001518:	8e050000 	lw	a1,0(s0)
8000151c:	8e520000 	lw	s2,0(s2)
80001520:	5640fff3 	bnezl	s2,800014f0 <_wrapup_reent+0x30>
80001524:	8e420004 	lw	v0,4(s2)
80001528:	8e62003c 	lw	v0,60(s3)
8000152c:	14400008 	bnez	v0,80001550 <_wrapup_reent+0x90>
80001530:	00000000 	nop
80001534:	8fbf0020 	lw	ra,32(sp)
80001538:	8fb3001c 	lw	s3,28(sp)
8000153c:	8fb20018 	lw	s2,24(sp)
80001540:	8fb10014 	lw	s1,20(sp)
80001544:	8fb00010 	lw	s0,16(sp)
80001548:	03e00008 	jr	ra
8000154c:	27bd0028 	addiu	sp,sp,40
80001550:	0040f809 	jalr	v0
80001554:	02602021 	move	a0,s3
80001558:	0800054e 	j	80001538 <_wrapup_reent+0x78>
8000155c:	8fbf0020 	lw	ra,32(sp)
80001560:	3c038001 	lui	v1,0x8001
80001564:	08000538 	j	800014e0 <_wrapup_reent+0x20>
80001568:	8c73e348 	lw	s3,-7352(v1)
8000156c:	00000000 	nop

80001570 <sbrk>:
80001570:	3c028001 	lui	v0,0x8001
80001574:	8c42e7a0 	lw	v0,-6240(v0)
80001578:	00441821 	addu	v1,v0,a0
8000157c:	3c018001 	lui	at,0x8001
80001580:	03e00008 	jr	ra
80001584:	ac23e7a0 	sw	v1,-6240(at)
	...

80001590 <init_board>:
80001590:	3c0c8001 	lui	t4,0x8001
80001594:	258c0928 	addiu	t4,t4,2344
80001598:	2584fff4 	addiu	a0,t4,-12
8000159c:	24020003 	li	v0,3
800015a0:	24060001 	li	a2,1
800015a4:	27bdffe8 	addiu	sp,sp,-24
800015a8:	2588ff88 	addiu	t0,t4,-120
800015ac:	3c098000 	lui	t1,0x8000
800015b0:	25291910 	addiu	t1,t1,6416
800015b4:	3c0a8000 	lui	t2,0x8000
800015b8:	254a1958 	addiu	t2,t2,6488
800015bc:	3c0b8000 	lui	t3,0x8000
800015c0:	256b19a4 	addiu	t3,t3,6564
800015c4:	3c058000 	lui	a1,0x8000
800015c8:	24a519cc 	addiu	a1,a1,6604
800015cc:	25990060 	addiu	t9,t4,96
800015d0:	ad840058 	sw	a0,88(t4)
800015d4:	3c188000 	lui	t8,0x8000
800015d8:	27181bc4 	addiu	t8,t8,7108
800015dc:	3c0f8000 	lui	t7,0x8000
800015e0:	25ef1c1c 	addiu	t7,t7,7196
800015e4:	3c0e8000 	lui	t6,0x8000
800015e8:	25ce1c58 	addiu	t6,t6,7256
800015ec:	3c0d8000 	lui	t5,0x8000
800015f0:	25ad1cc0 	addiu	t5,t5,7360
800015f4:	3c078001 	lui	a3,0x8001
800015f8:	24e7ea10 	addiu	a3,a3,-5616
800015fc:	240321b6 	li	v1,8630
80001600:	24041000 	li	a0,4096
80001604:	ad020068 	sw	v0,104(t0)
80001608:	afbf0010 	sw	ra,16(sp)
8000160c:	ad82005c 	sw	v0,92(t4)
80001610:	ad8200c8 	sw	v0,200(t4)
80001614:	ad89006c 	sw	t1,108(t4)
80001618:	ad8a0070 	sw	t2,112(t4)
8000161c:	ad8b0074 	sw	t3,116(t4)
80001620:	ad850078 	sw	a1,120(t4)
80001624:	ad9900c4 	sw	t9,196(t4)
80001628:	ad86ff90 	sw	a2,-112(t4)
8000162c:	ad98ff94 	sw	t8,-108(t4)
80001630:	ad8fff98 	sw	t7,-104(t4)
80001634:	ad8eff9c 	sw	t6,-100(t4)
80001638:	ad8dffa0 	sw	t5,-96(t4)
8000163c:	ad87ffac 	sw	a3,-84(t4)
80001640:	ad83ffb4 	sw	v1,-76(t4)
80001644:	ad84ffdc 	sw	a0,-36(t4)
80001648:	ad88ffec 	sw	t0,-20(t4)
8000164c:	ad890000 	sw	t1,0(t4)
80001650:	ad8a0004 	sw	t2,4(t4)
80001654:	ad8b0008 	sw	t3,8(t4)
80001658:	ad85000c 	sw	a1,12(t4)
8000165c:	ad80fffc 	sw	zero,-4(t4)
80001660:	ad800018 	sw	zero,24(t4)
80001664:	ad800068 	sw	zero,104(t4)
80001668:	ad800084 	sw	zero,132(t4)
8000166c:	ad860060 	sw	a2,96(t4)
80001670:	ad860064 	sw	a2,100(t4)
80001674:	ad80ff88 	sw	zero,-120(t4)
80001678:	0c003538 	jal	8000d4e0 <exceptions_init>
8000167c:	ad80ff8c 	sw	zero,-116(t4)
80001680:	8fbf0010 	lw	ra,16(sp)
80001684:	03e00008 	jr	ra
80001688:	27bd0018 	addiu	sp,sp,24

8000168c <fini_board>:
8000168c:	27bdffe0 	addiu	sp,sp,-32
80001690:	afb10014 	sw	s1,20(sp)
80001694:	afb00010 	sw	s0,16(sp)
80001698:	afbf0018 	sw	ra,24(sp)
8000169c:	3c108001 	lui	s0,0x8001
800016a0:	261008b0 	addiu	s0,s0,2224
800016a4:	24110002 	li	s1,2
800016a8:	8e020010 	lw	v0,16(s0)
800016ac:	02002021 	move	a0,s0
800016b0:	0040f809 	jalr	v0
800016b4:	2631ffff 	addiu	s1,s1,-1
800016b8:	0621fffb 	bgez	s1,800016a8 <fini_board+0x1c>
800016bc:	2610006c 	addiu	s0,s0,108
800016c0:	8fbf0018 	lw	ra,24(sp)
800016c4:	8fb10014 	lw	s1,20(sp)
800016c8:	8fb00010 	lw	s0,16(sp)
800016cc:	03e00008 	jr	ra
800016d0:	27bd0020 	addiu	sp,sp,32

800016d4 <set_extern_clock>:
800016d4:	27bdffe8 	addiu	sp,sp,-24
800016d8:	afbf0010 	sw	ra,16(sp)
800016dc:	3c018001 	lui	at,0x8001
800016e0:	0c000610 	jal	80001840 <calibrate_cpu>
800016e4:	ac24e7c0 	sw	a0,-6208(at)
800016e8:	8fbf0010 	lw	ra,16(sp)
800016ec:	3c018001 	lui	at,0x8001
800016f0:	ac22e7b8 	sw	v0,-6216(at)
800016f4:	3c018001 	lui	at,0x8001
800016f8:	ac23e7bc 	sw	v1,-6212(at)
800016fc:	03e00008 	jr	ra
80001700:	27bd0018 	addiu	sp,sp,24

80001704 <calibrate_time>:
80001704:	27bdffe0 	addiu	sp,sp,-32
80001708:	afb00018 	sw	s0,24(sp)
8000170c:	3c108001 	lui	s0,0x8001
80001710:	26100880 	addiu	s0,s0,2176
80001714:	24060024 	li	a2,36
80001718:	02002021 	move	a0,s0
8000171c:	afbf001c 	sw	ra,28(sp)
80001720:	0c0008d0 	jal	80002340 <memset>
80001724:	00002821 	move	a1,zero
80001728:	240507db 	li	a1,2011
8000172c:	3c048001 	lui	a0,0x8001
80001730:	2484ea1c 	addiu	a0,a0,-5604
80001734:	0c0008c0 	jal	80002300 <atoi>
80001738:	ae050014 	sw	a1,20(s0)
8000173c:	3c048001 	lui	a0,0x8001
80001740:	2484ea20 	addiu	a0,a0,-5600
80001744:	0c0008c0 	jal	80002300 <atoi>
80001748:	ae02000c 	sw	v0,12(s0)
8000174c:	3c048001 	lui	a0,0x8001
80001750:	2484ea24 	addiu	a0,a0,-5596
80001754:	0c0008c0 	jal	80002300 <atoi>
80001758:	ae020010 	sw	v0,16(s0)
8000175c:	3c048001 	lui	a0,0x8001
80001760:	2484ea28 	addiu	a0,a0,-5592
80001764:	0c0008c0 	jal	80002300 <atoi>
80001768:	ae020008 	sw	v0,8(s0)
8000176c:	3c048001 	lui	a0,0x8001
80001770:	2484ea2c 	addiu	a0,a0,-5588
80001774:	0c0008c0 	jal	80002300 <atoi>
80001778:	ae020004 	sw	v0,4(s0)
8000177c:	02002021 	move	a0,s0
80001780:	0c000900 	jal	80002400 <mktime>
80001784:	ae020000 	sw	v0,0(s0)
80001788:	3c078001 	lui	a3,0x8001
8000178c:	24e7f710 	addiu	a3,a3,-2288
80001790:	2403ff4c 	li	v1,-180
80001794:	ace30000 	sw	v1,0(a3)
80001798:	00004021 	move	t0,zero
8000179c:	00004821 	move	t1,zero
800017a0:	24050001 	li	a1,1
800017a4:	ace00004 	sw	zero,4(a3)
800017a8:	3c048000 	lui	a0,0x8000
800017ac:	248421d0 	addiu	a0,a0,8656
800017b0:	3c018001 	lui	at,0x8001
800017b4:	ac28e7c8 	sw	t0,-6200(at)
800017b8:	3c018001 	lui	at,0x8001
800017bc:	ac29e7cc 	sw	t1,-6196(at)
800017c0:	3c018001 	lui	at,0x8001
800017c4:	ac22f718 	sw	v0,-2280(at)
800017c8:	0c003664 	jal	8000d990 <set_new_handler>
800017cc:	24060014 	li	a2,20
800017d0:	24030001 	li	v1,1
800017d4:	27a40010 	addiu	a0,sp,16
800017d8:	afa30010 	sw	v1,16(sp)
800017dc:	0c00087c 	jal	800021f0 <setup_rtc_timer>
800017e0:	afa00014 	sw	zero,20(sp)
800017e4:	8fbf001c 	lw	ra,28(sp)
800017e8:	8fb00018 	lw	s0,24(sp)
800017ec:	03e00008 	jr	ra
800017f0:	27bd0020 	addiu	sp,sp,32

800017f4 <get_build_date>:
800017f4:	3c028001 	lui	v0,0x8001
800017f8:	24420880 	addiu	v0,v0,2176
800017fc:	24430020 	addiu	v1,v0,32
80001800:	8c450000 	lw	a1,0(v0)
80001804:	8c460004 	lw	a2,4(v0)
80001808:	8c470008 	lw	a3,8(v0)
8000180c:	8c48000c 	lw	t0,12(v0)
80001810:	ac850000 	sw	a1,0(a0)
80001814:	ac860004 	sw	a2,4(a0)
80001818:	ac870008 	sw	a3,8(a0)
8000181c:	ac88000c 	sw	t0,12(a0)
80001820:	24420010 	addiu	v0,v0,16
80001824:	1443fff6 	bne	v0,v1,80001800 <get_build_date+0xc>
80001828:	24840010 	addiu	a0,a0,16
8000182c:	8c430000 	lw	v1,0(v0)
80001830:	ac830000 	sw	v1,0(a0)
80001834:	3c028001 	lui	v0,0x8001
80001838:	03e00008 	jr	ra
8000183c:	8c42f718 	lw	v0,-2280(v0)

80001840 <calibrate_cpu>:
80001840:	3c02b82f 	lui	v0,0xb82f
80001844:	3c038001 	lui	v1,0x8001
80001848:	8c63e7c0 	lw	v1,-6208(v1)
8000184c:	344e4000 	ori	t6,v0,0x4000
80001850:	8dc90000 	lw	t1,0(t6)
80001854:	3c0adfff 	lui	t2,0xdfff
80001858:	2478ffff 	addiu	t8,v1,-1
8000185c:	3544ffff 	ori	a0,t2,0xffff
80001860:	3c05b82f 	lui	a1,0xb82f
80001864:	3c06b82f 	lui	a2,0xb82f
80001868:	3c19b82f 	lui	t9,0xb82f
8000186c:	34aad020 	ori	t2,a1,0xd020
80001870:	240b0001 	li	t3,1
80001874:	01247824 	and	t7,t1,a0
80001878:	34ccd024 	ori	t4,a2,0xd024
8000187c:	3728d000 	ori	t0,t9,0xd000
80001880:	00186a02 	srl	t5,t8,0x8
80001884:	adcf0000 	sw	t7,0(t6)
80001888:	3c032000 	lui	v1,0x2000
8000188c:	ad400000 	sw	zero,0(t2)
80001890:	ad8d0000 	sw	t5,0(t4)
80001894:	ad0b0000 	sw	t3,0(t0)
80001898:	ad4b0000 	sw	t3,0(t2)
8000189c:	3c0bb82f 	lui	t3,0xb82f
800018a0:	8d6b4004 	lw	t3,16388(t3)
800018a4:	01633824 	and	a3,t3,v1
800018a8:	10e0fffc 	beqz	a3,8000189c <calibrate_cpu+0x5c>
800018ac:	00000000 	nop
800018b0:	3c0cb830 	lui	t4,0xb830
800018b4:	8d8cd020 	lw	t4,-12256(t4)
800018b8:	31880002 	andi	t0,t4,0x2
800018bc:	1100fff7 	beqz	t0,8000189c <calibrate_cpu+0x5c>
800018c0:	00000000 	nop
800018c4:	3c01b830 	lui	at,0xb830
800018c8:	ac20d000 	sw	zero,-12288(at)
800018cc:	3c01b830 	lui	at,0xb830
800018d0:	ac20d020 	sw	zero,-12256(at)
800018d4:	3c01b82f 	lui	at,0xb82f
800018d8:	ac294000 	sw	t1,16384(at)
800018dc:	3c18b830 	lui	t8,0xb830
800018e0:	8f18d008 	lw	t8,-12280(t8)
800018e4:	00007821 	move	t7,zero
800018e8:	000f6a00 	sll	t5,t7,0x8
800018ec:	00184827 	nor	t1,zero,t8
800018f0:	00097602 	srl	t6,t1,0x18
800018f4:	01ae1825 	or	v1,t5,t6
800018f8:	00091200 	sll	v0,t1,0x8
800018fc:	3c018001 	lui	at,0x8001
80001900:	ac22e7b8 	sw	v0,-6216(at)
80001904:	3c018001 	lui	at,0x8001
80001908:	03e00008 	jr	ra
8000190c:	ac23e7bc 	sw	v1,-6212(at)

80001910 <serial_init>:
80001910:	27bdffe8 	addiu	sp,sp,-24
80001914:	afb00010 	sw	s0,16(sp)
80001918:	afbf0014 	sw	ra,20(sp)
8000191c:	00808021 	move	s0,a0
80001920:	8c840004 	lw	a0,4(a0)
80001924:	0c000778 	jal	80001de0 <SportOpen>
80001928:	00002821 	move	a1,zero
8000192c:	00401821 	move	v1,v0
80001930:	10600005 	beqz	v1,80001948 <serial_init+0x38>
80001934:	2402fffc 	li	v0,-4
80001938:	24040001 	li	a0,1
8000193c:	ae04001c 	sw	a0,28(s0)
80001940:	ae030020 	sw	v1,32(s0)
80001944:	00001021 	move	v0,zero
80001948:	8fbf0014 	lw	ra,20(sp)
8000194c:	8fb00010 	lw	s0,16(sp)
80001950:	03e00008 	jr	ra
80001954:	27bd0018 	addiu	sp,sp,24

80001958 <serial_fini>:
80001958:	27bdffe8 	addiu	sp,sp,-24
8000195c:	afb00010 	sw	s0,16(sp)
80001960:	afbf0014 	sw	ra,20(sp)
80001964:	8c82001c 	lw	v0,28(a0)
80001968:	24050001 	li	a1,1
8000196c:	00808021 	move	s0,a0
80001970:	10450006 	beq	v0,a1,8000198c <serial_fini+0x34>
80001974:	2404fffb 	li	a0,-5
80001978:	8fbf0014 	lw	ra,20(sp)
8000197c:	8fb00010 	lw	s0,16(sp)
80001980:	00801021 	move	v0,a0
80001984:	03e00008 	jr	ra
80001988:	27bd0018 	addiu	sp,sp,24
8000198c:	0c0007e6 	jal	80001f98 <SportClose>
80001990:	8e040020 	lw	a0,32(s0)
80001994:	ae000020 	sw	zero,32(s0)
80001998:	ae00001c 	sw	zero,28(s0)
8000199c:	0800065e 	j	80001978 <serial_fini+0x20>
800019a0:	00002021 	move	a0,zero

800019a4 <serial_read>:
800019a4:	27bdffe8 	addiu	sp,sp,-24
800019a8:	afbf0010 	sw	ra,16(sp)
800019ac:	8c840020 	lw	a0,32(a0)
800019b0:	00a01821 	move	v1,a1
800019b4:	00c02821 	move	a1,a2
800019b8:	0c000809 	jal	80002024 <SportRead>
800019bc:	00603021 	move	a2,v1
800019c0:	8fbf0010 	lw	ra,16(sp)
800019c4:	03e00008 	jr	ra
800019c8:	27bd0018 	addiu	sp,sp,24

800019cc <serial_write>:
800019cc:	27bdffe8 	addiu	sp,sp,-24
800019d0:	afbf0010 	sw	ra,16(sp)
800019d4:	8c840020 	lw	a0,32(a0)
800019d8:	00a01821 	move	v1,a1
800019dc:	00c02821 	move	a1,a2
800019e0:	0c000840 	jal	80002100 <SportWrite>
800019e4:	00603021 	move	a2,v1
800019e8:	8fbf0010 	lw	ra,16(sp)
800019ec:	03e00008 	jr	ra
800019f0:	27bd0018 	addiu	sp,sp,24
	...

80001a00 <UARTOpen>:
80001a00:	27bdffd0 	addiu	sp,sp,-48
80001a04:	afb00028 	sw	s0,40(sp)
80001a08:	3c108001 	lui	s0,0x8001
80001a0c:	2610e7e0 	addiu	s0,s0,-6176
80001a10:	afbf002c 	sw	ra,44(sp)
80001a14:	3c038001 	lui	v1,0x8001
80001a18:	8c63e7e4 	lw	v1,-6172(v1)
80001a1c:	10a00002 	beqz	a1,80001a28 <UARTOpen+0x28>
80001a20:	ae040000 	sw	a0,0(s0)
80001a24:	ae050008 	sw	a1,8(s0)
80001a28:	10600005 	beqz	v1,80001a40 <UARTOpen+0x40>
80001a2c:	00001021 	move	v0,zero
80001a30:	8fbf002c 	lw	ra,44(sp)
80001a34:	8fb00028 	lw	s0,40(sp)
80001a38:	03e00008 	jr	ra
80001a3c:	27bd0030 	addiu	sp,sp,48
80001a40:	24081000 	li	t0,4096
80001a44:	ae080010 	sw	t0,16(s0)
80001a48:	ae000014 	sw	zero,20(s0)
80001a4c:	ae00001c 	sw	zero,28(s0)
80001a50:	ae000018 	sw	zero,24(s0)
80001a54:	3c048001 	lui	a0,0x8001
80001a58:	8c84e7f0 	lw	a0,-6160(a0)
80001a5c:	240d0001 	li	t5,1
80001a60:	ae0d0004 	sw	t5,4(s0)
80001a64:	0c0001b8 	jal	800006e0 <malloc>
80001a68:	ae00000c 	sw	zero,12(s0)
80001a6c:	3c068001 	lui	a2,0x8001
80001a70:	8cc6e7b8 	lw	a2,-6216(a2)
80001a74:	3c078001 	lui	a3,0x8001
80001a78:	8ce7e7bc 	lw	a3,-6212(a3)
80001a7c:	3c031b4e 	lui	v1,0x1b4e
80001a80:	346a81b5 	ori	t2,v1,0x81b5
80001a84:	00064902 	srl	t1,a2,0x4
80001a88:	00077700 	sll	t6,a3,0x1c
80001a8c:	012e7825 	or	t7,t1,t6
80001a90:	01ea0019 	multu	t7,t2
80001a94:	240b0007 	li	t3,7
80001a98:	3c01b82f 	lui	at,0xb82f
80001a9c:	ac2b3008 	sw	t3,12296(at)
80001aa0:	3c01b82f 	lui	at,0xb82f
80001aa4:	ac203008 	sw	zero,12296(at)
80001aa8:	3c03b82f 	lui	v1,0xb82f
80001aac:	8c63300c 	lw	v1,12300(v1)
80001ab0:	3c04b82f 	lui	a0,0xb82f
80001ab4:	8c843008 	lw	a0,12296(a0)
80001ab8:	3c03b82f 	lui	v1,0xb82f
80001abc:	8c633000 	lw	v1,12288(v1)
80001ac0:	3c04b82f 	lui	a0,0xb82f
80001ac4:	8c843004 	lw	a0,12292(a0)
80001ac8:	3c03b82f 	lui	v1,0xb82f
80001acc:	8c633014 	lw	v1,12308(v1)
80001ad0:	3c03b82f 	lui	v1,0xb82f
80001ad4:	8c633000 	lw	v1,12288(v1)
80001ad8:	3c03b82f 	lui	v1,0xb82f
80001adc:	8c633008 	lw	v1,12296(v1)
80001ae0:	3c04b82f 	lui	a0,0xb82f
80001ae4:	8c843018 	lw	a0,12312(a0)
80001ae8:	24040003 	li	a0,3
80001aec:	3c01b82f 	lui	at,0xb82f
80001af0:	ac24300c 	sw	a0,12300(at)
80001af4:	3c06b82f 	lui	a2,0xb82f
80001af8:	8cc6300c 	lw	a2,12300(a2)
80001afc:	2405ff80 	li	a1,-128
80001b00:	3c04b82f 	lui	a0,0xb82f
80001b04:	8c843008 	lw	a0,12296(a0)
80001b08:	00003810 	mfhi	a3
80001b0c:	3c04b82f 	lui	a0,0xb82f
80001b10:	8c843000 	lw	a0,12288(a0)
80001b14:	3c03b82f 	lui	v1,0xb82f
80001b18:	8c633004 	lw	v1,12292(v1)
80001b1c:	3c08b82f 	lui	t0,0xb82f
80001b20:	8d083014 	lw	t0,12308(t0)
80001b24:	3c03b82f 	lui	v1,0xb82f
80001b28:	8c633000 	lw	v1,12288(v1)
80001b2c:	3c0eb82f 	lui	t6,0xb82f
80001b30:	8dce3008 	lw	t6,12296(t6)
80001b34:	3c09b82f 	lui	t1,0xb82f
80001b38:	8d293018 	lw	t1,12312(t1)
80001b3c:	00075c82 	srl	t3,a3,0x12
80001b40:	00075282 	srl	t2,a3,0xa
80001b44:	00c5c825 	or	t9,a2,a1
80001b48:	3c078001 	lui	a3,0x8001
80001b4c:	24e7f742 	addiu	a3,a3,-2238
80001b50:	ae02000c 	sw	v0,12(s0)
80001b54:	3324007f 	andi	a0,t9,0x7f
80001b58:	24020081 	li	v0,129
80001b5c:	316c00ff 	andi	t4,t3,0xff
80001b60:	314d00ff 	andi	t5,t2,0xff
80001b64:	333800ff 	andi	t8,t9,0xff
80001b68:	2403ff81 	li	v1,-127
80001b6c:	3c01b82f 	lui	at,0xb82f
80001b70:	ac38300c 	sw	t8,12300(at)
80001b74:	3c01b82f 	lui	at,0xb82f
80001b78:	ac2c3004 	sw	t4,12292(at)
80001b7c:	a0e80003 	sb	t0,3(a3)
80001b80:	3c01b82f 	lui	at,0xb82f
80001b84:	ac2d3000 	sw	t5,12288(at)
80001b88:	a0eeffff 	sb	t6,-1(a3)
80001b8c:	a0e90004 	sb	t1,4(a3)
80001b90:	3c01b82f 	lui	at,0xb82f
80001b94:	ac203014 	sw	zero,12308(at)
80001b98:	3c01b82f 	lui	at,0xb82f
80001b9c:	ac24300c 	sw	a0,12300(at)
80001ba0:	a0ea0007 	sb	t2,7(a3)
80001ba4:	a0eb0006 	sb	t3,6(a3)
80001ba8:	a0e00008 	sb	zero,8(a3)
80001bac:	a0e40001 	sb	a0,1(a3)
80001bb0:	a0e30000 	sb	v1,0(a3)
80001bb4:	3c01b82f 	lui	at,0xb82f
80001bb8:	ac223008 	sw	v0,12296(at)
80001bbc:	0800068c 	j	80001a30 <UARTOpen+0x30>
80001bc0:	02001021 	move	v0,s0

80001bc4 <uart_init>:
80001bc4:	27bdffe8 	addiu	sp,sp,-24
80001bc8:	afb00010 	sw	s0,16(sp)
80001bcc:	3c058001 	lui	a1,0x8001
80001bd0:	24a5f740 	addiu	a1,a1,-2240
80001bd4:	00808021 	move	s0,a0
80001bd8:	24062580 	li	a2,9600
80001bdc:	afbf0014 	sw	ra,20(sp)
80001be0:	0c000680 	jal	80001a00 <UARTOpen>
80001be4:	00002021 	move	a0,zero
80001be8:	00402021 	move	a0,v0
80001bec:	10800007 	beqz	a0,80001c0c <uart_init+0x48>
80001bf0:	2402fffc 	li	v0,-4
80001bf4:	8e050068 	lw	a1,104(s0)
80001bf8:	24030001 	li	v1,1
80001bfc:	ae03001c 	sw	v1,28(s0)
80001c00:	ae040020 	sw	a0,32(s0)
80001c04:	ac850024 	sw	a1,36(a0)
80001c08:	00001021 	move	v0,zero
80001c0c:	8fbf0014 	lw	ra,20(sp)
80001c10:	8fb00010 	lw	s0,16(sp)
80001c14:	03e00008 	jr	ra
80001c18:	27bd0018 	addiu	sp,sp,24

80001c1c <uart_fini>:
80001c1c:	8c82001c 	lw	v0,28(a0)
80001c20:	24060001 	li	a2,1
80001c24:	10460003 	beq	v0,a2,80001c34 <uart_fini+0x18>
80001c28:	2405fffb 	li	a1,-5
80001c2c:	03e00008 	jr	ra
80001c30:	00a01021 	move	v0,a1
80001c34:	8c850020 	lw	a1,32(a0)
80001c38:	3c038001 	lui	v1,0x8001
80001c3c:	2463f740 	addiu	v1,v1,-2240
80001c40:	ac800020 	sw	zero,32(a0)
80001c44:	aca00004 	sw	zero,4(a1)
80001c48:	aca30008 	sw	v1,8(a1)
80001c4c:	ac80001c 	sw	zero,28(a0)
80001c50:	0800070b 	j	80001c2c <uart_fini+0x10>
80001c54:	00002821 	move	a1,zero

80001c58 <uart_read>:
80001c58:	8c870020 	lw	a3,32(a0)
80001c5c:	10c00016 	beqz	a2,80001cb8 <uart_read+0x60>
80001c60:	00002021 	move	a0,zero
80001c64:	3c08b82f 	lui	t0,0xb82f
80001c68:	8d083014 	lw	t0,12308(t0)
80001c6c:	31030001 	andi	v1,t0,0x1
80001c70:	1460000a 	bnez	v1,80001c9c <uart_read+0x44>
80001c74:	00000000 	nop
80001c78:	8ce90024 	lw	t1,36(a3)
80001c7c:	31230004 	andi	v1,t1,0x4
80001c80:	1460000d 	bnez	v1,80001cb8 <uart_read+0x60>
80001c84:	00000000 	nop
80001c88:	3c0bb82f 	lui	t3,0xb82f
80001c8c:	8d6b3014 	lw	t3,12308(t3)
80001c90:	316a0001 	andi	t2,t3,0x1
80001c94:	1140fffa 	beqz	t2,80001c80 <uart_read+0x28>
80001c98:	00000000 	nop
80001c9c:	3c02b82f 	lui	v0,0xb82f
80001ca0:	8c423000 	lw	v0,12288(v0)
80001ca4:	00a46021 	addu	t4,a1,a0
80001ca8:	24c6ffff 	addiu	a2,a2,-1
80001cac:	a1820000 	sb	v0,0(t4)
80001cb0:	14c0ffec 	bnez	a2,80001c64 <uart_read+0xc>
80001cb4:	24840001 	addiu	a0,a0,1
80001cb8:	03e00008 	jr	ra
80001cbc:	00801021 	move	v0,a0

80001cc0 <uart_write>:
80001cc0:	18c0000c 	blez	a2,80001cf4 <uart_write+0x34>
80001cc4:	00002021 	move	a0,zero
80001cc8:	3c08b82f 	lui	t0,0xb82f
80001ccc:	8d083014 	lw	t0,12308(t0)
80001cd0:	31070020 	andi	a3,t0,0x20
80001cd4:	10e0fffc 	beqz	a3,80001cc8 <uart_write+0x8>
80001cd8:	00a41821 	addu	v1,a1,a0
80001cdc:	80620000 	lb	v0,0(v1)
80001ce0:	24840001 	addiu	a0,a0,1
80001ce4:	0086382a 	slt	a3,a0,a2
80001ce8:	3c01b82f 	lui	at,0xb82f
80001cec:	14e0fff6 	bnez	a3,80001cc8 <uart_write+0x8>
80001cf0:	ac223000 	sw	v0,12288(at)
80001cf4:	3c04b82f 	lui	a0,0xb82f
80001cf8:	8c843014 	lw	a0,12308(a0)
80001cfc:	30830040 	andi	v1,a0,0x40
80001d00:	1060fffc 	beqz	v1,80001cf4 <uart_write+0x34>
80001d04:	00c01021 	move	v0,a2
80001d08:	03e00008 	jr	ra
80001d0c:	00000000 	nop

80001d10 <UARTClose>:
80001d10:	3c038001 	lui	v1,0x8001
80001d14:	2463f740 	addiu	v1,v1,-2240
80001d18:	ac830008 	sw	v1,8(a0)
80001d1c:	03e00008 	jr	ra
80001d20:	ac800004 	sw	zero,4(a0)

80001d24 <UARTRead>:
80001d24:	10a00016 	beqz	a1,80001d80 <UARTRead+0x5c>
80001d28:	00003821 	move	a3,zero
80001d2c:	3c08b82f 	lui	t0,0xb82f
80001d30:	8d083014 	lw	t0,12308(t0)
80001d34:	31030001 	andi	v1,t0,0x1
80001d38:	1460000a 	bnez	v1,80001d64 <UARTRead+0x40>
80001d3c:	00000000 	nop
80001d40:	8c890024 	lw	t1,36(a0)
80001d44:	31230004 	andi	v1,t1,0x4
80001d48:	1460000d 	bnez	v1,80001d80 <UARTRead+0x5c>
80001d4c:	00000000 	nop
80001d50:	3c0bb82f 	lui	t3,0xb82f
80001d54:	8d6b3014 	lw	t3,12308(t3)
80001d58:	316a0001 	andi	t2,t3,0x1
80001d5c:	1140fffa 	beqz	t2,80001d48 <UARTRead+0x24>
80001d60:	00000000 	nop
80001d64:	3c02b82f 	lui	v0,0xb82f
80001d68:	8c423000 	lw	v0,12288(v0)
80001d6c:	00c76021 	addu	t4,a2,a3
80001d70:	24a5ffff 	addiu	a1,a1,-1
80001d74:	a1820000 	sb	v0,0(t4)
80001d78:	14a0ffec 	bnez	a1,80001d2c <UARTRead+0x8>
80001d7c:	24e70001 	addiu	a3,a3,1
80001d80:	03e00008 	jr	ra
80001d84:	00e01021 	move	v0,a3

80001d88 <UARTWrite>:
80001d88:	18a0000c 	blez	a1,80001dbc <UARTWrite+0x34>
80001d8c:	00002021 	move	a0,zero
80001d90:	3c08b82f 	lui	t0,0xb82f
80001d94:	8d083014 	lw	t0,12308(t0)
80001d98:	31070020 	andi	a3,t0,0x20
80001d9c:	10e0fffc 	beqz	a3,80001d90 <UARTWrite+0x8>
80001da0:	00c41821 	addu	v1,a2,a0
80001da4:	80620000 	lb	v0,0(v1)
80001da8:	24840001 	addiu	a0,a0,1
80001dac:	0085382a 	slt	a3,a0,a1
80001db0:	3c01b82f 	lui	at,0xb82f
80001db4:	14e0fff6 	bnez	a3,80001d90 <UARTWrite+0x8>
80001db8:	ac223000 	sw	v0,12288(at)
80001dbc:	3c04b82f 	lui	a0,0xb82f
80001dc0:	8c843014 	lw	a0,12308(a0)
80001dc4:	30830040 	andi	v1,a0,0x40
80001dc8:	1060fffc 	beqz	v1,80001dbc <UARTWrite+0x34>
80001dcc:	00a01021 	move	v0,a1
80001dd0:	03e00008 	jr	ra
80001dd4:	00000000 	nop
	...

80001de0 <SportOpen>:
80001de0:	27bdffc0 	addiu	sp,sp,-64
80001de4:	afbf003c 	sw	ra,60(sp)
80001de8:	afbe0038 	sw	s8,56(sp)
80001dec:	afb70034 	sw	s7,52(sp)
80001df0:	afb60030 	sw	s6,48(sp)
80001df4:	afb5002c 	sw	s5,44(sp)
80001df8:	afb40028 	sw	s4,40(sp)
80001dfc:	afb30024 	sw	s3,36(sp)
80001e00:	afb20020 	sw	s2,32(sp)
80001e04:	afb1001c 	sw	s1,28(sp)
80001e08:	1480005b 	bnez	a0,80001f78 <SportOpen+0x198>
80001e0c:	afb00018 	sw	s0,24(sp)
80001e10:	3c02b82f 	lui	v0,0xb82f
80001e14:	34445000 	ori	a0,v0,0x5000
80001e18:	3c108001 	lui	s0,0x8001
80001e1c:	2610e858 	addiu	s0,s0,-6056
80001e20:	24061000 	li	a2,4096
80001e24:	ae060010 	sw	a2,16(s0)
80001e28:	ae00000c 	sw	zero,12(s0)
80001e2c:	ae000014 	sw	zero,20(s0)
80001e30:	ae00001c 	sw	zero,28(s0)
80001e34:	ae000018 	sw	zero,24(s0)
80001e38:	54a00001 	bnezl	a1,80001e40 <SportOpen+0x60>
80001e3c:	ae050008 	sw	a1,8(s0)
80001e40:	8e070004 	lw	a3,4(s0)
80001e44:	14e00030 	bnez	a3,80001f08 <SportOpen+0x128>
80001e48:	00003021 	move	a2,zero
80001e4c:	3c0cb82f 	lui	t4,0xb82f
80001e50:	240d0001 	li	t5,1
80001e54:	ae0d0004 	sw	t5,4(s0)
80001e58:	35884000 	ori	t0,t4,0x4000
80001e5c:	8d0a0000 	lw	t2,0(t0)
80001e60:	248b0020 	addiu	t3,a0,32
80001e64:	afab0010 	sw	t3,16(sp)
80001e68:	3549000f 	ori	t1,t2,0xf
80001e6c:	24970004 	addiu	s7,a0,4
80001e70:	ad090000 	sw	t1,0(t0)
80001e74:	24920008 	addiu	s2,a0,8
80001e78:	2493000c 	addiu	s3,a0,12
80001e7c:	24910010 	addiu	s1,a0,16
80001e80:	24940014 	addiu	s4,a0,20
80001e84:	24950018 	addiu	s5,a0,24
80001e88:	24960024 	addiu	s6,a0,36
80001e8c:	249e001c 	addiu	s8,a0,28
80001e90:	00003021 	move	a2,zero
80001e94:	10a00029 	beqz	a1,80001f3c <SportOpen+0x15c>
80001e98:	00003821 	move	a3,zero
80001e9c:	8e040010 	lw	a0,16(s0)
80001ea0:	0c0001b8 	jal	800006e0 <malloc>
80001ea4:	00000000 	nop
80001ea8:	8e070008 	lw	a3,8(s0)
80001eac:	ae02000c 	sw	v0,12(s0)
80001eb0:	02003021 	move	a2,s0
80001eb4:	8ce5000c 	lw	a1,12(a3)
80001eb8:	ae250000 	sw	a1,0(s1)
80001ebc:	8ced0008 	lw	t5,8(a3)
80001ec0:	ae6d0000 	sw	t5,0(s3)
80001ec4:	8cec0010 	lw	t4,16(a3)
80001ec8:	8fb30010 	lw	s3,16(sp)
80001ecc:	ae8c0000 	sw	t4,0(s4)
80001ed0:	8ce20014 	lw	v0,20(a3)
80001ed4:	aea20000 	sw	v0,0(s5)
80001ed8:	8ceb0018 	lw	t3,24(a3)
80001edc:	aecb0000 	sw	t3,0(s6)
80001ee0:	8cf5001c 	lw	s5,28(a3)
80001ee4:	afd50000 	sw	s5,0(s8)
80001ee8:	8cf40020 	lw	s4,32(a3)
80001eec:	ae740000 	sw	s4,0(s3)
80001ef0:	ae400000 	sw	zero,0(s2)
80001ef4:	8cf10004 	lw	s1,4(a3)
80001ef8:	ae510000 	sw	s1,0(s2)
80001efc:	aee00000 	sw	zero,0(s7)
80001f00:	8cf00000 	lw	s0,0(a3)
80001f04:	aef00000 	sw	s0,0(s7)
80001f08:	8fbf003c 	lw	ra,60(sp)
80001f0c:	8fbe0038 	lw	s8,56(sp)
80001f10:	8fb70034 	lw	s7,52(sp)
80001f14:	8fb60030 	lw	s6,48(sp)
80001f18:	8fb5002c 	lw	s5,44(sp)
80001f1c:	8fb40028 	lw	s4,40(sp)
80001f20:	8fb30024 	lw	s3,36(sp)
80001f24:	8fb20020 	lw	s2,32(sp)
80001f28:	8fb1001c 	lw	s1,28(sp)
80001f2c:	8fb00018 	lw	s0,24(sp)
80001f30:	00c01021 	move	v0,a2
80001f34:	03e00008 	jr	ra
80001f38:	27bd0040 	addiu	sp,sp,64
80001f3c:	8e040008 	lw	a0,8(s0)
80001f40:	240345f1 	li	v1,17905
80001f44:	240e01f1 	li	t6,497
80001f48:	8c8a0000 	lw	t2,0(a0)
80001f4c:	8c990004 	lw	t9,4(a0)
80001f50:	31490001 	andi	t1,t2,0x1
80001f54:	39280000 	xori	t0,t1,0x0
80001f58:	0068300b 	movn	a2,v1,t0
80001f5c:	ac860000 	sw	a2,0(a0)
80001f60:	33380001 	andi	t8,t9,0x1
80001f64:	8e050008 	lw	a1,8(s0)
80001f68:	3b0f0000 	xori	t7,t8,0x0
80001f6c:	01cf380b 	movn	a3,t6,t7
80001f70:	080007a7 	j	80001e9c <SportOpen+0xbc>
80001f74:	aca70004 	sw	a3,4(a1)
80001f78:	24030001 	li	v1,1
80001f7c:	1483ffe2 	bne	a0,v1,80001f08 <SportOpen+0x128>
80001f80:	00003021 	move	a2,zero
80001f84:	3c02b82f 	lui	v0,0xb82f
80001f88:	3c108001 	lui	s0,0x8001
80001f8c:	2610e87c 	addiu	s0,s0,-6020
80001f90:	08000788 	j	80001e20 <SportOpen+0x40>
80001f94:	34446000 	ori	a0,v0,0x6000

80001f98 <SportClose>:
80001f98:	27bdffe8 	addiu	sp,sp,-24
80001f9c:	afb00010 	sw	s0,16(sp)
80001fa0:	afbf0014 	sw	ra,20(sp)
80001fa4:	10800014 	beqz	a0,80001ff8 <SportClose+0x60>
80001fa8:	00808021 	move	s0,a0
80001fac:	8c840000 	lw	a0,0(a0)
80001fb0:	3c02b82f 	lui	v0,0xb82f
80001fb4:	34435000 	ori	v1,v0,0x5000
80001fb8:	14800013 	bnez	a0,80002008 <SportClose+0x70>
80001fbc:	ae000004 	sw	zero,4(s0)
80001fc0:	3c048001 	lui	a0,0x8001
80001fc4:	2484e810 	addiu	a0,a0,-6128
80001fc8:	3c018001 	lui	at,0x8001
80001fcc:	ac24e860 	sw	a0,-6048(at)
80001fd0:	8e04000c 	lw	a0,12(s0)
80001fd4:	ac600008 	sw	zero,8(v1)
80001fd8:	ac600008 	sw	zero,8(v1)
80001fdc:	ac600004 	sw	zero,4(v1)
80001fe0:	0c0001c2 	jal	80000708 <free>
80001fe4:	ac600004 	sw	zero,4(v1)
80001fe8:	ae000014 	sw	zero,20(s0)
80001fec:	ae00000c 	sw	zero,12(s0)
80001ff0:	ae00001c 	sw	zero,28(s0)
80001ff4:	ae000018 	sw	zero,24(s0)
80001ff8:	8fbf0014 	lw	ra,20(sp)
80001ffc:	8fb00010 	lw	s0,16(sp)
80002000:	03e00008 	jr	ra
80002004:	27bd0018 	addiu	sp,sp,24
80002008:	3c038001 	lui	v1,0x8001
8000200c:	2463e834 	addiu	v1,v1,-6092
80002010:	3c05b82f 	lui	a1,0xb82f
80002014:	3c018001 	lui	at,0x8001
80002018:	ac23e884 	sw	v1,-6012(at)
8000201c:	080007f4 	j	80001fd0 <SportClose+0x38>
80002020:	34a36000 	ori	v1,a1,0x6000

80002024 <SportRead>:
80002024:	8c830008 	lw	v1,8(a0)
80002028:	00001021 	move	v0,zero
8000202c:	8c680004 	lw	t0,4(v1)
80002030:	00083902 	srl	a3,t0,0x4
80002034:	30e3001f 	andi	v1,a3,0x1f
80002038:	1080002b 	beqz	a0,800020e8 <SportRead+0xc4>
8000203c:	00a03821 	move	a3,a1
80002040:	8c890000 	lw	t1,0(a0)
80002044:	1520002a 	bnez	t1,800020f0 <SportRead+0xcc>
80002048:	3c0bb82f 	lui	t3,0xb82f
8000204c:	3c04b82f 	lui	a0,0xb82f
80002050:	3c02b82f 	lui	v0,0xb82f
80002054:	348e5000 	ori	t6,a0,0x5000
80002058:	34495008 	ori	t1,v0,0x5008
8000205c:	10a00022 	beqz	a1,800020e8 <SportRead+0xc4>
80002060:	00a01021 	move	v0,a1
80002064:	286d0018 	slti	t5,v1,24
80002068:	286c0008 	slti	t4,v1,8
8000206c:	286b0010 	slti	t3,v1,16
80002070:	3c0a6000 	lui	t2,0x6000
80002074:	3c1800ff 	lui	t8,0xff
80002078:	3c0fff00 	lui	t7,0xff00
8000207c:	8d230000 	lw	v1,0(t1)
80002080:	006a4024 	and	t0,v1,t2
80002084:	0008cf82 	srl	t9,t0,0x1e
80002088:	1320fffc 	beqz	t9,8000207c <SportRead+0x58>
8000208c:	00000000 	nop
80002090:	8dd90000 	lw	t9,0(t6)
80002094:	24e7ffff 	addiu	a3,a3,-1
80002098:	03382024 	and	a0,t9,t8
8000209c:	032f1024 	and	v0,t9,t7
800020a0:	00041c02 	srl	v1,a0,0x10
800020a4:	00194202 	srl	t0,t9,0x8
800020a8:	00022602 	srl	a0,v0,0x18
800020ac:	15800003 	bnez	t4,800020bc <SportRead+0x98>
800020b0:	a0d90000 	sb	t9,0(a2)
800020b4:	a0c80001 	sb	t0,1(a2)
800020b8:	24e7ffff 	addiu	a3,a3,-1
800020bc:	15600003 	bnez	t3,800020cc <SportRead+0xa8>
800020c0:	00000000 	nop
800020c4:	a0c30002 	sb	v1,2(a2)
800020c8:	24e7ffff 	addiu	a3,a3,-1
800020cc:	15a00003 	bnez	t5,800020dc <SportRead+0xb8>
800020d0:	00000000 	nop
800020d4:	a0c40003 	sb	a0,3(a2)
800020d8:	24e7ffff 	addiu	a3,a3,-1
800020dc:	14e0ffe7 	bnez	a3,8000207c <SportRead+0x58>
800020e0:	24c60004 	addiu	a2,a2,4
800020e4:	00a01021 	move	v0,a1
800020e8:	03e00008 	jr	ra
800020ec:	00000000 	nop
800020f0:	3c0ab82f 	lui	t2,0xb82f
800020f4:	356e6000 	ori	t6,t3,0x6000
800020f8:	08000817 	j	8000205c <SportRead+0x38>
800020fc:	35496008 	ori	t1,t2,0x6008

80002100 <SportWrite>:
80002100:	8c830008 	lw	v1,8(a0)
80002104:	00a03821 	move	a3,a1
80002108:	8c680000 	lw	t0,0(v1)
8000210c:	00081102 	srl	v0,t0,0x4
80002110:	10800029 	beqz	a0,800021b8 <SportWrite+0xb8>
80002114:	3043001f 	andi	v1,v0,0x1f
80002118:	8c890000 	lw	t1,0(a0)
8000211c:	15200028 	bnez	t1,800021c0 <SportWrite+0xc0>
80002120:	3c0bb82f 	lui	t3,0xb82f
80002124:	3c04b82f 	lui	a0,0xb82f
80002128:	3c02b82f 	lui	v0,0xb82f
8000212c:	348c5000 	ori	t4,a0,0x5000
80002130:	34485008 	ori	t0,v0,0x5008
80002134:	10a00020 	beqz	a1,800021b8 <SportWrite+0xb8>
80002138:	00000000 	nop
8000213c:	286b0018 	slti	t3,v1,24
80002140:	286a0008 	slti	t2,v1,8
80002144:	3c096000 	lui	t1,0x6000
80002148:	28630010 	slti	v1,v1,16
8000214c:	8d0f0000 	lw	t7,0(t0)
80002150:	01e97024 	and	t6,t7,t1
80002154:	000e6f82 	srl	t5,t6,0x1e
80002158:	15a0fffc 	bnez	t5,8000214c <SportWrite+0x4c>
8000215c:	00000000 	nop
80002160:	90c40000 	lbu	a0,0(a2)
80002164:	15400005 	bnez	t2,8000217c <SportWrite+0x7c>
80002168:	24e7ffff 	addiu	a3,a3,-1
8000216c:	90d90001 	lbu	t9,1(a2)
80002170:	24e7ffff 	addiu	a3,a3,-1
80002174:	0019c200 	sll	t8,t9,0x8
80002178:	00982025 	or	a0,a0,t8
8000217c:	14600005 	bnez	v1,80002194 <SportWrite+0x94>
80002180:	00000000 	nop
80002184:	90ce0002 	lbu	t6,2(a2)
80002188:	24e7ffff 	addiu	a3,a3,-1
8000218c:	000e6c00 	sll	t5,t6,0x10
80002190:	008d2025 	or	a0,a0,t5
80002194:	15600005 	bnez	t3,800021ac <SportWrite+0xac>
80002198:	00000000 	nop
8000219c:	90d80003 	lbu	t8,3(a2)
800021a0:	24e7ffff 	addiu	a3,a3,-1
800021a4:	00187e00 	sll	t7,t8,0x18
800021a8:	008f2025 	or	a0,a0,t7
800021ac:	ad840000 	sw	a0,0(t4)
800021b0:	14e0ffe6 	bnez	a3,8000214c <SportWrite+0x4c>
800021b4:	24c60004 	addiu	a2,a2,4
800021b8:	03e00008 	jr	ra
800021bc:	00a01021 	move	v0,a1
800021c0:	3c0ab82f 	lui	t2,0xb82f
800021c4:	356c6000 	ori	t4,t3,0x6000
800021c8:	0800084d 	j	80002134 <SportWrite+0x34>
800021cc:	35486008 	ori	t0,t2,0x6008

800021d0 <timer_interrupt>:
800021d0:	27bdffe8 	addiu	sp,sp,-24
800021d4:	afbf0010 	sw	ra,16(sp)
800021d8:	0c00089c 	jal	80002270 <rtc_interrupt>
800021dc:	00000000 	nop
800021e0:	8fbf0010 	lw	ra,16(sp)
800021e4:	00001021 	move	v0,zero
800021e8:	03e00008 	jr	ra
800021ec:	27bd0018 	addiu	sp,sp,24

800021f0 <setup_rtc_timer>:
800021f0:	3c068001 	lui	a2,0x8001
800021f4:	8cc6e7c0 	lw	a2,-6208(a2)
800021f8:	8c880004 	lw	t0,4(a0)
800021fc:	3c02431b 	lui	v0,0x431b
80002200:	344ede83 	ori	t6,v0,0xde83
80002204:	71067802 	mul	t7,t0,a2
80002208:	8c8c0000 	lw	t4,0(a0)
8000220c:	24cdffff 	addiu	t5,a2,-1
80002210:	3c04b82f 	lui	a0,0xb82f
80002214:	3c18b82f 	lui	t8,0xb82f
80002218:	3488d020 	ori	t0,a0,0xd020
8000221c:	3709d024 	ori	t1,t8,0xd024
80002220:	24030001 	li	v1,1
80002224:	01ee0019 	multu	t7,t6
80002228:	00002810 	mfhi	a1
8000222c:	00055482 	srl	t2,a1,0x12
80002230:	00000000 	nop
80002234:	71ac5802 	mul	t3,t5,t4
80002238:	016a3821 	addu	a3,t3,t2
8000223c:	ad270000 	sw	a3,0(t1)
80002240:	03e00008 	jr	ra
80002244:	ad030000 	sw	v1,0(t0)

80002248 <enable_rtc_timer>:
80002248:	3c02dfff 	lui	v0,0xdfff
8000224c:	14800006 	bnez	a0,80002268 <enable_rtc_timer+0x20>
80002250:	3443ffff 	ori	v1,v0,0xffff
80002254:	3c05b82f 	lui	a1,0xb82f
80002258:	8ca54000 	lw	a1,16384(a1)
8000225c:	00a32024 	and	a0,a1,v1
80002260:	3c01b82f 	lui	at,0xb82f
80002264:	ac244000 	sw	a0,16384(at)
80002268:	03e00008 	jr	ra
8000226c:	00000000 	nop

80002270 <rtc_interrupt>:
80002270:	3c04b82f 	lui	a0,0xb82f
80002274:	3483d020 	ori	v1,a0,0xd020
80002278:	8c650000 	lw	a1,0(v1)
8000227c:	30a20002 	andi	v0,a1,0x2
80002280:	1040001a 	beqz	v0,800022ec <rtc_interrupt+0x7c>
80002284:	00002021 	move	a0,zero
80002288:	3c02b830 	lui	v0,0xb830
8000228c:	8c42d020 	lw	v0,-12256(v0)
80002290:	2409fffd 	li	t1,-3
80002294:	00493824 	and	a3,v0,t1
80002298:	3c028001 	lui	v0,0x8001
8000229c:	8c42e7c8 	lw	v0,-6200(v0)
800022a0:	3c038001 	lui	v1,0x8001
800022a4:	8c63e7cc 	lw	v1,-6196(v1)
800022a8:	3c01b830 	lui	at,0xb830
800022ac:	ac27d020 	sw	a3,-12256(at)
800022b0:	24420001 	addiu	v0,v0,1
800022b4:	2c480001 	sltiu	t0,v0,1
800022b8:	00681821 	addu	v1,v1,t0
800022bc:	3c018001 	lui	at,0x8001
800022c0:	ac22e7c8 	sw	v0,-6200(at)
800022c4:	3c018001 	lui	at,0x8001
800022c8:	ac23e7cc 	sw	v1,-6196(at)
800022cc:	40064800 	mfc0	a2,$9
800022d0:	00c01021 	move	v0,a2
800022d4:	00001821 	move	v1,zero
800022d8:	24040001 	li	a0,1
800022dc:	3c018001 	lui	at,0x8001
800022e0:	ac22e7d0 	sw	v0,-6192(at)
800022e4:	3c018001 	lui	at,0x8001
800022e8:	ac23e7d4 	sw	v1,-6188(at)
800022ec:	03e00008 	jr	ra
800022f0:	00801021 	move	v0,a0

800022f4 <add_rtc_interrupt>:
800022f4:	03e00008 	jr	ra
800022f8:	00001021 	move	v0,zero
800022fc:	00000000 	nop

80002300 <atoi>:
80002300:	27bdffe8 	addiu	sp,sp,-24
80002304:	00002821 	move	a1,zero
80002308:	afbf0010 	sw	ra,16(sp)
8000230c:	0c000dfd 	jal	800037f4 <strtol>
80002310:	2406000a 	li	a2,10
80002314:	8fbf0010 	lw	ra,16(sp)
80002318:	03e00008 	jr	ra
8000231c:	27bd0018 	addiu	sp,sp,24

80002320 <_atoi_r>:
80002320:	27bdffe8 	addiu	sp,sp,-24
80002324:	00003021 	move	a2,zero
80002328:	afbf0010 	sw	ra,16(sp)
8000232c:	0c000d94 	jal	80003650 <_strtol_r>
80002330:	2407000a 	li	a3,10
80002334:	8fbf0010 	lw	ra,16(sp)
80002338:	03e00008 	jr	ra
8000233c:	27bd0018 	addiu	sp,sp,24

80002340 <memset>:
80002340:	2cc70010 	sltiu	a3,a2,16
80002344:	14e00024 	bnez	a3,800023d8 <memset+0x98>
80002348:	00801821 	move	v1,a0
8000234c:	30870003 	andi	a3,a0,0x3
80002350:	50e0000b 	beqzl	a3,80002380 <memset+0x40>
80002354:	30a500ff 	andi	a1,a1,0xff
80002358:	2ce80004 	sltiu	t0,a3,4
8000235c:	11000007 	beqz	t0,8000237c <memset+0x3c>
80002360:	24e70001 	addiu	a3,a3,1
80002364:	2cea0004 	sltiu	t2,a3,4
80002368:	a0650000 	sb	a1,0(v1)
8000236c:	24c6ffff 	addiu	a2,a2,-1
80002370:	24630001 	addiu	v1,v1,1
80002374:	1540fffb 	bnez	t2,80002364 <memset+0x24>
80002378:	24e70001 	addiu	a3,a3,1
8000237c:	30a500ff 	andi	a1,a1,0xff
80002380:	00603821 	move	a3,v1
80002384:	10a00005 	beqz	a1,8000239c <memset+0x5c>
80002388:	00a04021 	move	t0,a1
8000238c:	00051a00 	sll	v1,a1,0x8
80002390:	00a36025 	or	t4,a1,v1
80002394:	000c1400 	sll	v0,t4,0x10
80002398:	01824025 	or	t0,t4,v0
8000239c:	000610c2 	srl	v0,a2,0x3
800023a0:	10400006 	beqz	v0,800023bc <memset+0x7c>
800023a4:	30c60007 	andi	a2,a2,0x7
800023a8:	2442ffff 	addiu	v0,v0,-1
800023ac:	ace80000 	sw	t0,0(a3)
800023b0:	ace80004 	sw	t0,4(a3)
800023b4:	1440fffc 	bnez	v0,800023a8 <memset+0x68>
800023b8:	24e70008 	addiu	a3,a3,8
800023bc:	2ccd0004 	sltiu	t5,a2,4
800023c0:	15a00005 	bnez	t5,800023d8 <memset+0x98>
800023c4:	00e01821 	move	v1,a3
800023c8:	ace80000 	sw	t0,0(a3)
800023cc:	24c6fffc 	addiu	a2,a2,-4
800023d0:	24e70004 	addiu	a3,a3,4
800023d4:	00e01821 	move	v1,a3
800023d8:	10c00005 	beqz	a2,800023f0 <memset+0xb0>
800023dc:	00000000 	nop
800023e0:	24c6ffff 	addiu	a2,a2,-1
800023e4:	a0650000 	sb	a1,0(v1)
800023e8:	14c0fffd 	bnez	a2,800023e0 <memset+0xa0>
800023ec:	24630001 	addiu	v1,v1,1
800023f0:	03e00008 	jr	ra
800023f4:	00801021 	move	v0,a0
	...

80002400 <mktime>:
80002400:	27bdffd8 	addiu	sp,sp,-40
80002404:	afb20018 	sw	s2,24(sp)
80002408:	afb40020 	sw	s4,32(sp)
8000240c:	afb3001c 	sw	s3,28(sp)
80002410:	afb10014 	sw	s1,20(sp)
80002414:	afb00010 	sw	s0,16(sp)
80002418:	afbf0024 	sw	ra,36(sp)
8000241c:	0c000a22 	jal	80002888 <validate_structure>
80002420:	00809021 	move	s2,a0
80002424:	8e500008 	lw	s0,8(s2)
80002428:	8e4a0010 	lw	t2,16(s2)
8000242c:	8e530004 	lw	s3,4(s2)
80002430:	3c048001 	lui	a0,0x8001
80002434:	001010c0 	sll	v0,s0,0x3
80002438:	2499ea60 	addiu	t9,a0,-5536
8000243c:	0050a023 	subu	s4,v0,s0
80002440:	000ac080 	sll	t8,t2,0x2
80002444:	00138900 	sll	s1,s3,0x4
80002448:	03197021 	addu	t6,t8,t9
8000244c:	00147940 	sll	t7,s4,0x5
80002450:	8e46000c 	lw	a2,12(s2)
80002454:	02336823 	subu	t5,s1,s3
80002458:	01f06021 	addu	t4,t7,s0
8000245c:	8dc90000 	lw	t1,0(t6)
80002460:	8e470000 	lw	a3,0(s2)
80002464:	000d4080 	sll	t0,t5,0x2
80002468:	000c5900 	sll	t3,t4,0x4
8000246c:	010b2821 	addu	a1,t0,t3
80002470:	24c4ffff 	addiu	a0,a2,-1
80002474:	29430002 	slti	v1,t2,2
80002478:	00a79821 	addu	s3,a1,a3
8000247c:	14600100 	bnez	v1,80002880 <mktime+0x480>
80002480:	00894021 	addu	t0,a0,t1
80002484:	8e490014 	lw	t1,20(s2)
80002488:	31230003 	andi	v1,t1,0x3
8000248c:	5460001e 	bnezl	v1,80002508 <mktime+0x108>
80002490:	25232710 	addiu	v1,t1,10000
80002494:	3c1151eb 	lui	s1,0x51eb
80002498:	3626851f 	ori	a2,s1,0x851f
8000249c:	01260018 	mult	t1,a2
800024a0:	00097fc3 	sra	t7,t1,0x1f
800024a4:	00008010 	mfhi	s0
800024a8:	00107143 	sra	t6,s0,0x5
800024ac:	01cf5823 	subu	t3,t6,t7
800024b0:	000b6840 	sll	t5,t3,0x1
800024b4:	01ab6021 	addu	t4,t5,t3
800024b8:	000c50c0 	sll	t2,t4,0x3
800024bc:	014b2821 	addu	a1,t2,t3
800024c0:	00053880 	sll	a3,a1,0x2
800024c4:	5527000f 	bnel	t1,a3,80002504 <mktime+0x104>
800024c8:	25080001 	addiu	t0,t0,1
800024cc:	2534076c 	addiu	s4,t1,1900
800024d0:	02860018 	mult	s4,a2
800024d4:	001457c3 	sra	t2,s4,0x1f
800024d8:	00005810 	mfhi	t3
800024dc:	000b11c3 	sra	v0,t3,0x7
800024e0:	004a3823 	subu	a3,v0,t2
800024e4:	00072840 	sll	a1,a3,0x1
800024e8:	00a72021 	addu	a0,a1,a3
800024ec:	0004c8c0 	sll	t9,a0,0x3
800024f0:	0327c021 	addu	t8,t9,a3
800024f4:	00183100 	sll	a2,t8,0x4
800024f8:	56860003 	bnel	s4,a2,80002508 <mktime+0x108>
800024fc:	25232710 	addiu	v1,t1,10000
80002500:	25080001 	addiu	t0,t0,1
80002504:	25232710 	addiu	v1,t1,10000
80002508:	2c6c4e21 	sltiu	t4,v1,20001
8000250c:	ae48001c 	sw	t0,28(s2)
80002510:	1180006f 	beqz	t4,800026d0 <mktime+0x2d0>
80002514:	2403ffff 	li	v1,-1
80002518:	292d0047 	slti	t5,t1,71
8000251c:	15a00090 	bnez	t5,80002760 <mktime+0x360>
80002520:	29250046 	slti	a1,t1,70
80002524:	24050046 	li	a1,70
80002528:	00a9702a 	slt	t6,a1,t1
8000252c:	11c00023 	beqz	t6,800025bc <mktime+0x1bc>
80002530:	3c0b9249 	lui	t3,0x9249
80002534:	3c1051eb 	lui	s0,0x51eb
80002538:	30af0003 	andi	t7,a1,0x3
8000253c:	3606851f 	ori	a2,s0,0x851f
80002540:	15e00085 	bnez	t7,80002758 <mktime+0x358>
80002544:	000527c3 	sra	a0,a1,0x1f
80002548:	00a60018 	mult	a1,a2
8000254c:	24a7076c 	addiu	a3,a1,1900
80002550:	00006010 	mfhi	t4
80002554:	000c1143 	sra	v0,t4,0x5
80002558:	0044c823 	subu	t9,v0,a0
8000255c:	00195840 	sll	t3,t9,0x1
80002560:	01792021 	addu	a0,t3,t9
80002564:	0004c0c0 	sll	t8,a0,0x3
80002568:	0319a021 	addu	s4,t8,t9
8000256c:	00148880 	sll	s1,s4,0x2
80002570:	14b1000c 	bne	a1,s1,800025a4 <mktime+0x1a4>
80002574:	000757c3 	sra	t2,a3,0x1f
80002578:	00e60018 	mult	a3,a2
8000257c:	0000a010 	mfhi	s4
80002580:	001489c3 	sra	s1,s4,0x7
80002584:	022a7023 	subu	t6,s1,t2
80002588:	000e8040 	sll	s0,t6,0x1
8000258c:	020e7821 	addu	t7,s0,t6
80002590:	000f68c0 	sll	t5,t7,0x3
80002594:	01ae5021 	addu	t2,t5,t6
80002598:	000a3100 	sll	a2,t2,0x4
8000259c:	54e60002 	bnel	a3,a2,800025a8 <mktime+0x1a8>
800025a0:	2508016d 	addiu	t0,t0,365
800025a4:	2508016e 	addiu	t0,t0,366
800025a8:	24a50001 	addiu	a1,a1,1
800025ac:	00a9382a 	slt	a3,a1,t1
800025b0:	14e0ffe1 	bnez	a3,80002538 <mktime+0x138>
800025b4:	3c1051eb 	lui	s0,0x51eb
800025b8:	3c0b9249 	lui	t3,0x9249
800025bc:	250a0004 	addiu	t2,t0,4
800025c0:	35642493 	ori	a0,t3,0x2493
800025c4:	01440018 	mult	t2,a0
800025c8:	000ac7c3 	sra	t8,t2,0x1f
800025cc:	0000c810 	mfhi	t9
800025d0:	032a3021 	addu	a2,t9,t2
800025d4:	0006a083 	sra	s4,a2,0x2
800025d8:	02981823 	subu	v1,s4,t8
800025dc:	000388c0 	sll	s1,v1,0x3
800025e0:	02232823 	subu	a1,s1,v1
800025e4:	01451023 	subu	v0,t2,a1
800025e8:	04400058 	bltz	v0,8000274c <mktime+0x34c>
800025ec:	ae420018 	sw	v0,24(s2)
800025f0:	00085040 	sll	t2,t0,0x1
800025f4:	01482821 	addu	a1,t2,t0
800025f8:	00058100 	sll	s0,a1,0x4
800025fc:	02057823 	subu	t7,s0,a1
80002600:	3c028001 	lui	v0,0x8001
80002604:	000f7100 	sll	t6,t7,0x4
80002608:	8c48e8ac 	lw	t0,-5972(v0)
8000260c:	01cf6823 	subu	t5,t6,t7
80002610:	000d61c0 	sll	t4,t5,0x7
80002614:	026c9821 	addu	s3,s3,t4
80002618:	1100004a 	beqz	t0,80002744 <mktime+0x344>
8000261c:	8e510020 	lw	s1,32(s2)
80002620:	3c038001 	lui	v1,0x8001
80002624:	8c74e8b4 	lw	s4,-5964(v1)
80002628:	2524076c 	addiu	a0,t1,1900
8000262c:	10940005 	beq	a0,s4,80002644 <mktime+0x244>
80002630:	3c148001 	lui	s4,0x8001
80002634:	0c000cc6 	jal	80003318 <__tzcalc_limits>
80002638:	00000000 	nop
8000263c:	1040001e 	beqz	v0,800026b8 <mktime+0x2b8>
80002640:	24190001 	li	t9,1
80002644:	268be8bc 	addiu	t3,s4,-5956
80002648:	8d640018 	lw	a0,24(t3)
8000264c:	8d690030 	lw	t1,48(t3)
80002650:	8d780034 	lw	t8,52(t3)
80002654:	8d660014 	lw	a2,20(t3)
80002658:	0124c823 	subu	t9,t1,a0
8000265c:	0279382a 	slt	a3,s3,t9
80002660:	00d82023 	subu	a0,a2,t8
80002664:	14e00004 	bnez	a3,80002678 <mktime+0x278>
80002668:	01383023 	subu	a2,t1,t8
8000266c:	0266402a 	slt	t0,s3,a2
80002670:	15000011 	bnez	t0,800026b8 <mktime+0x2b8>
80002674:	24190001 	li	t9,1
80002678:	3c0c8001 	lui	t4,0x8001
8000267c:	8d91e8b8 	lw	s1,-5960(t4)
80002680:	1220002c 	beqz	s1,80002734 <mktime+0x334>
80002684:	0264702a 	slt	t6,s3,a0
80002688:	0264682a 	slt	t5,s3,a0
8000268c:	15a00004 	bnez	t5,800026a0 <mktime+0x2a0>
80002690:	00008821 	move	s1,zero
80002694:	50e00003 	beqzl	a3,800026a4 <mktime+0x2a4>
80002698:	8e500020 	lw	s0,32(s2)
8000269c:	24110001 	li	s1,1
800026a0:	8e500020 	lw	s0,32(s2)
800026a4:	24070001 	li	a3,1
800026a8:	02307826 	xor	t7,s1,s0
800026ac:	11e70014 	beq	t7,a3,80002700 <mktime+0x300>
800026b0:	3c068001 	lui	a2,0x8001
800026b4:	24190001 	li	t9,1
800026b8:	1239000e 	beq	s1,t9,800026f4 <mktime+0x2f4>
800026bc:	268be8bc 	addiu	t3,s4,-5956
800026c0:	8d630018 	lw	v1,24(t3)
800026c4:	0263a021 	addu	s4,s3,v1
800026c8:	ae510020 	sw	s1,32(s2)
800026cc:	02801821 	move	v1,s4
800026d0:	8fbf0024 	lw	ra,36(sp)
800026d4:	8fb40020 	lw	s4,32(sp)
800026d8:	8fb3001c 	lw	s3,28(sp)
800026dc:	8fb20018 	lw	s2,24(sp)
800026e0:	8fb10014 	lw	s1,20(sp)
800026e4:	8fb00010 	lw	s0,16(sp)
800026e8:	00601021 	move	v0,v1
800026ec:	03e00008 	jr	ra
800026f0:	27bd0028 	addiu	sp,sp,40
800026f4:	2684e8bc 	addiu	a0,s4,-5956
800026f8:	080009b1 	j	800026c4 <mktime+0x2c4>
800026fc:	8c830034 	lw	v1,52(a0)
80002700:	24d8e8bc 	addiu	t8,a2,-5956
80002704:	8f090034 	lw	t1,52(t8)
80002708:	8f030018 	lw	v1,24(t8)
8000270c:	8e4a0000 	lw	t2,0(s2)
80002710:	02402021 	move	a0,s2
80002714:	00698023 	subu	s0,v1,t1
80002718:	00102823 	negu	a1,s0
8000271c:	00b1800a 	movz	s0,a1,s1
80002720:	01501021 	addu	v0,t2,s0
80002724:	0c000a22 	jal	80002888 <validate_structure>
80002728:	ae420000 	sw	v0,0(s2)
8000272c:	080009ad 	j	800026b4 <mktime+0x2b4>
80002730:	02709821 	addu	s3,s3,s0
80002734:	11c0ffd9 	beqz	t6,8000269c <mktime+0x29c>
80002738:	00008821 	move	s1,zero
8000273c:	080009a5 	j	80002694 <mktime+0x294>
80002740:	00000000 	nop
80002744:	080009ad 	j	800026b4 <mktime+0x2b4>
80002748:	3c148001 	lui	s4,0x8001
8000274c:	24470007 	addiu	a3,v0,7
80002750:	0800097c 	j	800025f0 <mktime+0x1f0>
80002754:	ae470018 	sw	a3,24(s2)
80002758:	0800096a 	j	800025a8 <mktime+0x1a8>
8000275c:	2508016d 	addiu	t0,t0,365
80002760:	10a0ff96 	beqz	a1,800025bc <mktime+0x1bc>
80002764:	3c0b9249 	lui	t3,0x9249
80002768:	29230045 	slti	v1,t1,69
8000276c:	10600022 	beqz	v1,800027f8 <mktime+0x3f8>
80002770:	24050045 	li	a1,69
80002774:	3c1951eb 	lui	t9,0x51eb
80002778:	30b80003 	andi	t8,a1,0x3
8000277c:	3726851f 	ori	a2,t9,0x851f
80002780:	1700003d 	bnez	t8,80002878 <mktime+0x478>
80002784:	000527c3 	sra	a0,a1,0x1f
80002788:	00a60018 	mult	a1,a2
8000278c:	24a7076c 	addiu	a3,a1,1900
80002790:	00008010 	mfhi	s0
80002794:	00101143 	sra	v0,s0,0x5
80002798:	00446823 	subu	t5,v0,a0
8000279c:	000d7840 	sll	t7,t5,0x1
800027a0:	01ed7021 	addu	t6,t7,t5
800027a4:	000e60c0 	sll	t4,t6,0x3
800027a8:	018d5821 	addu	t3,t4,t5
800027ac:	000b2080 	sll	a0,t3,0x2
800027b0:	14a4000c 	bne	a1,a0,800027e4 <mktime+0x3e4>
800027b4:	000757c3 	sra	t2,a3,0x1f
800027b8:	00e60018 	mult	a3,a2
800027bc:	00005810 	mfhi	t3
800027c0:	000b21c3 	sra	a0,t3,0x7
800027c4:	008aa023 	subu	s4,a0,t2
800027c8:	0014c840 	sll	t9,s4,0x1
800027cc:	0334c021 	addu	t8,t9,s4
800027d0:	001888c0 	sll	s1,t8,0x3
800027d4:	02345021 	addu	t2,s1,s4
800027d8:	000a3100 	sll	a2,t2,0x4
800027dc:	54e60002 	bnel	a3,a2,800027e8 <mktime+0x3e8>
800027e0:	2508fe93 	addiu	t0,t0,-365
800027e4:	2508fe92 	addiu	t0,t0,-366
800027e8:	24a5ffff 	addiu	a1,a1,-1
800027ec:	0125382a 	slt	a3,t1,a1
800027f0:	14e0ffe1 	bnez	a3,80002778 <mktime+0x378>
800027f4:	3c1951eb 	lui	t9,0x51eb
800027f8:	30a30003 	andi	v1,a1,0x3
800027fc:	5460ff6e 	bnezl	v1,800025b8 <mktime+0x1b8>
80002800:	2508fe93 	addiu	t0,t0,-365
80002804:	3c0251eb 	lui	v0,0x51eb
80002808:	3446851f 	ori	a2,v0,0x851f
8000280c:	00a60018 	mult	a1,a2
80002810:	0005a7c3 	sra	s4,a1,0x1f
80002814:	0000c010 	mfhi	t8
80002818:	00188943 	sra	s1,t8,0x5
8000281c:	02347823 	subu	t7,s1,s4
80002820:	000f5040 	sll	t2,t7,0x1
80002824:	014f8021 	addu	s0,t2,t7
80002828:	001070c0 	sll	t6,s0,0x3
8000282c:	01cf6821 	addu	t5,t6,t7
80002830:	000d6080 	sll	t4,t5,0x2
80002834:	54acff60 	bnel	a1,t4,800025b8 <mktime+0x1b8>
80002838:	2508fe92 	addiu	t0,t0,-366
8000283c:	24b9076c 	addiu	t9,a1,1900
80002840:	03260018 	mult	t9,a2
80002844:	00197fc3 	sra	t7,t9,0x1f
80002848:	00008010 	mfhi	s0
8000284c:	001071c3 	sra	t6,s0,0x7
80002850:	01cf3823 	subu	a3,t6,t7
80002854:	00076840 	sll	t5,a3,0x1
80002858:	01a76021 	addu	t4,t5,a3
8000285c:	000c58c0 	sll	t3,t4,0x3
80002860:	01672021 	addu	a0,t3,a3
80002864:	00043100 	sll	a2,a0,0x4
80002868:	5726ff53 	bnel	t9,a2,800025b8 <mktime+0x1b8>
8000286c:	2508fe93 	addiu	t0,t0,-365
80002870:	0800096e 	j	800025b8 <mktime+0x1b8>
80002874:	2508fe92 	addiu	t0,t0,-366
80002878:	080009fa 	j	800027e8 <mktime+0x3e8>
8000287c:	2508fe93 	addiu	t0,t0,-365
80002880:	08000941 	j	80002504 <mktime+0x104>
80002884:	8e490014 	lw	t1,20(s2)

80002888 <validate_structure>:
80002888:	27bdffd8 	addiu	sp,sp,-40
8000288c:	afb1001c 	sw	s1,28(sp)
80002890:	afb00018 	sw	s0,24(sp)
80002894:	afbf0020 	sw	ra,32(sp)
80002898:	8c850000 	lw	a1,0(a0)
8000289c:	00808021 	move	s0,a0
800028a0:	2ca3003c 	sltiu	v1,a1,60
800028a4:	106000e0 	beqz	v1,80002c28 <validate_structure+0x3a0>
800028a8:	2411001c 	li	s1,28
800028ac:	8e050004 	lw	a1,4(s0)
800028b0:	2ca3003c 	sltiu	v1,a1,60
800028b4:	106000ce 	beqz	v1,80002bf0 <validate_structure+0x368>
800028b8:	27a40010 	addiu	a0,sp,16
800028bc:	8e050008 	lw	a1,8(s0)
800028c0:	2cac0018 	sltiu	t4,a1,24
800028c4:	118000bc 	beqz	t4,80002bb8 <validate_structure+0x330>
800028c8:	27a40010 	addiu	a0,sp,16
800028cc:	8e060010 	lw	a2,16(s0)
800028d0:	28d9000c 	slti	t9,a2,12
800028d4:	132000a6 	beqz	t9,80002b70 <validate_structure+0x2e8>
800028d8:	00c02821 	move	a1,a2
800028dc:	8e050014 	lw	a1,20(s0)
800028e0:	30a30003 	andi	v1,a1,0x3
800028e4:	5460001e 	bnezl	v1,80002960 <validate_structure+0xd8>
800028e8:	8e04000c 	lw	a0,12(s0)
800028ec:	3c1851eb 	lui	t8,0x51eb
800028f0:	3707851f 	ori	a3,t8,0x851f
800028f4:	00a70018 	mult	a1,a3
800028f8:	000577c3 	sra	t6,a1,0x1f
800028fc:	00007810 	mfhi	t7
80002900:	000f6943 	sra	t5,t7,0x5
80002904:	01ae5023 	subu	t2,t5,t6
80002908:	000a6040 	sll	t4,t2,0x1
8000290c:	018a5821 	addu	t3,t4,t2
80002910:	000b48c0 	sll	t1,t3,0x3
80002914:	012a4021 	addu	t0,t1,t2
80002918:	00081080 	sll	v0,t0,0x2
8000291c:	54a2000f 	bnel	a1,v0,8000295c <validate_structure+0xd4>
80002920:	2411001d 	li	s1,29
80002924:	24a8076c 	addiu	t0,a1,1900
80002928:	01070018 	mult	t0,a3
8000292c:	000867c3 	sra	t4,t0,0x1f
80002930:	00006810 	mfhi	t5
80002934:	000d11c3 	sra	v0,t5,0x7
80002938:	004c4823 	subu	t1,v0,t4
8000293c:	00095840 	sll	t3,t1,0x1
80002940:	01695021 	addu	t2,t3,t1
80002944:	000a38c0 	sll	a3,t2,0x3
80002948:	00e92021 	addu	a0,a3,t1
8000294c:	0004c900 	sll	t9,a0,0x4
80002950:	55190003 	bnel	t0,t9,80002960 <validate_structure+0xd8>
80002954:	8e04000c 	lw	a0,12(s0)
80002958:	2411001d 	li	s1,29
8000295c:	8e04000c 	lw	a0,12(s0)
80002960:	1880004c 	blez	a0,80002a94 <validate_structure+0x20c>
80002964:	3c0a8001 	lui	t2,0x8001
80002968:	254cea30 	addiu	t4,t2,-5584
8000296c:	240b0001 	li	t3,1
80002970:	240a0001 	li	t2,1
80002974:	01806821 	move	t5,t4
80002978:	2408000c 	li	t0,12
8000297c:	10ca0040 	beq	a2,t2,80002a80 <validate_structure+0x1f8>
80002980:	0006c880 	sll	t9,a2,0x2
80002984:	032c1821 	addu	v1,t9,t4
80002988:	8c650000 	lw	a1,0(v1)
8000298c:	00a4382a 	slt	a3,a1,a0
80002990:	10e00037 	beqz	a3,80002a70 <validate_structure+0x1e8>
80002994:	8fbf0020 	lw	ra,32(sp)
80002998:	10cb0033 	beq	a2,t3,80002a68 <validate_structure+0x1e0>
8000299c:	00062880 	sll	a1,a2,0x2
800029a0:	00ad1821 	addu	v1,a1,t5
800029a4:	8c690000 	lw	t1,0(v1)
800029a8:	00893823 	subu	a3,a0,t1
800029ac:	24c30001 	addiu	v1,a2,1
800029b0:	ae07000c 	sw	a3,12(s0)
800029b4:	10680004 	beq	v1,t0,800029c8 <validate_structure+0x140>
800029b8:	ae030010 	sw	v1,16(s0)
800029bc:	00e02021 	move	a0,a3
800029c0:	08000a5f 	j	8000297c <validate_structure+0xf4>
800029c4:	00603021 	move	a2,v1
800029c8:	8e050014 	lw	a1,20(s0)
800029cc:	ae000010 	sw	zero,16(s0)
800029d0:	24a60001 	addiu	a2,a1,1
800029d4:	30c40003 	andi	a0,a2,0x3
800029d8:	1480001b 	bnez	a0,80002a48 <validate_structure+0x1c0>
800029dc:	ae060014 	sw	a2,20(s0)
800029e0:	3c0251eb 	lui	v0,0x51eb
800029e4:	3449851f 	ori	t1,v0,0x851f
800029e8:	00c90018 	mult	a2,t1
800029ec:	00068fc3 	sra	s1,a2,0x1f
800029f0:	0000c010 	mfhi	t8
800029f4:	00181943 	sra	v1,t8,0x5
800029f8:	00717023 	subu	t6,v1,s1
800029fc:	000e2040 	sll	a0,t6,0x1
80002a00:	008e7821 	addu	t7,a0,t6
80002a04:	000fc8c0 	sll	t9,t7,0x3
80002a08:	032ec021 	addu	t8,t9,t6
80002a0c:	00188880 	sll	s1,t8,0x2
80002a10:	14d10011 	bne	a2,s1,80002a58 <validate_structure+0x1d0>
80002a14:	24b9076d 	addiu	t9,a1,1901
80002a18:	03290018 	mult	t9,t1
80002a1c:	001917c3 	sra	v0,t9,0x1f
80002a20:	00003010 	mfhi	a2
80002a24:	0006c1c3 	sra	t8,a2,0x7
80002a28:	03027823 	subu	t7,t8,v0
80002a2c:	000f8840 	sll	s1,t7,0x1
80002a30:	022f2021 	addu	a0,s1,t7
80002a34:	000470c0 	sll	t6,a0,0x3
80002a38:	01cf4821 	addu	t1,t6,t7
80002a3c:	00093100 	sll	a2,t1,0x4
80002a40:	53260006 	beql	t9,a2,80002a5c <validate_structure+0x1d4>
80002a44:	00e02021 	move	a0,a3
80002a48:	8e04000c 	lw	a0,12(s0)
80002a4c:	8e060010 	lw	a2,16(s0)
80002a50:	08000a5f 	j	8000297c <validate_structure+0xf4>
80002a54:	2411001c 	li	s1,28
80002a58:	00e02021 	move	a0,a3
80002a5c:	2411001d 	li	s1,29
80002a60:	08000a5f 	j	8000297c <validate_structure+0xf4>
80002a64:	00003021 	move	a2,zero
80002a68:	08000a6b 	j	800029ac <validate_structure+0x124>
80002a6c:	00913823 	subu	a3,a0,s1
80002a70:	8fb1001c 	lw	s1,28(sp)
80002a74:	8fb00018 	lw	s0,24(sp)
80002a78:	03e00008 	jr	ra
80002a7c:	27bd0028 	addiu	sp,sp,40
80002a80:	0224482a 	slt	t1,s1,a0
80002a84:	1520ffc4 	bnez	t1,80002998 <validate_structure+0x110>
80002a88:	8fbf0020 	lw	ra,32(sp)
80002a8c:	08000a9d 	j	80002a74 <validate_structure+0x1ec>
80002a90:	8fb1001c 	lw	s1,28(sp)
80002a94:	3c058001 	lui	a1,0x8001
80002a98:	24acea30 	addiu	t4,a1,-5584
80002a9c:	240bffff 	li	t3,-1
80002aa0:	240d000b 	li	t5,11
80002aa4:	240a0001 	li	t2,1
80002aa8:	24c3ffff 	addiu	v1,a2,-1
80002aac:	106b000d 	beq	v1,t3,80002ae4 <validate_structure+0x25c>
80002ab0:	ae030010 	sw	v1,16(s0)
80002ab4:	8e060010 	lw	a2,16(s0)
80002ab8:	00911821 	addu	v1,a0,s1
80002abc:	00063880 	sll	a3,a2,0x2
80002ac0:	10ca0003 	beq	a2,t2,80002ad0 <validate_structure+0x248>
80002ac4:	00ec1021 	addu	v0,a3,t4
80002ac8:	8c4f0000 	lw	t7,0(v0)
80002acc:	008f1821 	addu	v1,a0,t7
80002ad0:	ae03000c 	sw	v1,12(s0)
80002ad4:	1860fff4 	blez	v1,80002aa8 <validate_structure+0x220>
80002ad8:	00602021 	move	a0,v1
80002adc:	08000a9c 	j	80002a70 <validate_structure+0x1e8>
80002ae0:	8fbf0020 	lw	ra,32(sp)
80002ae4:	8e030014 	lw	v1,20(s0)
80002ae8:	3c1151eb 	lui	s1,0x51eb
80002aec:	3628851f 	ori	t0,s1,0x851f
80002af0:	2465ffff 	addiu	a1,v1,-1
80002af4:	30ae0003 	andi	t6,a1,0x3
80002af8:	ae0d0010 	sw	t5,16(s0)
80002afc:	2411001c 	li	s1,28
80002b00:	000537c3 	sra	a2,a1,0x1f
80002b04:	15c0ffeb 	bnez	t6,80002ab4 <validate_structure+0x22c>
80002b08:	ae050014 	sw	a1,20(s0)
80002b0c:	00a80018 	mult	a1,t0
80002b10:	2467076b 	addiu	a3,v1,1899
80002b14:	00007810 	mfhi	t7
80002b18:	000f1143 	sra	v0,t7,0x5
80002b1c:	0046c823 	subu	t9,v0,a2
80002b20:	00193040 	sll	a2,t9,0x1
80002b24:	00d97021 	addu	t6,a2,t9
80002b28:	000ec0c0 	sll	t8,t6,0x3
80002b2c:	03197821 	addu	t7,t8,t9
80002b30:	000f3080 	sll	a2,t7,0x2
80002b34:	14a6000c 	bne	a1,a2,80002b68 <validate_structure+0x2e0>
80002b38:	00074fc3 	sra	t1,a3,0x1f
80002b3c:	00e80018 	mult	a3,t0
80002b40:	00001010 	mfhi	v0
80002b44:	000231c3 	sra	a2,v0,0x7
80002b48:	00c9c023 	subu	t8,a2,t1
80002b4c:	00187040 	sll	t6,t8,0x1
80002b50:	01d8c821 	addu	t9,t6,t8
80002b54:	001928c0 	sll	a1,t9,0x3
80002b58:	00b84821 	addu	t1,a1,t8
80002b5c:	00094100 	sll	t0,t1,0x4
80002b60:	54e8ffd5 	bnel	a3,t0,80002ab8 <validate_structure+0x230>
80002b64:	8e060010 	lw	a2,16(s0)
80002b68:	08000aad 	j	80002ab4 <validate_structure+0x22c>
80002b6c:	2411001d 	li	s1,29
80002b70:	27a40010 	addiu	a0,sp,16
80002b74:	0c000f58 	jal	80003d60 <div>
80002b78:	2406000c 	li	a2,12
80002b7c:	8fa60010 	lw	a2,16(sp)
80002b80:	8e040014 	lw	a0,20(s0)
80002b84:	8fa50014 	lw	a1,20(sp)
80002b88:	00861021 	addu	v0,a0,a2
80002b8c:	ae020014 	sw	v0,20(s0)
80002b90:	04a00003 	bltz	a1,80002ba0 <validate_structure+0x318>
80002b94:	ae050010 	sw	a1,16(s0)
80002b98:	08000a37 	j	800028dc <validate_structure+0x54>
80002b9c:	00a03021 	move	a2,a1
80002ba0:	24a7000c 	addiu	a3,a1,12
80002ba4:	00e03021 	move	a2,a3
80002ba8:	2445ffff 	addiu	a1,v0,-1
80002bac:	ae050014 	sw	a1,20(s0)
80002bb0:	08000a37 	j	800028dc <validate_structure+0x54>
80002bb4:	ae070010 	sw	a3,16(s0)
80002bb8:	0c000f58 	jal	80003d60 <div>
80002bbc:	24060018 	li	a2,24
80002bc0:	8fae0010 	lw	t6,16(sp)
80002bc4:	8e0d000c 	lw	t5,12(s0)
80002bc8:	8fa40014 	lw	a0,20(sp)
80002bcc:	01ae1821 	addu	v1,t5,t6
80002bd0:	ae03000c 	sw	v1,12(s0)
80002bd4:	0481ff3d 	bgez	a0,800028cc <validate_structure+0x44>
80002bd8:	ae040008 	sw	a0,8(s0)
80002bdc:	24980018 	addiu	t8,a0,24
80002be0:	246fffff 	addiu	t7,v1,-1
80002be4:	ae180008 	sw	t8,8(s0)
80002be8:	08000a33 	j	800028cc <validate_structure+0x44>
80002bec:	ae0f000c 	sw	t7,12(s0)
80002bf0:	0c000f58 	jal	80003d60 <div>
80002bf4:	2406003c 	li	a2,60
80002bf8:	8fa90010 	lw	t1,16(sp)
80002bfc:	8e080008 	lw	t0,8(s0)
80002c00:	8fa40014 	lw	a0,20(sp)
80002c04:	01091821 	addu	v1,t0,t1
80002c08:	ae030008 	sw	v1,8(s0)
80002c0c:	0481ff2b 	bgez	a0,800028bc <validate_structure+0x34>
80002c10:	ae040004 	sw	a0,4(s0)
80002c14:	248b003c 	addiu	t3,a0,60
80002c18:	246affff 	addiu	t2,v1,-1
80002c1c:	ae0b0004 	sw	t3,4(s0)
80002c20:	08000a2f 	j	800028bc <validate_structure+0x34>
80002c24:	ae0a0008 	sw	t2,8(s0)
80002c28:	27a40010 	addiu	a0,sp,16
80002c2c:	0c000f58 	jal	80003d60 <div>
80002c30:	2406003c 	li	a2,60
80002c34:	8fa60010 	lw	a2,16(sp)
80002c38:	8e050004 	lw	a1,4(s0)
80002c3c:	8fa40014 	lw	a0,20(sp)
80002c40:	00a61821 	addu	v1,a1,a2
80002c44:	ae030004 	sw	v1,4(s0)
80002c48:	0481ff18 	bgez	a0,800028ac <validate_structure+0x24>
80002c4c:	ae040000 	sw	a0,0(s0)
80002c50:	2487003c 	addiu	a3,a0,60
80002c54:	2464ffff 	addiu	a0,v1,-1
80002c58:	ae070000 	sw	a3,0(s0)
80002c5c:	08000a2b 	j	800028ac <validate_structure+0x24>
80002c60:	ae040004 	sw	a0,4(s0)
	...

80002c70 <_mktm_r>:
80002c70:	27bdffe0 	addiu	sp,sp,-32
80002c74:	afb20018 	sw	s2,24(sp)
80002c78:	afb00010 	sw	s0,16(sp)
80002c7c:	afbf001c 	sw	ra,28(sp)
80002c80:	afb10014 	sw	s1,20(sp)
80002c84:	8c8b0000 	lw	t3,0(a0)
80002c88:	3c0ec22e 	lui	t6,0xc22e
80002c8c:	35cc4507 	ori	t4,t6,0x4507
80002c90:	016c0018 	mult	t3,t4
80002c94:	000b47c3 	sra	t0,t3,0x1f
80002c98:	00809021 	move	s2,a0
80002c9c:	00c06021 	move	t4,a2
80002ca0:	00a08021 	move	s0,a1
80002ca4:	00006810 	mfhi	t5
80002ca8:	01ab5021 	addu	t2,t5,t3
80002cac:	000a4c03 	sra	t1,t2,0x10
80002cb0:	01285023 	subu	t2,t1,t0
80002cb4:	000a3840 	sll	a3,t2,0x1
80002cb8:	00ea2021 	addu	a0,a3,t2
80002cbc:	00043100 	sll	a2,a0,0x4
80002cc0:	00c41023 	subu	v0,a2,a0
80002cc4:	00021900 	sll	v1,v0,0x4
80002cc8:	00622823 	subu	a1,v1,v0
80002ccc:	000519c0 	sll	v1,a1,0x7
80002cd0:	01634823 	subu	t1,t3,v1
80002cd4:	05200189 	bltz	t1,800032fc <_mktm_r+0x68c>
80002cd8:	3c190001 	lui	t9,0x1
80002cdc:	3738517f 	ori	t8,t9,0x517f
80002ce0:	0309882a 	slt	s1,t8,t1
80002ce4:	12200008 	beqz	s1,80002d08 <_mktm_r+0x98>
80002ce8:	3c03fffe 	lui	v1,0xfffe
80002cec:	3c050001 	lui	a1,0x1
80002cf0:	3464ae80 	ori	a0,v1,0xae80
80002cf4:	34a3517f 	ori	v1,a1,0x517f
80002cf8:	01244821 	addu	t1,t1,a0
80002cfc:	0069302a 	slt	a2,v1,t1
80002d00:	14c0fffd 	bnez	a2,80002cf8 <_mktm_r+0x88>
80002d04:	254a0001 	addiu	t2,t2,1
80002d08:	3c0591a2 	lui	a1,0x91a2
80002d0c:	34a4b3c5 	ori	a0,a1,0xb3c5
80002d10:	01240018 	mult	t1,a0
80002d14:	00093fc3 	sra	a3,t1,0x1f
80002d18:	3c0d8888 	lui	t5,0x8888
80002d1c:	35b98889 	ori	t9,t5,0x8889
80002d20:	3c0e9249 	lui	t6,0x9249
80002d24:	254d0004 	addiu	t5,t2,4
80002d28:	35cf2493 	ori	t7,t6,0x2493
80002d2c:	000d77c3 	sra	t6,t5,0x1f
80002d30:	00003010 	mfhi	a2
80002d34:	00c9c021 	addu	t8,a2,t1
80002d38:	001812c3 	sra	v0,t8,0xb
80002d3c:	0047c023 	subu	t8,v0,a3
80002d40:	001840c0 	sll	t0,t8,0x3
80002d44:	01188823 	subu	s1,t0,t8
80002d48:	00113140 	sll	a2,s1,0x5
80002d4c:	00d83821 	addu	a3,a2,t8
80002d50:	00074100 	sll	t0,a3,0x4
80002d54:	01283823 	subu	a3,t1,t0
80002d58:	00f90018 	mult	a3,t9
80002d5c:	000747c3 	sra	t0,a3,0x1f
80002d60:	ae180008 	sw	t8,8(s0)
80002d64:	00008810 	mfhi	s1
80002d68:	02273021 	addu	a2,s1,a3
80002d6c:	00061143 	sra	v0,a2,0x5
80002d70:	01af0018 	mult	t5,t7
80002d74:	00488823 	subu	s1,v0,t0
80002d78:	00111900 	sll	v1,s1,0x4
80002d7c:	00712823 	subu	a1,v1,s1
80002d80:	0005c880 	sll	t9,a1,0x2
80002d84:	00f9c023 	subu	t8,a3,t9
80002d88:	ae180000 	sw	t8,0(s0)
80002d8c:	ae110004 	sw	s1,4(s0)
80002d90:	00007810 	mfhi	t7
80002d94:	01ed4021 	addu	t0,t7,t5
80002d98:	00084883 	sra	t1,t0,0x2
80002d9c:	012e1023 	subu	v0,t1,t6
80002da0:	000238c0 	sll	a3,v0,0x3
80002da4:	00e22023 	subu	a0,a3,v0
80002da8:	01a41023 	subu	v0,t5,a0
80002dac:	04400150 	bltz	v0,800032f0 <_mktm_r+0x680>
80002db0:	ae020018 	sw	v0,24(s0)
80002db4:	05400125 	bltz	t2,8000324c <_mktm_r+0x5dc>
80002db8:	240607b2 	li	a2,1970
80002dbc:	3c0351eb 	lui	v1,0x51eb
80002dc0:	3c0f8001 	lui	t7,0x8001
80002dc4:	3468851f 	ori	t0,v1,0x851f
80002dc8:	25e9eaf0 	addiu	t1,t7,-5392
80002dcc:	01003821 	move	a3,t0
80002dd0:	30d90003 	andi	t9,a2,0x3
80002dd4:	000627c3 	sra	a0,a2,0x1f
80002dd8:	1720000c 	bnez	t9,80002e0c <_mktm_r+0x19c>
80002ddc:	00002821 	move	a1,zero
80002de0:	00c80018 	mult	a2,t0
80002de4:	00008810 	mfhi	s1
80002de8:	00111143 	sra	v0,s1,0x5
80002dec:	00446823 	subu	t5,v0,a0
80002df0:	000dc840 	sll	t9,t5,0x1
80002df4:	032d7821 	addu	t7,t9,t5
80002df8:	000f70c0 	sll	t6,t7,0x3
80002dfc:	01cdc021 	addu	t8,t6,t5
80002e00:	00188880 	sll	s1,t8,0x2
80002e04:	54d1000d 	bnel	a2,s1,80002e3c <_mktm_r+0x1cc>
80002e08:	24050001 	li	a1,1
80002e0c:	00c70018 	mult	a2,a3
80002e10:	00008810 	mfhi	s1
80002e14:	001111c3 	sra	v0,s1,0x7
80002e18:	00446823 	subu	t5,v0,a0
80002e1c:	000dc840 	sll	t9,t5,0x1
80002e20:	032d7821 	addu	t7,t9,t5
80002e24:	000f70c0 	sll	t6,t7,0x3
80002e28:	01cdc021 	addu	t8,t6,t5
80002e2c:	00182100 	sll	a0,t8,0x4
80002e30:	14c40003 	bne	a2,a0,80002e40 <_mktm_r+0x1d0>
80002e34:	0005c080 	sll	t8,a1,0x2
80002e38:	24050001 	li	a1,1
80002e3c:	0005c080 	sll	t8,a1,0x2
80002e40:	03091821 	addu	v1,t8,t1
80002e44:	8c620000 	lw	v0,0(v1)
80002e48:	0142202a 	slt	a0,t2,v0
80002e4c:	14800004 	bnez	a0,80002e60 <_mktm_r+0x1f0>
80002e50:	00057040 	sll	t6,a1,0x1
80002e54:	01425023 	subu	t2,t2,v0
80002e58:	08000b74 	j	80002dd0 <_mktm_r+0x160>
80002e5c:	24c60001 	addiu	a2,a2,1
80002e60:	01c5c021 	addu	t8,t6,a1
80002e64:	3c198001 	lui	t9,0x8001
80002e68:	24d1f894 	addiu	s1,a2,-1900
80002e6c:	00184100 	sll	t0,t8,0x4
80002e70:	2727ea90 	addiu	a3,t9,-5488
80002e74:	ae110014 	sw	s1,20(s0)
80002e78:	ae0a001c 	sw	t2,28(s0)
80002e7c:	01078821 	addu	s1,t0,a3
80002e80:	ae000010 	sw	zero,16(s0)
80002e84:	8e290000 	lw	t1,0(s1)
80002e88:	0149282a 	slt	a1,t2,t1
80002e8c:	14a0000f 	bnez	a1,80002ecc <_mktm_r+0x25c>
80002e90:	25590001 	addiu	t9,t2,1
80002e94:	8e080010 	lw	t0,16(s0)
80002e98:	25050001 	addiu	a1,t0,1
80002e9c:	00083880 	sll	a3,t0,0x2
80002ea0:	00f11821 	addu	v1,a3,s1
80002ea4:	00054880 	sll	t1,a1,0x2
80002ea8:	8c6f0000 	lw	t7,0(v1)
80002eac:	01311021 	addu	v0,t1,s1
80002eb0:	ae050010 	sw	a1,16(s0)
80002eb4:	8c440000 	lw	a0,0(v0)
80002eb8:	014f5023 	subu	t2,t2,t7
80002ebc:	0144682a 	slt	t5,t2,a0
80002ec0:	51a0fff5 	beqzl	t5,80002e98 <_mktm_r+0x228>
80002ec4:	8e080010 	lw	t0,16(s0)
80002ec8:	25590001 	addiu	t9,t2,1
80002ecc:	158000dd 	bnez	t4,80003244 <_mktm_r+0x5d4>
80002ed0:	ae19000c 	sw	t9,12(s0)
80002ed4:	3c0c8001 	lui	t4,0x8001
80002ed8:	8d8ae8ac 	lw	t2,-5972(t4)
80002edc:	514000d7 	beqzl	t2,8000323c <_mktm_r+0x5cc>
80002ee0:	ae000020 	sw	zero,32(s0)
80002ee4:	3c0e8001 	lui	t6,0x8001
80002ee8:	8dd8e8b4 	lw	t8,-5964(t6)
80002eec:	50d80007 	beql	a2,t8,80002f0c <_mktm_r+0x29c>
80002ef0:	3c068001 	lui	a2,0x8001
80002ef4:	0c000cc6 	jal	80003318 <__tzcalc_limits>
80002ef8:	00c02021 	move	a0,a2
80002efc:	104000cc 	beqz	v0,80003230 <_mktm_r+0x5c0>
80002f00:	240bffff 	li	t3,-1
80002f04:	8e4b0000 	lw	t3,0(s2)
80002f08:	3c068001 	lui	a2,0x8001
80002f0c:	8cd2e8b8 	lw	s2,-5960(a2)
80002f10:	124000c0 	beqz	s2,80003214 <_mktm_r+0x5a4>
80002f14:	3c058001 	lui	a1,0x8001
80002f18:	24a4e8bc 	addiu	a0,a1,-5956
80002f1c:	8c8f0014 	lw	t7,20(a0)
80002f20:	016f682a 	slt	t5,t3,t7
80002f24:	15a00006 	bnez	t5,80002f40 <_mktm_r+0x2d0>
80002f28:	00001821 	move	v1,zero
80002f2c:	8c880030 	lw	t0,48(a0)
80002f30:	0168202a 	slt	a0,t3,t0
80002f34:	50800003 	beqzl	a0,80002f44 <_mktm_r+0x2d4>
80002f38:	ae030020 	sw	v1,32(s0)
80002f3c:	24030001 	li	v1,1
80002f40:	ae030020 	sw	v1,32(s0)
80002f44:	8e020020 	lw	v0,32(s0)
80002f48:	24190001 	li	t9,1
80002f4c:	105900ae 	beq	v0,t9,80003208 <_mktm_r+0x598>
80002f50:	24aae8bc 	addiu	t2,a1,-5956
80002f54:	8d490018 	lw	t1,24(t2)
80002f58:	3c1291a2 	lui	s2,0x91a2
80002f5c:	364cb3c5 	ori	t4,s2,0xb3c5
80002f60:	012c0018 	mult	t1,t4
80002f64:	00095fc3 	sra	t3,t1,0x1f
80002f68:	3c038888 	lui	v1,0x8888
80002f6c:	34788889 	ori	t8,v1,0x8889
80002f70:	8e120000 	lw	s2,0(s0)
80002f74:	8e0c0004 	lw	t4,4(s0)
80002f78:	8e0a0008 	lw	t2,8(s0)
80002f7c:	00001010 	mfhi	v0
80002f80:	0049c821 	addu	t9,v0,t1
80002f84:	001942c3 	sra	t0,t9,0xb
80002f88:	010b2823 	subu	a1,t0,t3
80002f8c:	000538c0 	sll	a3,a1,0x3
80002f90:	00e57823 	subu	t7,a3,a1
80002f94:	000f6940 	sll	t5,t7,0x5
80002f98:	01a53021 	addu	a2,t5,a1
80002f9c:	00067100 	sll	t6,a2,0x4
80002fa0:	012e6823 	subu	t5,t1,t6
80002fa4:	01b80018 	mult	t5,t8
80002fa8:	000d5fc3 	sra	t3,t5,0x1f
80002fac:	01452023 	subu	a0,t2,a1
80002fb0:	ae040008 	sw	a0,8(s0)
80002fb4:	00001010 	mfhi	v0
80002fb8:	004dc821 	addu	t9,v0,t5
80002fbc:	00194143 	sra	t0,t9,0x5
80002fc0:	010bc023 	subu	t8,t0,t3
80002fc4:	00183900 	sll	a3,t8,0x4
80002fc8:	00f87823 	subu	t7,a3,t8
80002fcc:	000f3080 	sll	a2,t7,0x2
80002fd0:	01a67023 	subu	t6,t5,a2
80002fd4:	024e1823 	subu	v1,s2,t6
80002fd8:	01984023 	subu	t0,t4,t8
80002fdc:	2865003c 	slti	a1,v1,60
80002fe0:	ae030000 	sw	v1,0(s0)
80002fe4:	14a00083 	bnez	a1,800031f4 <_mktm_r+0x584>
80002fe8:	ae080004 	sw	t0,4(s0)
80002fec:	25020001 	addiu	v0,t0,1
80002ff0:	2463ffc4 	addiu	v1,v1,-60
80002ff4:	ae020004 	sw	v0,4(s0)
80002ff8:	ae030000 	sw	v1,0(s0)
80002ffc:	8e030004 	lw	v1,4(s0)
80003000:	2869003c 	slti	t1,v1,60
80003004:	15200075 	bnez	t1,800031dc <_mktm_r+0x56c>
80003008:	246affc4 	addiu	t2,v1,-60
8000300c:	8e040008 	lw	a0,8(s0)
80003010:	ae0a0004 	sw	t2,4(s0)
80003014:	24820001 	addiu	v0,a0,1
80003018:	ae020008 	sw	v0,8(s0)
8000301c:	8e050008 	lw	a1,8(s0)
80003020:	28ae0018 	slti	t6,a1,24
80003024:	15c00028 	bnez	t6,800030c8 <_mktm_r+0x458>
80003028:	00000000 	nop
8000302c:	8e080018 	lw	t0,24(s0)
80003030:	8e07001c 	lw	a3,28(s0)
80003034:	250d0001 	addiu	t5,t0,1
80003038:	24ef0001 	addiu	t7,a3,1
8000303c:	29a60007 	slti	a2,t5,7
80003040:	ae0f001c 	sw	t7,28(s0)
80003044:	14c00002 	bnez	a2,80003050 <_mktm_r+0x3e0>
80003048:	ae0d0018 	sw	t5,24(s0)
8000304c:	ae000018 	sw	zero,24(s0)
80003050:	8e0c000c 	lw	t4,12(s0)
80003054:	8e060010 	lw	a2,16(s0)
80003058:	24a2ffe8 	addiu	v0,a1,-24
8000305c:	25850001 	addiu	a1,t4,1
80003060:	0006c880 	sll	t9,a2,0x2
80003064:	03315821 	addu	t3,t9,s1
80003068:	ae020008 	sw	v0,8(s0)
8000306c:	ae05000c 	sw	a1,12(s0)
80003070:	8d620000 	lw	v0,0(t3)
80003074:	0045882a 	slt	s1,v0,a1
80003078:	12200006 	beqz	s1,80003094 <_mktm_r+0x424>
8000307c:	00a21823 	subu	v1,a1,v0
80003080:	24c90001 	addiu	t1,a2,1
80003084:	2412000c 	li	s2,12
80003088:	ae03000c 	sw	v1,12(s0)
8000308c:	11320008 	beq	t1,s2,800030b0 <_mktm_r+0x440>
80003090:	ae090010 	sw	t1,16(s0)
80003094:	02001021 	move	v0,s0
80003098:	8fbf001c 	lw	ra,28(sp)
8000309c:	8fb20018 	lw	s2,24(sp)
800030a0:	8fb10014 	lw	s1,20(sp)
800030a4:	8fb00010 	lw	s0,16(sp)
800030a8:	03e00008 	jr	ra
800030ac:	27bd0020 	addiu	sp,sp,32
800030b0:	8e0a0014 	lw	t2,20(s0)
800030b4:	ae000010 	sw	zero,16(s0)
800030b8:	ae00001c 	sw	zero,28(s0)
800030bc:	25440001 	addiu	a0,t2,1
800030c0:	08000c25 	j	80003094 <_mktm_r+0x424>
800030c4:	ae040014 	sw	a0,20(s0)
800030c8:	04a1fff3 	bgez	a1,80003098 <_mktm_r+0x428>
800030cc:	02001021 	move	v0,s0
800030d0:	8e0d001c 	lw	t5,28(s0)
800030d4:	8e060018 	lw	a2,24(s0)
800030d8:	25aeffff 	addiu	t6,t5,-1
800030dc:	24d8ffff 	addiu	t8,a2,-1
800030e0:	ae0e001c 	sw	t6,28(s0)
800030e4:	0700003a 	bltz	t8,800031d0 <_mktm_r+0x560>
800030e8:	ae180018 	sw	t8,24(s0)
800030ec:	8e07000c 	lw	a3,12(s0)
800030f0:	24a80018 	addiu	t0,a1,24
800030f4:	ae080008 	sw	t0,8(s0)
800030f8:	24e5ffff 	addiu	a1,a3,-1
800030fc:	14a0ffe5 	bnez	a1,80003094 <_mktm_r+0x424>
80003100:	ae05000c 	sw	a1,12(s0)
80003104:	8e190010 	lw	t9,16(s0)
80003108:	272bffff 	addiu	t3,t9,-1
8000310c:	05600007 	bltz	t3,8000312c <_mktm_r+0x4bc>
80003110:	ae0b0010 	sw	t3,16(s0)
80003114:	8e070010 	lw	a3,16(s0)
80003118:	00077880 	sll	t7,a3,0x2
8000311c:	01f13021 	addu	a2,t7,s1
80003120:	8cd10000 	lw	s1,0(a2)
80003124:	08000c25 	j	80003094 <_mktm_r+0x424>
80003128:	ae11000c 	sw	s1,12(s0)
8000312c:	8e0c0014 	lw	t4,20(s0)
80003130:	2412000b 	li	s2,11
80003134:	ae120010 	sw	s2,16(s0)
80003138:	2584ffff 	addiu	a0,t4,-1
8000313c:	30820003 	andi	v0,a0,0x3
80003140:	ae040014 	sw	a0,20(s0)
80003144:	14400020 	bnez	v0,800031c8 <_mktm_r+0x558>
80003148:	00003021 	move	a2,zero
8000314c:	3c0b51eb 	lui	t3,0x51eb
80003150:	3565851f 	ori	a1,t3,0x851f
80003154:	00850018 	mult	a0,a1
80003158:	00042fc3 	sra	a1,a0,0x1f
8000315c:	00004010 	mfhi	t0
80003160:	00083943 	sra	a3,t0,0x5
80003164:	00e57023 	subu	t6,a3,a1
80003168:	000e7840 	sll	t7,t6,0x1
8000316c:	01ee6821 	addu	t5,t7,t6
80003170:	000dc0c0 	sll	t8,t5,0x3
80003174:	030e5021 	addu	t2,t8,t6
80003178:	000a4880 	sll	t1,t2,0x2
8000317c:	5489000f 	bnel	a0,t1,800031bc <_mktm_r+0x54c>
80003180:	24060001 	li	a2,1
80003184:	3c0d51eb 	lui	t5,0x51eb
80003188:	35ae851f 	ori	t6,t5,0x851f
8000318c:	008e0018 	mult	a0,t6
80003190:	0000c010 	mfhi	t8
80003194:	001811c3 	sra	v0,t8,0x7
80003198:	00459023 	subu	s2,v0,a1
8000319c:	00125040 	sll	t2,s2,0x1
800031a0:	01524821 	addu	t1,t2,s2
800031a4:	000960c0 	sll	t4,t1,0x3
800031a8:	0192c821 	addu	t9,t4,s2
800031ac:	00191900 	sll	v1,t9,0x4
800031b0:	14830003 	bne	a0,v1,800031c0 <_mktm_r+0x550>
800031b4:	24c4016d 	addiu	a0,a2,365
800031b8:	24060001 	li	a2,1
800031bc:	24c4016d 	addiu	a0,a2,365
800031c0:	08000c45 	j	80003114 <_mktm_r+0x4a4>
800031c4:	ae04001c 	sw	a0,28(s0)
800031c8:	08000c61 	j	80003184 <_mktm_r+0x514>
800031cc:	00042fc3 	sra	a1,a0,0x1f
800031d0:	240f0006 	li	t7,6
800031d4:	08000c3b 	j	800030ec <_mktm_r+0x47c>
800031d8:	ae0f0018 	sw	t7,24(s0)
800031dc:	0461ff90 	bgez	v1,80003020 <_mktm_r+0x3b0>
800031e0:	8e050008 	lw	a1,8(s0)
800031e4:	2478003c 	addiu	t8,v1,60
800031e8:	ae180004 	sw	t8,4(s0)
800031ec:	08000c06 	j	80003018 <_mktm_r+0x3a8>
800031f0:	24a2ffff 	addiu	v0,a1,-1
800031f4:	0463ff82 	bgezl	v1,80003000 <_mktm_r+0x390>
800031f8:	8e030004 	lw	v1,4(s0)
800031fc:	2502ffff 	addiu	v0,t0,-1
80003200:	08000bfd 	j	80002ff4 <_mktm_r+0x384>
80003204:	2463003c 	addiu	v1,v1,60
80003208:	24a3e8bc 	addiu	v1,a1,-5956
8000320c:	08000bd6 	j	80002f58 <_mktm_r+0x2e8>
80003210:	8c690034 	lw	t1,52(v1)
80003214:	24a4e8bc 	addiu	a0,a1,-5956
80003218:	8c870014 	lw	a3,20(a0)
8000321c:	0167482a 	slt	t1,t3,a3
80003220:	1120ff46 	beqz	t1,80002f3c <_mktm_r+0x2cc>
80003224:	00001821 	move	v1,zero
80003228:	08000bcc 	j	80002f30 <_mktm_r+0x2c0>
8000322c:	8c880030 	lw	t0,48(a0)
80003230:	3c058001 	lui	a1,0x8001
80003234:	08000bd1 	j	80002f44 <_mktm_r+0x2d4>
80003238:	ae0b0020 	sw	t3,32(s0)
8000323c:	08000bd1 	j	80002f44 <_mktm_r+0x2d4>
80003240:	3c058001 	lui	a1,0x8001
80003244:	08000c25 	j	80003094 <_mktm_r+0x424>
80003248:	ae000020 	sw	zero,32(s0)
8000324c:	3c0751eb 	lui	a3,0x51eb
80003250:	3c088001 	lui	t0,0x8001
80003254:	2509eaf0 	addiu	t1,t0,-5392
80003258:	34e8851f 	ori	t0,a3,0x851f
8000325c:	01003821 	move	a3,t0
80003260:	24c6ffff 	addiu	a2,a2,-1
80003264:	30ce0003 	andi	t6,a2,0x3
80003268:	000627c3 	sra	a0,a2,0x1f
8000326c:	15c0000c 	bnez	t6,800032a0 <_mktm_r+0x630>
80003270:	00002821 	move	a1,zero
80003274:	00c80018 	mult	a2,t0
80003278:	00006810 	mfhi	t5
8000327c:	000d1143 	sra	v0,t5,0x5
80003280:	00448823 	subu	s1,v0,a0
80003284:	00117040 	sll	t6,s1,0x1
80003288:	01d1c021 	addu	t8,t6,s1
8000328c:	0018c8c0 	sll	t9,t8,0x3
80003290:	03317821 	addu	t7,t9,s1
80003294:	000f6880 	sll	t5,t7,0x2
80003298:	54cd000d 	bnel	a2,t5,800032d0 <_mktm_r+0x660>
8000329c:	24050001 	li	a1,1
800032a0:	00c70018 	mult	a2,a3
800032a4:	00006810 	mfhi	t5
800032a8:	000d11c3 	sra	v0,t5,0x7
800032ac:	00448823 	subu	s1,v0,a0
800032b0:	00117040 	sll	t6,s1,0x1
800032b4:	01d1c021 	addu	t8,t6,s1
800032b8:	0018c8c0 	sll	t9,t8,0x3
800032bc:	03317821 	addu	t7,t9,s1
800032c0:	000f2100 	sll	a0,t7,0x4
800032c4:	14c40003 	bne	a2,a0,800032d4 <_mktm_r+0x664>
800032c8:	00057880 	sll	t7,a1,0x2
800032cc:	24050001 	li	a1,1
800032d0:	00057880 	sll	t7,a1,0x2
800032d4:	01e91821 	addu	v1,t7,t1
800032d8:	8c640000 	lw	a0,0(v1)
800032dc:	01445021 	addu	t2,t2,a0
800032e0:	0542ffe0 	bltzl	t2,80003264 <_mktm_r+0x5f4>
800032e4:	24c6ffff 	addiu	a2,a2,-1
800032e8:	08000b98 	j	80002e60 <_mktm_r+0x1f0>
800032ec:	00057040 	sll	t6,a1,0x1
800032f0:	24490007 	addiu	t1,v0,7
800032f4:	08000b6d 	j	80002db4 <_mktm_r+0x144>
800032f8:	ae090018 	sw	t1,24(s0)
800032fc:	3c0f0001 	lui	t7,0x1
80003300:	35e25180 	ori	v0,t7,0x5180
80003304:	01224821 	addu	t1,t1,v0
80003308:	0520fffe 	bltz	t1,80003304 <_mktm_r+0x694>
8000330c:	254affff 	addiu	t2,t2,-1
80003310:	08000b37 	j	80002cdc <_mktm_r+0x6c>
80003314:	3c190001 	lui	t9,0x1

80003318 <__tzcalc_limits>:
80003318:	27bdffe8 	addiu	sp,sp,-24
8000331c:	288307b2 	slti	v1,a0,1970
80003320:	afb50014 	sw	s5,20(sp)
80003324:	afb40010 	sw	s4,16(sp)
80003328:	afb3000c 	sw	s3,12(sp)
8000332c:	afb20008 	sw	s2,8(sp)
80003330:	afb10004 	sw	s1,4(sp)
80003334:	afb00000 	sw	s0,0(sp)
80003338:	00805821 	move	t3,a0
8000333c:	14600099 	bnez	v1,800035a4 <__tzcalc_limits+0x28c>
80003340:	00002821 	move	a1,zero
80003344:	3c0451eb 	lui	a0,0x51eb
80003348:	3492851f 	ori	s2,a0,0x851f
8000334c:	2578f893 	addiu	t8,t3,-1901
80003350:	03120018 	mult	t8,s2
80003354:	2573f9bf 	addiu	s3,t3,-1601
80003358:	2567f84e 	addiu	a3,t3,-1970
8000335c:	000750c0 	sll	t2,a3,0x3
80003360:	01474821 	addu	t1,t2,a3
80003364:	000930c0 	sll	a2,t1,0x3
80003368:	00c72821 	addu	a1,a2,a3
8000336c:	2579f84f 	addiu	t9,t3,-1969
80003370:	2563f852 	addiu	v1,t3,-1966
80003374:	2b310000 	slti	s1,t9,0
80003378:	0071c80b 	movn	t9,v1,s1
8000337c:	00051080 	sll	v0,a1,0x2
80003380:	00a2a021 	addu	s4,a1,v0
80003384:	0019a883 	sra	s5,t9,0x2
80003388:	00187fc3 	sra	t7,t8,0x1f
8000338c:	02956021 	addu	t4,s4,s5
80003390:	00138fc3 	sra	s1,s3,0x1f
80003394:	00008010 	mfhi	s0
80003398:	00107143 	sra	t6,s0,0x5
8000339c:	01cf6823 	subu	t5,t6,t7
800033a0:	02720018 	mult	s3,s2
800033a4:	3c0a8001 	lui	t2,0x8001
800033a8:	018d2823 	subu	a1,t4,t5
800033ac:	3c098001 	lui	t1,0x8001
800033b0:	254ce8bc 	addiu	t4,t2,-5956
800033b4:	3c078001 	lui	a3,0x8001
800033b8:	ad2be8b4 	sw	t3,-5964(t1)
800033bc:	24f5ea90 	addiu	s5,a3,-5488
800033c0:	01806821 	move	t5,t4
800033c4:	0000c821 	move	t9,zero
800033c8:	2590000c 	addiu	s0,t4,12
800033cc:	01807021 	move	t6,t4
800033d0:	240f0001 	li	t7,1
800033d4:	00003010 	mfhi	a2
800033d8:	000641c3 	sra	t0,a2,0x7
800033dc:	01111823 	subu	v1,t0,s1
800033e0:	01720018 	mult	t3,s2
800033e4:	00a3c021 	addu	t8,a1,v1
800033e8:	00001010 	mfhi	v0
800033ec:	000289c3 	sra	s1,v0,0x7
800033f0:	00029143 	sra	s2,v0,0x5
800033f4:	0240a021 	move	s4,s2
800033f8:	02209821 	move	s3,s1
800033fc:	81c30000 	lb	v1,0(t6)
80003400:	2408004a 	li	t0,74
80003404:	10680075 	beq	v1,t0,800035dc <__tzcalc_limits+0x2c4>
80003408:	24070044 	li	a3,68
8000340c:	10670070 	beq	v1,a3,800035d0 <__tzcalc_limits+0x2b8>
80003410:	31680003 	andi	t0,t3,0x3
80003414:	1500006c 	bnez	t0,800035c8 <__tzcalc_limits+0x2b0>
80003418:	00002821 	move	a1,zero
8000341c:	000b27c3 	sra	a0,t3,0x1f
80003420:	02845023 	subu	t2,s4,a0
80003424:	000a4040 	sll	t0,t2,0x1
80003428:	010a1821 	addu	v1,t0,t2
8000342c:	000338c0 	sll	a3,v1,0x3
80003430:	00ea4821 	addu	t1,a3,t2
80003434:	00093080 	sll	a2,t1,0x2
80003438:	5566000a 	bnel	t3,a2,80003464 <__tzcalc_limits+0x14c>
8000343c:	24050001 	li	a1,1
80003440:	02643823 	subu	a3,s3,a0
80003444:	00071840 	sll	v1,a3,0x1
80003448:	00675021 	addu	t2,v1,a3
8000344c:	000a48c0 	sll	t1,t2,0x3
80003450:	01273021 	addu	a2,t1,a3
80003454:	00062100 	sll	a0,a2,0x4
80003458:	15640003 	bne	t3,a0,80003468 <__tzcalc_limits+0x150>
8000345c:	3c0a8001 	lui	t2,0x8001
80003460:	24050001 	li	a1,1
80003464:	3c0a8001 	lui	t2,0x8001
80003468:	2544e8bc 	addiu	a0,t2,-5956
8000346c:	03243821 	addu	a3,t9,a0
80003470:	8ce40004 	lw	a0,4(a3)
80003474:	00054840 	sll	t1,a1,0x1
80003478:	01253021 	addu	a2,t1,a1
8000347c:	24050001 	li	a1,1
80003480:	00061100 	sll	v0,a2,0x4
80003484:	00a4402a 	slt	t0,a1,a0
80003488:	00555021 	addu	t2,v0,s5
8000348c:	11000009 	beqz	t0,800034b4 <__tzcalc_limits+0x19c>
80003490:	03004821 	move	t1,t8
80003494:	01401821 	move	v1,t2
80003498:	2485ffff 	addiu	a1,a0,-1
8000349c:	8c680000 	lw	t0,0(v1)
800034a0:	24a5ffff 	addiu	a1,a1,-1
800034a4:	24630004 	addiu	v1,v1,4
800034a8:	14a0fffc 	bnez	a1,8000349c <__tzcalc_limits+0x184>
800034ac:	01284821 	addu	t1,t1,t0
800034b0:	00802821 	move	a1,a0
800034b4:	3c049249 	lui	a0,0x9249
800034b8:	25270004 	addiu	a3,t1,4
800034bc:	34862493 	ori	a2,a0,0x2493
800034c0:	00e60018 	mult	a3,a2
800034c4:	8d860008 	lw	a2,8(t4)
800034c8:	00051080 	sll	v0,a1,0x2
800034cc:	01421021 	addu	v0,t2,v0
800034d0:	000628c0 	sll	a1,a2,0x3
800034d4:	000747c3 	sra	t0,a3,0x1f
800034d8:	00a65023 	subu	t2,a1,a2
800034dc:	8c46fffc 	lw	a2,-4(v0)
800034e0:	8d84000c 	lw	a0,12(t4)
800034e4:	00001810 	mfhi	v1
800034e8:	00671821 	addu	v1,v1,a3
800034ec:	00031083 	sra	v0,v1,0x2
800034f0:	00481823 	subu	v1,v0,t0
800034f4:	000340c0 	sll	t0,v1,0x3
800034f8:	01031023 	subu	v0,t0,v1
800034fc:	00e24023 	subu	t0,a3,v0
80003500:	00883823 	subu	a3,a0,t0
80003504:	28e30000 	slti	v1,a3,0
80003508:	24e80007 	addiu	t0,a3,7
8000350c:	0103380b 	movn	a3,t0,v1
80003510:	01471021 	addu	v0,t2,a3
80003514:	2443fff9 	addiu	v1,v0,-7
80003518:	0066282a 	slt	a1,v1,a2
8000351c:	54a00006 	bnezl	a1,80003538 <__tzcalc_limits+0x220>
80003520:	01234821 	addu	t1,t1,v1
80003524:	2463fff9 	addiu	v1,v1,-7
80003528:	0066282a 	slt	a1,v1,a2
8000352c:	50a0fffe 	beqzl	a1,80003528 <__tzcalc_limits+0x210>
80003530:	2463fff9 	addiu	v1,v1,-7
80003534:	01234821 	addu	t1,t1,v1
80003538:	00093840 	sll	a3,t1,0x1
8000353c:	00e95021 	addu	t2,a3,t1
80003540:	000a4900 	sll	t1,t2,0x4
80003544:	012a2823 	subu	a1,t1,t2
80003548:	8da80010 	lw	t0,16(t5)
8000354c:	00052100 	sll	a0,a1,0x4
80003550:	8da70018 	lw	a3,24(t5)
80003554:	00853023 	subu	a2,a0,a1
80003558:	000619c0 	sll	v1,a2,0x7
8000355c:	00685021 	addu	t2,v1,t0
80003560:	01474821 	addu	t1,t2,a3
80003564:	25efffff 	addiu	t7,t7,-1
80003568:	ada90014 	sw	t1,20(t5)
8000356c:	258c001c 	addiu	t4,t4,28
80003570:	25ad001c 	addiu	t5,t5,28
80003574:	2739001c 	addiu	t9,t9,28
80003578:	2610001c 	addiu	s0,s0,28
8000357c:	05e1ff9f 	bgez	t7,800033fc <__tzcalc_limits+0xe4>
80003580:	25ce001c 	addiu	t6,t6,28
80003584:	3c0f8001 	lui	t7,0x8001
80003588:	25eee8bc 	addiu	t6,t7,-5956
8000358c:	8dcd0030 	lw	t5,48(t6)
80003590:	8dcc0014 	lw	t4,20(t6)
80003594:	3c0b8001 	lui	t3,0x8001
80003598:	24050001 	li	a1,1
8000359c:	018d902a 	slt	s2,t4,t5
800035a0:	ad72e8b8 	sw	s2,-5960(t3)
800035a4:	8fb50014 	lw	s5,20(sp)
800035a8:	8fb40010 	lw	s4,16(sp)
800035ac:	8fb3000c 	lw	s3,12(sp)
800035b0:	8fb20008 	lw	s2,8(sp)
800035b4:	8fb10004 	lw	s1,4(sp)
800035b8:	8fb00000 	lw	s0,0(sp)
800035bc:	00a01021 	move	v0,a1
800035c0:	03e00008 	jr	ra
800035c4:	27bd0018 	addiu	sp,sp,24
800035c8:	08000d10 	j	80003440 <__tzcalc_limits+0x128>
800035cc:	000b27c3 	sra	a0,t3,0x1f
800035d0:	8dca000c 	lw	t2,12(t6)
800035d4:	08000d4e 	j	80003538 <__tzcalc_limits+0x220>
800035d8:	030a4821 	addu	t1,t8,t2
800035dc:	8dc3000c 	lw	v1,12(t6)
800035e0:	31660003 	andi	a2,t3,0x3
800035e4:	00002821 	move	a1,zero
800035e8:	14c00017 	bnez	a2,80003648 <__tzcalc_limits+0x330>
800035ec:	03033821 	addu	a3,t8,v1
800035f0:	000b27c3 	sra	a0,t3,0x1f
800035f4:	02443023 	subu	a2,s2,a0
800035f8:	00064840 	sll	t1,a2,0x1
800035fc:	01261821 	addu	v1,t1,a2
80003600:	000340c0 	sll	t0,v1,0x3
80003604:	01065021 	addu	t2,t0,a2
80003608:	000a4880 	sll	t1,t2,0x2
8000360c:	5569000a 	bnel	t3,t1,80003638 <__tzcalc_limits+0x320>
80003610:	8e050000 	lw	a1,0(s0)
80003614:	02243023 	subu	a2,s1,a0
80003618:	00064840 	sll	t1,a2,0x1
8000361c:	01261821 	addu	v1,t1,a2
80003620:	000340c0 	sll	t0,v1,0x3
80003624:	01065021 	addu	t2,t0,a2
80003628:	000a2100 	sll	a0,t2,0x4
8000362c:	5564ffc2 	bnel	t3,a0,80003538 <__tzcalc_limits+0x220>
80003630:	00e54821 	addu	t1,a3,a1
80003634:	8e050000 	lw	a1,0(s0)
80003638:	28a4003c 	slti	a0,a1,60
8000363c:	2c850001 	sltiu	a1,a0,1
80003640:	08000d4e 	j	80003538 <__tzcalc_limits+0x220>
80003644:	00e54821 	addu	t1,a3,a1
80003648:	08000d85 	j	80003614 <__tzcalc_limits+0x2fc>
8000364c:	000b27c3 	sra	a0,t3,0x1f

80003650 <_strtol_r>:
80003650:	3c038001 	lui	v1,0x8001
80003654:	0080c021 	move	t8,a0
80003658:	00a04821 	move	t1,a1
8000365c:	2464ebe0 	addiu	a0,v1,-5152
80003660:	00007821 	move	t7,zero
80003664:	81280000 	lb	t0,0(t1)
80003668:	01041021 	addu	v0,t0,a0
8000366c:	904a0000 	lbu	t2,0(v0)
80003670:	31430008 	andi	v1,t2,0x8
80003674:	1460fffb 	bnez	v1,80003664 <_strtol_r+0x14>
80003678:	25290001 	addiu	t1,t1,1
8000367c:	2404002d 	li	a0,45
80003680:	11040059 	beq	t0,a0,800037e8 <_strtol_r+0x198>
80003684:	240b002b 	li	t3,43
80003688:	510b0055 	beql	t0,t3,800037e0 <_strtol_r+0x190>
8000368c:	81280000 	lb	t0,0(t1)
80003690:	10e00048 	beqz	a3,800037b4 <_strtol_r+0x164>
80003694:	240d0030 	li	t5,48
80003698:	240c0010 	li	t4,16
8000369c:	10ec0045 	beq	a3,t4,800037b4 <_strtol_r+0x164>
800036a0:	00000000 	nop
800036a4:	14e00005 	bnez	a3,800036bc <_strtol_r+0x6c>
800036a8:	3c0c7fff 	lui	t4,0x7fff
800036ac:	24070008 	li	a3,8
800036b0:	39020030 	xori	v0,t0,0x30
800036b4:	240a000a 	li	t2,10
800036b8:	0142380b 	movn	a3,t2,v0
800036bc:	358bffff 	ori	t3,t4,0xffff
800036c0:	3c048000 	lui	a0,0x8000
800036c4:	016f200a 	movz	a0,t3,t7
800036c8:	0087001b 	divu	zero,a0,a3
800036cc:	3c038001 	lui	v1,0x8001
800036d0:	50e00001 	beqzl	a3,800036d8 <_strtol_r+0x88>
800036d4:	0000018d 	break	0x6
800036d8:	246debe0 	addiu	t5,v1,-5152
800036dc:	00005021 	move	t2,zero
800036e0:	00005821 	move	t3,zero
800036e4:	00007010 	mfhi	t6
800036e8:	00006012 	mflo	t4
800036ec:	010d1821 	addu	v1,t0,t5
800036f0:	90640000 	lbu	a0,0(v1)
800036f4:	30990004 	andi	t9,a0,0x4
800036f8:	13200027 	beqz	t9,80003798 <_strtol_r+0x148>
800036fc:	30990003 	andi	t9,a0,0x3
80003700:	2508ffd0 	addiu	t0,t0,-48
80003704:	0107202a 	slt	a0,t0,a3
80003708:	10800012 	beqz	a0,80003754 <_strtol_r+0x104>
8000370c:	00000000 	nop
80003710:	05600009 	bltz	t3,80003738 <_strtol_r+0xe8>
80003714:	240bffff 	li	t3,-1
80003718:	018a582b 	sltu	t3,t4,t2
8000371c:	15600006 	bnez	t3,80003738 <_strtol_r+0xe8>
80003720:	240bffff 	li	t3,-1
80003724:	114c0007 	beq	t2,t4,80003744 <_strtol_r+0xf4>
80003728:	01c8c82a 	slt	t9,t6,t0
8000372c:	71471802 	mul	v1,t2,a3
80003730:	240b0001 	li	t3,1
80003734:	00685021 	addu	t2,v1,t0
80003738:	81280000 	lb	t0,0(t1)
8000373c:	08000dbb 	j	800036ec <_strtol_r+0x9c>
80003740:	25290001 	addiu	t1,t1,1
80003744:	1320fffa 	beqz	t9,80003730 <_strtol_r+0xe0>
80003748:	71471802 	mul	v1,t2,a3
8000374c:	08000dce 	j	80003738 <_strtol_r+0xe8>
80003750:	240bffff 	li	t3,-1
80003754:	0560000a 	bltz	t3,80003780 <_strtol_r+0x130>
80003758:	3c0d7fff 	lui	t5,0x7fff
8000375c:	000ac023 	negu	t8,t2
80003760:	030f500b 	movn	t2,t8,t7
80003764:	10c00004 	beqz	a2,80003778 <_strtol_r+0x128>
80003768:	00000000 	nop
8000376c:	252fffff 	addiu	t7,t1,-1
80003770:	01eb280b 	movn	a1,t7,t3
80003774:	acc50000 	sw	a1,0(a2)
80003778:	03e00008 	jr	ra
8000377c:	01401021 	move	v0,t2
80003780:	35a8ffff 	ori	t0,t5,0xffff
80003784:	3c0a8000 	lui	t2,0x8000
80003788:	24070022 	li	a3,34
8000378c:	010f500a 	movz	t2,t0,t7
80003790:	08000dd9 	j	80003764 <_strtol_r+0x114>
80003794:	af070000 	sw	a3,0(t8)
80003798:	1320ffee 	beqz	t9,80003754 <_strtol_r+0x104>
8000379c:	2502ffc9 	addiu	v0,t0,-55
800037a0:	2519ffa9 	addiu	t9,t0,-87
800037a4:	30830001 	andi	v1,a0,0x1
800037a8:	00404021 	move	t0,v0
800037ac:	08000dc1 	j	80003704 <_strtol_r+0xb4>
800037b0:	0323400a 	movz	t0,t9,v1
800037b4:	150dffbb 	bne	t0,t5,800036a4 <_strtol_r+0x54>
800037b8:	240e0078 	li	t6,120
800037bc:	81230000 	lb	v1,0(t1)
800037c0:	106e0003 	beq	v1,t6,800037d0 <_strtol_r+0x180>
800037c4:	24190058 	li	t9,88
800037c8:	1479ffb6 	bne	v1,t9,800036a4 <_strtol_r+0x54>
800037cc:	00000000 	nop
800037d0:	81280001 	lb	t0,1(t1)
800037d4:	24070010 	li	a3,16
800037d8:	08000da9 	j	800036a4 <_strtol_r+0x54>
800037dc:	25290002 	addiu	t1,t1,2
800037e0:	08000da4 	j	80003690 <_strtol_r+0x40>
800037e4:	25290001 	addiu	t1,t1,1
800037e8:	81280000 	lb	t0,0(t1)
800037ec:	08000df8 	j	800037e0 <_strtol_r+0x190>
800037f0:	240f0001 	li	t7,1

800037f4 <strtol>:
800037f4:	3c078001 	lui	a3,0x8001
800037f8:	00801821 	move	v1,a0
800037fc:	8ce4e348 	lw	a0,-7352(a3)
80003800:	00a01021 	move	v0,a1
80003804:	27bdffe8 	addiu	sp,sp,-24
80003808:	00c03821 	move	a3,a2
8000380c:	00602821 	move	a1,v1
80003810:	afbf0010 	sw	ra,16(sp)
80003814:	0c000d94 	jal	80003650 <_strtol_r>
80003818:	00403021 	move	a2,v0
8000381c:	8fbf0010 	lw	ra,16(sp)
80003820:	03e00008 	jr	ra
80003824:	27bd0018 	addiu	sp,sp,24
	...

80003830 <_tzset_r>:
80003830:	3c028001 	lui	v0,0x8001
80003834:	27bdffa0 	addiu	sp,sp,-96
80003838:	2445eb04 	addiu	a1,v0,-5372
8000383c:	afb20040 	sw	s2,64(sp)
80003840:	afb00038 	sw	s0,56(sp)
80003844:	afbf005c 	sw	ra,92(sp)
80003848:	afbe0058 	sw	s8,88(sp)
8000384c:	afb70054 	sw	s7,84(sp)
80003850:	afb60050 	sw	s6,80(sp)
80003854:	afb5004c 	sw	s5,76(sp)
80003858:	afb40048 	sw	s4,72(sp)
8000385c:	afb30044 	sw	s3,68(sp)
80003860:	afb1003c 	sw	s1,60(sp)
80003864:	0c000fbd 	jal	80003ef4 <_getenv_r>
80003868:	00809021 	move	s2,a0
8000386c:	10400131 	beqz	v0,80003d34 <_tzset_r+0x504>
80003870:	00408021 	move	s0,v0
80003874:	3c118001 	lui	s1,0x8001
80003878:	8e25e8a0 	lw	a1,-5984(s1)
8000387c:	10a00005 	beqz	a1,80003894 <_tzset_r+0x64>
80003880:	00000000 	nop
80003884:	0c001008 	jal	80004020 <strcmp>
80003888:	00402021 	move	a0,v0
8000388c:	104000c4 	beqz	v0,80003ba0 <_tzset_r+0x370>
80003890:	8fbf005c 	lw	ra,92(sp)
80003894:	0c0001c2 	jal	80000708 <free>
80003898:	8e24e8a0 	lw	a0,-5984(s1)
8000389c:	0c00104c 	jal	80004130 <strlen>
800038a0:	02002021 	move	a0,s0
800038a4:	24490001 	addiu	t1,v0,1
800038a8:	02402021 	move	a0,s2
800038ac:	0c0001cc 	jal	80000730 <_malloc_r>
800038b0:	01202821 	move	a1,t1
800038b4:	1440011a 	bnez	v0,80003d20 <_tzset_r+0x4f0>
800038b8:	ae22e8a0 	sw	v0,-5984(s1)
800038bc:	820d0000 	lb	t5,0(s0)
800038c0:	260b0001 	addiu	t3,s0,1
800038c4:	3c048001 	lui	a0,0x8001
800038c8:	39ac003a 	xori	t4,t5,0x3a
800038cc:	016c800a 	movz	s0,t3,t4
800038d0:	3c0a8001 	lui	t2,0x8001
800038d4:	2486f750 	addiu	a2,a0,-2224
800038d8:	2545eb08 	addiu	a1,t2,-5368
800038dc:	02002021 	move	a0,s0
800038e0:	0c000fc4 	jal	80003f10 <sscanf>
800038e4:	27a7002c 	addiu	a3,sp,44
800038e8:	184000ac 	blez	v0,80003b9c <_tzset_r+0x36c>
800038ec:	8faf002c 	lw	t7,44(sp)
800038f0:	240e002d 	li	t6,45
800038f4:	020f8021 	addu	s0,s0,t7
800038f8:	82030000 	lb	v1,0(s0)
800038fc:	106e0105 	beq	v1,t6,80003d14 <_tzset_r+0x4e4>
80003900:	24110001 	li	s1,1
80003904:	3873002b 	xori	s3,v1,0x2b
80003908:	26120001 	addiu	s2,s0,1
8000390c:	0253800a 	movz	s0,s2,s3
80003910:	27b4002c 	addiu	s4,sp,44
80003914:	3c158001 	lui	s5,0x8001
80003918:	02803821 	move	a3,s4
8000391c:	26a5eb18 	addiu	a1,s5,-5352
80003920:	27be0022 	addiu	s8,sp,34
80003924:	27b70024 	addiu	s7,sp,36
80003928:	02002021 	move	a0,s0
8000392c:	27a60020 	addiu	a2,sp,32
80003930:	afb40014 	sw	s4,20(sp)
80003934:	afb4001c 	sw	s4,28(sp)
80003938:	a7a00022 	sh	zero,34(sp)
8000393c:	a7a00024 	sh	zero,36(sp)
80003940:	afbe0010 	sw	s8,16(sp)
80003944:	0c000fc4 	jal	80003f10 <sscanf>
80003948:	afb70018 	sw	s7,24(sp)
8000394c:	18400093 	blez	v0,80003b9c <_tzset_r+0x36c>
80003950:	27b4002c 	addiu	s4,sp,44
80003954:	97ae0020 	lhu	t6,32(sp)
80003958:	97a80022 	lhu	t0,34(sp)
8000395c:	97a90024 	lhu	t1,36(sp)
80003960:	000e98c0 	sll	s3,t6,0x3
80003964:	026e9023 	subu	s2,s3,t6
80003968:	00126940 	sll	t5,s2,0x5
8000396c:	00087900 	sll	t7,t0,0x4
80003970:	01e86023 	subu	t4,t7,t0
80003974:	01ae5821 	addu	t3,t5,t6
80003978:	000c2080 	sll	a0,t4,0x2
8000397c:	000b5100 	sll	t2,t3,0x4
80003980:	008a3821 	addu	a3,a0,t2
80003984:	00e91021 	addu	v0,a3,t1
80003988:	7222c002 	mul	t8,s1,v0
8000398c:	8fa5002c 	lw	a1,44(sp)
80003990:	3c068001 	lui	a2,0x8001
80003994:	3c118001 	lui	s1,0x8001
80003998:	02058021 	addu	s0,s0,a1
8000399c:	24d3f760 	addiu	s3,a2,-2208
800039a0:	3c038001 	lui	v1,0x8001
800039a4:	2625eb08 	addiu	a1,s1,-5368
800039a8:	2479f750 	addiu	t9,v1,-2224
800039ac:	3c118001 	lui	s1,0x8001
800039b0:	3c168001 	lui	s6,0x8001
800039b4:	02803821 	move	a3,s4
800039b8:	02002021 	move	a0,s0
800039bc:	02603021 	move	a2,s3
800039c0:	ae39e8a4 	sw	t9,-5980(s1)
800039c4:	2632e8a4 	addiu	s2,s1,-5980
800039c8:	0c000fc4 	jal	80003f10 <sscanf>
800039cc:	aed8e8d4 	sw	t8,-5932(s6)
800039d0:	184000cd 	blez	v0,80003d08 <_tzset_r+0x4d8>
800039d4:	8fb6002c 	lw	s6,44(sp)
800039d8:	ae530004 	sw	s3,4(s2)
800039dc:	2415002d 	li	s5,45
800039e0:	02168021 	addu	s0,s0,s6
800039e4:	82030000 	lb	v1,0(s0)
800039e8:	107500c4 	beq	v1,s5,80003cfc <_tzset_r+0x4cc>
800039ec:	24110001 	li	s1,1
800039f0:	3879002b 	xori	t9,v1,0x2b
800039f4:	26180001 	addiu	t8,s0,1
800039f8:	0319800a 	movz	s0,t8,t9
800039fc:	3c038001 	lui	v1,0x8001
80003a00:	27a7002c 	addiu	a3,sp,44
80003a04:	2465eb18 	addiu	a1,v1,-5352
80003a08:	02002021 	move	a0,s0
80003a0c:	27a60020 	addiu	a2,sp,32
80003a10:	afb40014 	sw	s4,20(sp)
80003a14:	a7a00020 	sh	zero,32(sp)
80003a18:	a7a00022 	sh	zero,34(sp)
80003a1c:	a7a00024 	sh	zero,36(sp)
80003a20:	afbe0010 	sw	s8,16(sp)
80003a24:	afb70018 	sw	s7,24(sp)
80003a28:	0c000fc4 	jal	80003f10 <sscanf>
80003a2c:	afa7001c 	sw	a3,28(sp)
80003a30:	184000ac 	blez	v0,80003ce4 <_tzset_r+0x4b4>
80003a34:	97b20020 	lhu	s2,32(sp)
80003a38:	97b50022 	lhu	s5,34(sp)
80003a3c:	97ab0024 	lhu	t3,36(sp)
80003a40:	0012c0c0 	sll	t8,s2,0x3
80003a44:	0312b023 	subu	s6,t8,s2
80003a48:	00164140 	sll	t0,s6,0x5
80003a4c:	00159900 	sll	s3,s5,0x4
80003a50:	02757823 	subu	t7,s3,s5
80003a54:	01127021 	addu	t6,t0,s2
80003a58:	000f6080 	sll	t4,t7,0x2
80003a5c:	000e6900 	sll	t5,t6,0x4
80003a60:	018d5021 	addu	t2,t4,t5
80003a64:	014b2021 	addu	a0,t2,t3
80003a68:	72244802 	mul	t1,s1,a0
80003a6c:	3c078001 	lui	a3,0x8001
80003a70:	ace9e8f0 	sw	t1,-5904(a3)
80003a74:	8fb9002c 	lw	t9,44(sp)
80003a78:	3c168001 	lui	s6,0x8001
80003a7c:	26d6e8bc 	addiu	s6,s6,-5956
80003a80:	02c09021 	move	s2,s6
80003a84:	02198021 	addu	s0,s0,t9
80003a88:	0000a021 	move	s4,zero
80003a8c:	26d50010 	addiu	s5,s6,16
80003a90:	02c09821 	move	s3,s6
80003a94:	82050000 	lb	a1,0(s0)
80003a98:	26110001 	addiu	s1,s0,1
80003a9c:	2403004d 	li	v1,77
80003aa0:	38a6002c 	xori	a2,a1,0x2c
80003aa4:	0226800a 	movz	s0,s1,a2
80003aa8:	82110000 	lb	s1,0(s0)
80003aac:	1223006b 	beq	s1,v1,80003c5c <_tzset_r+0x42c>
80003ab0:	2408004a 	li	t0,74
80003ab4:	12280067 	beq	s1,t0,80003c54 <_tzset_r+0x424>
80003ab8:	2411004a 	li	s1,74
80003abc:	24110044 	li	s1,68
80003ac0:	02002021 	move	a0,s0
80003ac4:	27a50030 	addiu	a1,sp,48
80003ac8:	0c001103 	jal	8000440c <strtoul>
80003acc:	2406000a 	li	a2,10
80003ad0:	8fa40030 	lw	a0,48(sp)
80003ad4:	10900049 	beq	a0,s0,80003bfc <_tzset_r+0x3cc>
80003ad8:	a7a2002a 	sh	v0,42(sp)
80003adc:	304bffff 	andi	t3,v0,0xffff
80003ae0:	a2710000 	sb	s1,0(s3)
80003ae4:	ae6b000c 	sw	t3,12(s3)
80003ae8:	00808021 	move	s0,a0
80003aec:	240e0002 	li	t6,2
80003af0:	a7ae0020 	sh	t6,32(sp)
80003af4:	a7a00022 	sh	zero,34(sp)
80003af8:	a7a00024 	sh	zero,36(sp)
80003afc:	afa0002c 	sw	zero,44(sp)
80003b00:	820d0000 	lb	t5,0(s0)
80003b04:	240c002f 	li	t4,47
80003b08:	11ac0030 	beq	t5,t4,80003bcc <_tzset_r+0x39c>
80003b0c:	27af002c 	addiu	t7,sp,44
80003b10:	97ac0020 	lhu	t4,32(sp)
80003b14:	97a30022 	lhu	v1,34(sp)
80003b18:	97a70024 	lhu	a3,36(sp)
80003b1c:	000c78c0 	sll	t7,t4,0x3
80003b20:	01ec7023 	subu	t6,t7,t4
80003b24:	000e5940 	sll	t3,t6,0x5
80003b28:	00036900 	sll	t5,v1,0x4
80003b2c:	01a35023 	subu	t2,t5,v1
80003b30:	016c4821 	addu	t1,t3,t4
80003b34:	000a3080 	sll	a2,t2,0x2
80003b38:	00092900 	sll	a1,t1,0x4
80003b3c:	00c58821 	addu	s1,a2,a1
80003b40:	0227c821 	addu	t9,s1,a3
80003b44:	aeb90000 	sw	t9,0(s5)
80003b48:	8fa4002c 	lw	a0,44(sp)
80003b4c:	26940001 	addiu	s4,s4,1
80003b50:	2a980002 	slti	t8,s4,2
80003b54:	02048021 	addu	s0,s0,a0
80003b58:	26b5001c 	addiu	s5,s5,28
80003b5c:	2673001c 	addiu	s3,s3,28
80003b60:	1700ffcc 	bnez	t8,80003a94 <_tzset_r+0x264>
80003b64:	2652001c 	addiu	s2,s2,28
80003b68:	3c088001 	lui	t0,0x8001
80003b6c:	8d04e8b4 	lw	a0,-5964(t0)
80003b70:	3c108001 	lui	s0,0x8001
80003b74:	0c000cc6 	jal	80003318 <__tzcalc_limits>
80003b78:	2616e8bc 	addiu	s6,s0,-5956
80003b7c:	8ede0018 	lw	s8,24(s6)
80003b80:	8ed50034 	lw	s5,52(s6)
80003b84:	3c148001 	lui	s4,0x8001
80003b88:	3c178001 	lui	s7,0x8001
80003b8c:	03d59826 	xor	s3,s8,s5
80003b90:	0013902b 	sltu	s2,zero,s3
80003b94:	ae92e8ac 	sw	s2,-5972(s4)
80003b98:	aefee8b0 	sw	s8,-5968(s7)
80003b9c:	8fbf005c 	lw	ra,92(sp)
80003ba0:	8fbe0058 	lw	s8,88(sp)
80003ba4:	8fb70054 	lw	s7,84(sp)
80003ba8:	8fb60050 	lw	s6,80(sp)
80003bac:	8fb5004c 	lw	s5,76(sp)
80003bb0:	8fb40048 	lw	s4,72(sp)
80003bb4:	8fb30044 	lw	s3,68(sp)
80003bb8:	8fb20040 	lw	s2,64(sp)
80003bbc:	8fb1003c 	lw	s1,60(sp)
80003bc0:	8fb00038 	lw	s0,56(sp)
80003bc4:	03e00008 	jr	ra
80003bc8:	27bd0060 	addiu	sp,sp,96
80003bcc:	3c088001 	lui	t0,0x8001
80003bd0:	02002021 	move	a0,s0
80003bd4:	2505eb2c 	addiu	a1,t0,-5332
80003bd8:	27a60020 	addiu	a2,sp,32
80003bdc:	01e03821 	move	a3,t7
80003be0:	afaf0014 	sw	t7,20(sp)
80003be4:	afbe0010 	sw	s8,16(sp)
80003be8:	afb70018 	sw	s7,24(sp)
80003bec:	0c000fc4 	jal	80003f10 <sscanf>
80003bf0:	afaf001c 	sw	t7,28(sp)
80003bf4:	08000ec5 	j	80003b14 <_tzset_r+0x2e4>
80003bf8:	97ac0020 	lhu	t4,32(sp)
80003bfc:	1680000e 	bnez	s4,80003c38 <_tzset_r+0x408>
80003c00:	240a004d 	li	t2,77
80003c04:	3c038001 	lui	v1,0x8001
80003c08:	3c198001 	lui	t9,0x8001
80003c0c:	2730e8bc 	addiu	s0,t9,-5956
80003c10:	2407004d 	li	a3,77
80003c14:	3c058001 	lui	a1,0x8001
80003c18:	24060004 	li	a2,4
80003c1c:	2471e8bc 	addiu	s1,v1,-5956
80003c20:	24180001 	li	t8,1
80003c24:	a0a7e8bc 	sb	a3,-5956(a1)
80003c28:	ae260004 	sw	a2,4(s1)
80003c2c:	ae180008 	sw	t8,8(s0)
80003c30:	08000eba 	j	80003ae8 <_tzset_r+0x2b8>
80003c34:	ae00000c 	sw	zero,12(s0)
80003c38:	2402000a 	li	v0,10
80003c3c:	24090005 	li	t1,5
80003c40:	a2ca001c 	sb	t2,28(s6)
80003c44:	aec20020 	sw	v0,32(s6)
80003c48:	aec90024 	sw	t1,36(s6)
80003c4c:	08000eba 	j	80003ae8 <_tzset_r+0x2b8>
80003c50:	aec00028 	sw	zero,40(s6)
80003c54:	08000eb0 	j	80003ac0 <_tzset_r+0x290>
80003c58:	26100001 	addiu	s0,s0,1
80003c5c:	27ab002c 	addiu	t3,sp,44
80003c60:	3c0c8001 	lui	t4,0x8001
80003c64:	01603821 	move	a3,t3
80003c68:	27aa0028 	addiu	t2,sp,40
80003c6c:	27a2002a 	addiu	v0,sp,42
80003c70:	02002021 	move	a0,s0
80003c74:	2585eb40 	addiu	a1,t4,-5312
80003c78:	27a60026 	addiu	a2,sp,38
80003c7c:	afab0014 	sw	t3,20(sp)
80003c80:	afaa0010 	sw	t2,16(sp)
80003c84:	afa20018 	sw	v0,24(sp)
80003c88:	0c000fc4 	jal	80003f10 <sscanf>
80003c8c:	afab001c 	sw	t3,28(sp)
80003c90:	24070003 	li	a3,3
80003c94:	1447ffc1 	bne	v0,a3,80003b9c <_tzset_r+0x36c>
80003c98:	97a40026 	lhu	a0,38(sp)
80003c9c:	1080ffbf 	beqz	a0,80003b9c <_tzset_r+0x36c>
80003ca0:	2c8d000d 	sltiu	t5,a0,13
80003ca4:	11a0ffbd 	beqz	t5,80003b9c <_tzset_r+0x36c>
80003ca8:	97a30028 	lhu	v1,40(sp)
80003cac:	1060ffbb 	beqz	v1,80003b9c <_tzset_r+0x36c>
80003cb0:	2c6e0006 	sltiu	t6,v1,6
80003cb4:	11c0ffb9 	beqz	t6,80003b9c <_tzset_r+0x36c>
80003cb8:	97a5002a 	lhu	a1,42(sp)
80003cbc:	2caf0007 	sltiu	t7,a1,7
80003cc0:	11e0ffb7 	beqz	t7,80003ba0 <_tzset_r+0x370>
80003cc4:	8fbf005c 	lw	ra,92(sp)
80003cc8:	a2510000 	sb	s1,0(s2)
80003ccc:	ae440004 	sw	a0,4(s2)
80003cd0:	8fa4002c 	lw	a0,44(sp)
80003cd4:	ae430008 	sw	v1,8(s2)
80003cd8:	ae45000c 	sw	a1,12(s2)
80003cdc:	08000ebb 	j	80003aec <_tzset_r+0x2bc>
80003ce0:	02048021 	addu	s0,s0,a0
80003ce4:	3c028001 	lui	v0,0x8001
80003ce8:	2451e8bc 	addiu	s1,v0,-5956
80003cec:	8e250018 	lw	a1,24(s1)
80003cf0:	24a6f1f0 	addiu	a2,a1,-3600
80003cf4:	08000e9d 	j	80003a74 <_tzset_r+0x244>
80003cf8:	ae260034 	sw	a2,52(s1)
80003cfc:	2411ffff 	li	s1,-1
80003d00:	08000e7f 	j	800039fc <_tzset_r+0x1cc>
80003d04:	26100001 	addiu	s0,s0,1
80003d08:	8e30e8a4 	lw	s0,-5980(s1)
80003d0c:	08000ee7 	j	80003b9c <_tzset_r+0x36c>
80003d10:	ae500004 	sw	s0,4(s2)
80003d14:	2411ffff 	li	s1,-1
80003d18:	08000e44 	j	80003910 <_tzset_r+0xe0>
80003d1c:	26100001 	addiu	s0,s0,1
80003d20:	00402021 	move	a0,v0
80003d24:	0c001024 	jal	80004090 <strcpy>
80003d28:	02002821 	move	a1,s0
80003d2c:	08000e30 	j	800038c0 <_tzset_r+0x90>
80003d30:	820d0000 	lb	t5,0(s0)
80003d34:	3c068001 	lui	a2,0x8001
80003d38:	3c088001 	lui	t0,0x8001
80003d3c:	2505eb00 	addiu	a1,t0,-5376
80003d40:	24c7e8a4 	addiu	a3,a2,-5980
80003d44:	3c028001 	lui	v0,0x8001
80003d48:	3c038001 	lui	v1,0x8001
80003d4c:	ace50004 	sw	a1,4(a3)
80003d50:	ac40e8b0 	sw	zero,-5968(v0)
80003d54:	ac60e8ac 	sw	zero,-5972(v1)
80003d58:	08000ee7 	j	80003b9c <_tzset_r+0x36c>
80003d5c:	acc5e8a4 	sw	a1,-5980(a2)

80003d60 <div>:
80003d60:	00a6001a 	div	zero,a1,a2
80003d64:	27bdfff8 	addiu	sp,sp,-8
80003d68:	50c00001 	beqzl	a2,80003d70 <div+0x10>
80003d6c:	0000018d 	break	0x6
80003d70:	00803821 	move	a3,a0
80003d74:	00001010 	mfhi	v0
80003d78:	00001812 	mflo	v1
80003d7c:	afa30000 	sw	v1,0(sp)
80003d80:	04a0000e 	bltz	a1,80003dbc <div+0x5c>
80003d84:	afa20004 	sw	v0,4(sp)
80003d88:	00463023 	subu	a2,v0,a2
80003d8c:	04400008 	bltz	v0,80003db0 <div+0x50>
80003d90:	24650001 	addiu	a1,v1,1
80003d94:	8fa40000 	lw	a0,0(sp)
80003d98:	00e01021 	move	v0,a3
80003d9c:	ace40000 	sw	a0,0(a3)
80003da0:	8fa30004 	lw	v1,4(sp)
80003da4:	ace30004 	sw	v1,4(a3)
80003da8:	03e00008 	jr	ra
80003dac:	27bd0008 	addiu	sp,sp,8
80003db0:	afa50000 	sw	a1,0(sp)
80003db4:	08000f65 	j	80003d94 <div+0x34>
80003db8:	afa60004 	sw	a2,4(sp)
80003dbc:	00463021 	addu	a2,v0,a2
80003dc0:	1c40fffb 	bgtz	v0,80003db0 <div+0x50>
80003dc4:	2465ffff 	addiu	a1,v1,-1
80003dc8:	08000f66 	j	80003d98 <div+0x38>
80003dcc:	8fa40000 	lw	a0,0(sp)

80003dd0 <_findenv_r>:
80003dd0:	27bdffd0 	addiu	sp,sp,-48
80003dd4:	afb60028 	sw	s6,40(sp)
80003dd8:	afb50024 	sw	s5,36(sp)
80003ddc:	afb40020 	sw	s4,32(sp)
80003de0:	0080a821 	move	s5,a0
80003de4:	afbf002c 	sw	ra,44(sp)
80003de8:	afb3001c 	sw	s3,28(sp)
80003dec:	afb20018 	sw	s2,24(sp)
80003df0:	afb10014 	sw	s1,20(sp)
80003df4:	afb00010 	sw	s0,16(sp)
80003df8:	00a0a021 	move	s4,a1
80003dfc:	0c001594 	jal	80005650 <__env_lock>
80003e00:	00c0b021 	move	s6,a2
80003e04:	3c038001 	lui	v1,0x8001
80003e08:	8c64e910 	lw	a0,-5872(v1)
80003e0c:	8c820000 	lw	v0,0(a0)
80003e10:	10400022 	beqz	v0,80003e9c <_findenv_r+0xcc>
80003e14:	02808821 	move	s1,s4
80003e18:	82830000 	lb	v1,0(s4)
80003e1c:	1060000a 	beqz	v1,80003e48 <_findenv_r+0x78>
80003e20:	00009021 	move	s2,zero
80003e24:	240a003d 	li	t2,61
80003e28:	106a0007 	beq	v1,t2,80003e48 <_findenv_r+0x78>
80003e2c:	2403003d 	li	v1,61
80003e30:	26310001 	addiu	s1,s1,1
80003e34:	82220000 	lb	v0,0(s1)
80003e38:	10400003 	beqz	v0,80003e48 <_findenv_r+0x78>
80003e3c:	26520001 	addiu	s2,s2,1
80003e40:	5443fffc 	bnel	v0,v1,80003e34 <_findenv_r+0x64>
80003e44:	26310001 	addiu	s1,s1,1
80003e48:	3c0d8001 	lui	t5,0x8001
80003e4c:	8dace910 	lw	t4,-5872(t5)
80003e50:	8d900000 	lw	s0,0(t4)
80003e54:	8e0b0000 	lw	t3,0(s0)
80003e58:	11600010 	beqz	t3,80003e9c <_findenv_r+0xcc>
80003e5c:	2413003d 	li	s3,61
80003e60:	8e040000 	lw	a0,0(s0)
80003e64:	02802821 	move	a1,s4
80003e68:	0c001054 	jal	80004150 <strncmp>
80003e6c:	02403021 	move	a2,s2
80003e70:	54400007 	bnezl	v0,80003e90 <_findenv_r+0xc0>
80003e74:	26100004 	addiu	s0,s0,4
80003e78:	8e0e0000 	lw	t6,0(s0)
80003e7c:	01d28821 	addu	s1,t6,s2
80003e80:	82220000 	lb	v0,0(s1)
80003e84:	10530012 	beq	v0,s3,80003ed0 <_findenv_r+0x100>
80003e88:	3c098001 	lui	t1,0x8001
80003e8c:	26100004 	addiu	s0,s0,4
80003e90:	8e0f0000 	lw	t7,0(s0)
80003e94:	55e0fff3 	bnezl	t7,80003e64 <_findenv_r+0x94>
80003e98:	8e040000 	lw	a0,0(s0)
80003e9c:	0c001596 	jal	80005658 <__env_unlock>
80003ea0:	02a02021 	move	a0,s5
80003ea4:	00001021 	move	v0,zero
80003ea8:	8fbf002c 	lw	ra,44(sp)
80003eac:	8fb60028 	lw	s6,40(sp)
80003eb0:	8fb50024 	lw	s5,36(sp)
80003eb4:	8fb40020 	lw	s4,32(sp)
80003eb8:	8fb3001c 	lw	s3,28(sp)
80003ebc:	8fb20018 	lw	s2,24(sp)
80003ec0:	8fb10014 	lw	s1,20(sp)
80003ec4:	8fb00010 	lw	s0,16(sp)
80003ec8:	03e00008 	jr	ra
80003ecc:	27bd0030 	addiu	sp,sp,48
80003ed0:	8d28e910 	lw	t0,-5872(t1)
80003ed4:	02a02021 	move	a0,s5
80003ed8:	8d070000 	lw	a3,0(t0)
80003edc:	02073023 	subu	a2,s0,a3
80003ee0:	00062883 	sra	a1,a2,0x2
80003ee4:	0c001596 	jal	80005658 <__env_unlock>
80003ee8:	aec50000 	sw	a1,0(s6)
80003eec:	08000faa 	j	80003ea8 <_findenv_r+0xd8>
80003ef0:	26220001 	addiu	v0,s1,1

80003ef4 <_getenv_r>:
80003ef4:	27bdffe0 	addiu	sp,sp,-32
80003ef8:	afbf0018 	sw	ra,24(sp)
80003efc:	0c000f74 	jal	80003dd0 <_findenv_r>
80003f00:	27a60010 	addiu	a2,sp,16
80003f04:	8fbf0018 	lw	ra,24(sp)
80003f08:	03e00008 	jr	ra
80003f0c:	27bd0020 	addiu	sp,sp,32

80003f10 <sscanf>:
80003f10:	afa50004 	sw	a1,4(sp)
80003f14:	afa60008 	sw	a2,8(sp)
80003f18:	afa7000c 	sw	a3,12(sp)
80003f1c:	24030204 	li	v1,516
80003f20:	27bdff90 	addiu	sp,sp,-112
80003f24:	afbf006c 	sw	ra,108(sp)
80003f28:	afb00068 	sw	s0,104(sp)
80003f2c:	a7a3001c 	sh	v1,28(sp)
80003f30:	00a08021 	move	s0,a1
80003f34:	afa40020 	sw	a0,32(sp)
80003f38:	0c00104c 	jal	80004130 <strlen>
80003f3c:	afa40010 	sw	a0,16(sp)
80003f40:	3c058001 	lui	a1,0x8001
80003f44:	8ca4e348 	lw	a0,-7352(a1)
80003f48:	3c098000 	lui	t1,0x8000
80003f4c:	02003021 	move	a2,s0
80003f50:	25284010 	addiu	t0,t1,16400
80003f54:	2403ffff 	li	v1,-1
80003f58:	27a70078 	addiu	a3,sp,120
80003f5c:	27a50010 	addiu	a1,sp,16
80003f60:	afa20024 	sw	v0,36(sp)
80003f64:	afa80030 	sw	t0,48(sp)
80003f68:	a7a3001e 	sh	v1,30(sp)
80003f6c:	afa20014 	sw	v0,20(sp)
80003f70:	afa00040 	sw	zero,64(sp)
80003f74:	0c001110 	jal	80004440 <__svfscanf_r>
80003f78:	afa00054 	sw	zero,84(sp)
80003f7c:	8fbf006c 	lw	ra,108(sp)
80003f80:	8fb00068 	lw	s0,104(sp)
80003f84:	03e00008 	jr	ra
80003f88:	27bd0070 	addiu	sp,sp,112

80003f8c <_sscanf_r>:
80003f8c:	afa60008 	sw	a2,8(sp)
80003f90:	afa7000c 	sw	a3,12(sp)
80003f94:	27bdff88 	addiu	sp,sp,-120
80003f98:	afb1006c 	sw	s1,108(sp)
80003f9c:	24030204 	li	v1,516
80003fa0:	00808821 	move	s1,a0
80003fa4:	00a02021 	move	a0,a1
80003fa8:	afbf0070 	sw	ra,112(sp)
80003fac:	afb00068 	sw	s0,104(sp)
80003fb0:	a7a3001c 	sh	v1,28(sp)
80003fb4:	00c08021 	move	s0,a2
80003fb8:	afa50010 	sw	a1,16(sp)
80003fbc:	0c00104c 	jal	80004130 <strlen>
80003fc0:	afa50020 	sw	a1,32(sp)
80003fc4:	3c098000 	lui	t1,0x8000
80003fc8:	02202021 	move	a0,s1
80003fcc:	02003021 	move	a2,s0
80003fd0:	25284010 	addiu	t0,t1,16400
80003fd4:	2403ffff 	li	v1,-1
80003fd8:	27a70084 	addiu	a3,sp,132
80003fdc:	27a50010 	addiu	a1,sp,16
80003fe0:	afa20024 	sw	v0,36(sp)
80003fe4:	afa80030 	sw	t0,48(sp)
80003fe8:	a7a3001e 	sh	v1,30(sp)
80003fec:	afa20014 	sw	v0,20(sp)
80003ff0:	afa00040 	sw	zero,64(sp)
80003ff4:	0c001110 	jal	80004440 <__svfscanf_r>
80003ff8:	afa00054 	sw	zero,84(sp)
80003ffc:	8fbf0070 	lw	ra,112(sp)
80004000:	8fb1006c 	lw	s1,108(sp)
80004004:	8fb00068 	lw	s0,104(sp)
80004008:	03e00008 	jr	ra
8000400c:	27bd0078 	addiu	sp,sp,120

80004010 <eofread>:
80004010:	03e00008 	jr	ra
80004014:	00001021 	move	v0,zero
	...

80004020 <strcmp>:
80004020:	00853025 	or	a2,a0,a1
80004024:	30c30001 	andi	v1,a2,0x1
80004028:	1460000f 	bnez	v1,80004068 <strcmp+0x48>
8000402c:	90820000 	lbu	v0,0(a0)
80004030:	90a30000 	lbu	v1,0(a1)
80004034:	1040000a 	beqz	v0,80004060 <strcmp+0x40>
80004038:	24840002 	addiu	a0,a0,2
8000403c:	14430008 	bne	v0,v1,80004060 <strcmp+0x40>
80004040:	9086ffff 	lbu	a2,-1(a0)
80004044:	90a30001 	lbu	v1,1(a1)
80004048:	10c00003 	beqz	a2,80004058 <strcmp+0x38>
8000404c:	24a50002 	addiu	a1,a1,2
80004050:	10c3fff7 	beq	a2,v1,80004030 <strcmp+0x10>
80004054:	90820000 	lbu	v0,0(a0)
80004058:	03e00008 	jr	ra
8000405c:	00c31023 	subu	v0,a2,v1
80004060:	03e00008 	jr	ra
80004064:	00431023 	subu	v0,v0,v1
80004068:	90a30000 	lbu	v1,0(a1)
8000406c:	24840001 	addiu	a0,a0,1
80004070:	1040fffb 	beqz	v0,80004060 <strcmp+0x40>
80004074:	24a50001 	addiu	a1,a1,1
80004078:	5043fffb 	beql	v0,v1,80004068 <strcmp+0x48>
8000407c:	90820000 	lbu	v0,0(a0)
80004080:	08001018 	j	80004060 <strcmp+0x40>
80004084:	00000000 	nop
	...

80004090 <strcpy>:
80004090:	00a41825 	or	v1,a1,a0
80004094:	00805021 	move	t2,a0
80004098:	30640003 	andi	a0,v1,0x3
8000409c:	1480001b 	bnez	a0,8000410c <strcpy+0x7c>
800040a0:	01401821 	move	v1,t2
800040a4:	8ca70000 	lw	a3,0(a1)
800040a8:	3c0dfefe 	lui	t5,0xfefe
800040ac:	35acfeff 	ori	t4,t5,0xfeff
800040b0:	00ec4821 	addu	t1,a3,t4
800040b4:	00075827 	nor	t3,zero,a3
800040b8:	3c088080 	lui	t0,0x8080
800040bc:	012b3024 	and	a2,t1,t3
800040c0:	35038080 	ori	v1,t0,0x8080
800040c4:	00c32024 	and	a0,a2,v1
800040c8:	1480000f 	bnez	a0,80004108 <strcpy+0x78>
800040cc:	01403021 	move	a2,t2
800040d0:	3c02fefe 	lui	v0,0xfefe
800040d4:	00e02021 	move	a0,a3
800040d8:	3449feff 	ori	t1,v0,0xfeff
800040dc:	00604021 	move	t0,v1
800040e0:	acc40000 	sw	a0,0(a2)
800040e4:	24a50004 	addiu	a1,a1,4
800040e8:	8cb90000 	lw	t9,0(a1)
800040ec:	24c60004 	addiu	a2,a2,4
800040f0:	03297821 	addu	t7,t9,t1
800040f4:	0019c027 	nor	t8,zero,t9
800040f8:	01f87024 	and	t6,t7,t8
800040fc:	01c83824 	and	a3,t6,t0
80004100:	10e0fff7 	beqz	a3,800040e0 <strcpy+0x50>
80004104:	03202021 	move	a0,t9
80004108:	00c01821 	move	v1,a2
8000410c:	90a40000 	lbu	a0,0(a1)
80004110:	24a50001 	addiu	a1,a1,1
80004114:	a0640000 	sb	a0,0(v1)
80004118:	1480fffc 	bnez	a0,8000410c <strcpy+0x7c>
8000411c:	24630001 	addiu	v1,v1,1
80004120:	03e00008 	jr	ra
80004124:	01401021 	move	v0,t2
	...

80004130 <strlen>:
80004130:	24820001 	addiu	v0,a0,1
80004134:	90830000 	lbu	v1,0(a0)
80004138:	1460fffe 	bnez	v1,80004134 <strlen+0x4>
8000413c:	24840001 	addiu	a0,a0,1
80004140:	03e00008 	jr	ra
80004144:	00821023 	subu	v0,a0,v0
	...

80004150 <strncmp>:
80004150:	10c0001c 	beqz	a2,800041c4 <strncmp+0x74>
80004154:	00001021 	move	v0,zero
80004158:	00853825 	or	a3,a0,a1
8000415c:	30e30003 	andi	v1,a3,0x3
80004160:	1460000c 	bnez	v1,80004194 <strncmp+0x44>
80004164:	00c04021 	move	t0,a2
80004168:	2cc30004 	sltiu	v1,a2,4
8000416c:	00803821 	move	a3,a0
80004170:	14600005 	bnez	v1,80004188 <strncmp+0x38>
80004174:	00a04021 	move	t0,a1
80004178:	8c820000 	lw	v0,0(a0)
8000417c:	8ca40000 	lw	a0,0(a1)
80004180:	10440026 	beq	v0,a0,8000421c <strncmp+0xcc>
80004184:	3c05fefe 	lui	a1,0xfefe
80004188:	00e02021 	move	a0,a3
8000418c:	01002821 	move	a1,t0
80004190:	00c04021 	move	t0,a2
80004194:	1100001e 	beqz	t0,80004210 <strncmp+0xc0>
80004198:	24c6ffff 	addiu	a2,a2,-1
8000419c:	90870000 	lbu	a3,0(a0)
800041a0:	80aa0000 	lb	t2,0(a1)
800041a4:	90a80000 	lbu	t0,0(a1)
800041a8:	00074e00 	sll	t1,a3,0x18
800041ac:	00091e03 	sra	v1,t1,0x18
800041b0:	106a0006 	beq	v1,t2,800041cc <strncmp+0x7c>
800041b4:	00e04821 	move	t1,a3
800041b8:	30e400ff 	andi	a0,a3,0xff
800041bc:	310600ff 	andi	a2,t0,0xff
800041c0:	00861023 	subu	v0,a0,a2
800041c4:	03e00008 	jr	ra
800041c8:	00000000 	nop
800041cc:	24840001 	addiu	a0,a0,1
800041d0:	24a50001 	addiu	a1,a1,1
800041d4:	10c0000c 	beqz	a2,80004208 <strncmp+0xb8>
800041d8:	00091600 	sll	v0,t1,0x18
800041dc:	1040000a 	beqz	v0,80004208 <strncmp+0xb8>
800041e0:	24c6ffff 	addiu	a2,a2,-1
800041e4:	90870000 	lbu	a3,0(a0)
800041e8:	80ab0000 	lb	t3,0(a1)
800041ec:	90a80000 	lbu	t0,0(a1)
800041f0:	00076e00 	sll	t5,a3,0x18
800041f4:	000d6603 	sra	t4,t5,0x18
800041f8:	118bfff4 	beq	t4,t3,800041cc <strncmp+0x7c>
800041fc:	00e04821 	move	t1,a3
80004200:	0800106f 	j	800041bc <strncmp+0x6c>
80004204:	30e400ff 	andi	a0,a3,0xff
80004208:	03e00008 	jr	ra
8000420c:	00001021 	move	v0,zero
80004210:	90870000 	lbu	a3,0(a0)
80004214:	0800106e 	j	800041b8 <strncmp+0x68>
80004218:	90a80000 	lbu	t0,0(a1)
8000421c:	3c0a8080 	lui	t2,0x8080
80004220:	34a9feff 	ori	t1,a1,0xfeff
80004224:	35458080 	ori	a1,t2,0x8080
80004228:	24c6fffc 	addiu	a2,a2,-4
8000422c:	10c0fff6 	beqz	a2,80004208 <strncmp+0xb8>
80004230:	2cc40004 	sltiu	a0,a2,4
80004234:	8cef0000 	lw	t7,0(a3)
80004238:	25080004 	addiu	t0,t0,4
8000423c:	000f7027 	nor	t6,zero,t7
80004240:	01e96821 	addu	t5,t7,t1
80004244:	01ae6024 	and	t4,t5,t6
80004248:	01855824 	and	t3,t4,a1
8000424c:	1560ffee 	bnez	t3,80004208 <strncmp+0xb8>
80004250:	24e70004 	addiu	a3,a3,4
80004254:	5480ffcd 	bnezl	a0,8000418c <strncmp+0x3c>
80004258:	00e02021 	move	a0,a3
8000425c:	8cf90000 	lw	t9,0(a3)
80004260:	8d180000 	lw	t8,0(t0)
80004264:	5338fff1 	beql	t9,t8,8000422c <strncmp+0xdc>
80004268:	24c6fffc 	addiu	a2,a2,-4
8000426c:	08001063 	j	8000418c <strncmp+0x3c>
80004270:	00e02021 	move	a0,a3
	...

80004280 <_strtoul_r>:
80004280:	3c038001 	lui	v1,0x8001
80004284:	0080c021 	move	t8,a0
80004288:	00a04821 	move	t1,a1
8000428c:	2464ebe0 	addiu	a0,v1,-5152
80004290:	00007821 	move	t7,zero
80004294:	81280000 	lb	t0,0(t1)
80004298:	01041021 	addu	v0,t0,a0
8000429c:	904a0000 	lbu	t2,0(v0)
800042a0:	31430008 	andi	v1,t2,0x8
800042a4:	1460fffb 	bnez	v1,80004294 <_strtoul_r+0x14>
800042a8:	25290001 	addiu	t1,t1,1
800042ac:	2404002d 	li	a0,45
800042b0:	11040053 	beq	t0,a0,80004400 <_strtoul_r+0x180>
800042b4:	240b002b 	li	t3,43
800042b8:	510b004f 	beql	t0,t3,800043f8 <_strtoul_r+0x178>
800042bc:	81280000 	lb	t0,0(t1)
800042c0:	10e00042 	beqz	a3,800043cc <_strtoul_r+0x14c>
800042c4:	240d0030 	li	t5,48
800042c8:	240c0010 	li	t4,16
800042cc:	10ec003f 	beq	a3,t4,800043cc <_strtoul_r+0x14c>
800042d0:	00000000 	nop
800042d4:	14e00005 	bnez	a3,800042ec <_strtoul_r+0x6c>
800042d8:	2404ffff 	li	a0,-1
800042dc:	24070008 	li	a3,8
800042e0:	39020030 	xori	v0,t0,0x30
800042e4:	240a000a 	li	t2,10
800042e8:	0142380b 	movn	a3,t2,v0
800042ec:	0087001b 	divu	zero,a0,a3
800042f0:	3c038001 	lui	v1,0x8001
800042f4:	50e00001 	beqzl	a3,800042fc <_strtoul_r+0x7c>
800042f8:	0000018d 	break	0x6
800042fc:	246debe0 	addiu	t5,v1,-5152
80004300:	00005021 	move	t2,zero
80004304:	00005821 	move	t3,zero
80004308:	00007010 	mfhi	t6
8000430c:	00006012 	mflo	t4
80004310:	010d1821 	addu	v1,t0,t5
80004314:	90640000 	lbu	a0,0(v1)
80004318:	30990004 	andi	t9,a0,0x4
8000431c:	13200024 	beqz	t9,800043b0 <_strtoul_r+0x130>
80004320:	30990003 	andi	t9,a0,0x3
80004324:	2508ffd0 	addiu	t0,t0,-48
80004328:	0107202a 	slt	a0,t0,a3
8000432c:	10800012 	beqz	a0,80004378 <_strtoul_r+0xf8>
80004330:	00000000 	nop
80004334:	05600009 	bltz	t3,8000435c <_strtoul_r+0xdc>
80004338:	240bffff 	li	t3,-1
8000433c:	018a582b 	sltu	t3,t4,t2
80004340:	15600006 	bnez	t3,8000435c <_strtoul_r+0xdc>
80004344:	240bffff 	li	t3,-1
80004348:	114c0007 	beq	t2,t4,80004368 <_strtoul_r+0xe8>
8000434c:	01c8c82a 	slt	t9,t6,t0
80004350:	71471802 	mul	v1,t2,a3
80004354:	240b0001 	li	t3,1
80004358:	00685021 	addu	t2,v1,t0
8000435c:	81280000 	lb	t0,0(t1)
80004360:	080010c4 	j	80004310 <_strtoul_r+0x90>
80004364:	25290001 	addiu	t1,t1,1
80004368:	1320fffa 	beqz	t9,80004354 <_strtoul_r+0xd4>
8000436c:	71471802 	mul	v1,t2,a3
80004370:	080010d7 	j	8000435c <_strtoul_r+0xdc>
80004374:	240bffff 	li	t3,-1
80004378:	05600009 	bltz	t3,800043a0 <_strtoul_r+0x120>
8000437c:	000a4023 	negu	t0,t2
80004380:	010f500b 	movn	t2,t0,t7
80004384:	10c00004 	beqz	a2,80004398 <_strtoul_r+0x118>
80004388:	00000000 	nop
8000438c:	252fffff 	addiu	t7,t1,-1
80004390:	01eb280b 	movn	a1,t7,t3
80004394:	acc50000 	sw	a1,0(a2)
80004398:	03e00008 	jr	ra
8000439c:	01401021 	move	v0,t2
800043a0:	24070022 	li	a3,34
800043a4:	240affff 	li	t2,-1
800043a8:	080010e1 	j	80004384 <_strtoul_r+0x104>
800043ac:	af070000 	sw	a3,0(t8)
800043b0:	1320fff1 	beqz	t9,80004378 <_strtoul_r+0xf8>
800043b4:	2502ffc9 	addiu	v0,t0,-55
800043b8:	2519ffa9 	addiu	t9,t0,-87
800043bc:	30830001 	andi	v1,a0,0x1
800043c0:	00404021 	move	t0,v0
800043c4:	080010ca 	j	80004328 <_strtoul_r+0xa8>
800043c8:	0323400a 	movz	t0,t9,v1
800043cc:	150dffc1 	bne	t0,t5,800042d4 <_strtoul_r+0x54>
800043d0:	240e0078 	li	t6,120
800043d4:	81230000 	lb	v1,0(t1)
800043d8:	106e0003 	beq	v1,t6,800043e8 <_strtoul_r+0x168>
800043dc:	24190058 	li	t9,88
800043e0:	1479ffbc 	bne	v1,t9,800042d4 <_strtoul_r+0x54>
800043e4:	00000000 	nop
800043e8:	81280001 	lb	t0,1(t1)
800043ec:	24070010 	li	a3,16
800043f0:	080010b5 	j	800042d4 <_strtoul_r+0x54>
800043f4:	25290002 	addiu	t1,t1,2
800043f8:	080010b0 	j	800042c0 <_strtoul_r+0x40>
800043fc:	25290001 	addiu	t1,t1,1
80004400:	81280000 	lb	t0,0(t1)
80004404:	080010fe 	j	800043f8 <_strtoul_r+0x178>
80004408:	240f0001 	li	t7,1

8000440c <strtoul>:
8000440c:	3c078001 	lui	a3,0x8001
80004410:	00801821 	move	v1,a0
80004414:	8ce4e348 	lw	a0,-7352(a3)
80004418:	00a01021 	move	v0,a1
8000441c:	27bdffe8 	addiu	sp,sp,-24
80004420:	00c03821 	move	a3,a2
80004424:	00602821 	move	a1,v1
80004428:	afbf0010 	sw	ra,16(sp)
8000442c:	0c0010a0 	jal	80004280 <_strtoul_r>
80004430:	00403021 	move	a2,v0
80004434:	8fbf0010 	lw	ra,16(sp)
80004438:	03e00008 	jr	ra
8000443c:	27bd0018 	addiu	sp,sp,24

80004440 <__svfscanf_r>:
80004440:	27bdfd28 	addiu	sp,sp,-728
80004444:	afbe02c8 	sw	s8,712(sp)
80004448:	afb502bc 	sw	s5,700(sp)
8000444c:	afb302b4 	sw	s3,692(sp)
80004450:	afb202b0 	sw	s2,688(sp)
80004454:	afbf02cc 	sw	ra,716(sp)
80004458:	afb702c4 	sw	s7,708(sp)
8000445c:	afb602c0 	sw	s6,704(sp)
80004460:	afb402b8 	sw	s4,696(sp)
80004464:	afb102ac 	sw	s1,684(sp)
80004468:	afb002a8 	sw	s0,680(sp)
8000446c:	f7b402d0 	sdc1	$f20,720(sp)
80004470:	afa402d8 	sw	a0,728(sp)
80004474:	00a09021 	move	s2,a1
80004478:	00e0f021 	move	s8,a3
8000447c:	00c09821 	move	s3,a2
80004480:	afa00288 	sw	zero,648(sp)
80004484:	afa0028c 	sw	zero,652(sp)
80004488:	afa00284 	sw	zero,644(sp)
8000448c:	0000a821 	move	s5,zero
80004490:	82630000 	lb	v1,0(s3)
80004494:	26730001 	addiu	s3,s3,1
80004498:	00602021 	move	a0,v1
8000449c:	1060002f 	beqz	v1,8000455c <__svfscanf_r+0x11c>
800044a0:	afa30280 	sw	v1,640(sp)
800044a4:	24030001 	li	v1,1
800044a8:	14630007 	bne	v1,v1,800044c8 <__svfscanf_r+0x88>
800044ac:	3c088001 	lui	t0,0x8001
800044b0:	2505ebe0 	addiu	a1,t0,-5152
800044b4:	00851021 	addu	v0,a0,a1
800044b8:	90470000 	lbu	a3,0(v0)
800044bc:	30e60008 	andi	a2,a3,0x8
800044c0:	14c00401 	bnez	a2,800054c8 <__svfscanf_r+0x1088>
800044c4:	00a08021 	move	s0,a1
800044c8:	240f0025 	li	t7,37
800044cc:	148f000f 	bne	a0,t7,8000450c <__svfscanf_r+0xcc>
800044d0:	0000b821 	move	s7,zero
800044d4:	92650000 	lbu	a1,0(s3)
800044d8:	0000a021 	move	s4,zero
800044dc:	0005b600 	sll	s6,a1,0x18
800044e0:	00168603 	sra	s0,s6,0x18
800044e4:	2e110079 	sltiu	s1,s0,121
800044e8:	122003e6 	beqz	s1,80005484 <__svfscanf_r+0x1044>
800044ec:	26730001 	addiu	s3,s3,1
800044f0:	3c028001 	lui	v0,0x8001
800044f4:	00103080 	sll	a2,s0,0x2
800044f8:	2447ed0c 	addiu	a3,v0,-4852
800044fc:	00c7c821 	addu	t9,a2,a3
80004500:	8f380000 	lw	t8,0(t9)
80004504:	03000008 	jr	t8
80004508:	00000000 	nop
8000450c:	2670ffff 	addiu	s0,s3,-1
80004510:	00008821 	move	s1,zero
80004514:	8e540004 	lw	s4,4(s2)
80004518:	1a80001e 	blez	s4,80004594 <__svfscanf_r+0x154>
8000451c:	00000000 	nop
80004520:	8e440000 	lw	a0,0(s2)
80004524:	82170000 	lb	s7,0(s0)
80004528:	90830000 	lbu	v1,0(a0)
8000452c:	1477000b 	bne	v1,s7,8000455c <__svfscanf_r+0x11c>
80004530:	24880001 	addiu	t0,a0,1
80004534:	8e450004 	lw	a1,4(s2)
80004538:	26310001 	addiu	s1,s1,1
8000453c:	24a4ffff 	addiu	a0,a1,-1
80004540:	ae440004 	sw	a0,4(s2)
80004544:	ae480000 	sw	t0,0(s2)
80004548:	26b50001 	addiu	s5,s5,1
8000454c:	1a20fff1 	blez	s1,80004514 <__svfscanf_r+0xd4>
80004550:	26100001 	addiu	s0,s0,1
80004554:	08001125 	j	80004494 <__svfscanf_r+0x54>
80004558:	82630000 	lb	v1,0(s3)
8000455c:	8fa20284 	lw	v0,644(sp)
80004560:	8fbf02cc 	lw	ra,716(sp)
80004564:	8fbe02c8 	lw	s8,712(sp)
80004568:	8fb702c4 	lw	s7,708(sp)
8000456c:	8fb602c0 	lw	s6,704(sp)
80004570:	8fb502bc 	lw	s5,700(sp)
80004574:	8fb402b8 	lw	s4,696(sp)
80004578:	8fb302b4 	lw	s3,692(sp)
8000457c:	8fb202b0 	lw	s2,688(sp)
80004580:	8fb102ac 	lw	s1,684(sp)
80004584:	8fb002a8 	lw	s0,680(sp)
80004588:	d7b402d0 	ldc1	$f20,720(sp)
8000458c:	03e00008 	jr	ra
80004590:	27bd02d8 	addiu	sp,sp,728
80004594:	0c001824 	jal	80006090 <__srefill>
80004598:	02402021 	move	a0,s2
8000459c:	5040ffe1 	beqzl	v0,80004524 <__svfscanf_r+0xe4>
800045a0:	8e440000 	lw	a0,0(s2)
800045a4:	8fb20284 	lw	s2,644(sp)
800045a8:	2402ffff 	li	v0,-1
800045ac:	08001158 	j	80004560 <__svfscanf_r+0x120>
800045b0:	0252100b 	movn	v0,s2,s2
800045b4:	08001158 	j	80004560 <__svfscanf_r+0x120>
800045b8:	2402ffff 	li	v0,-1
800045bc:	92650000 	lbu	a1,0(s3)
800045c0:	08001137 	j	800044dc <__svfscanf_r+0x9c>
800045c4:	36940010 	ori	s4,s4,0x10
800045c8:	00177880 	sll	t7,s7,0x2
800045cc:	01f77021 	addu	t6,t7,s7
800045d0:	000e6840 	sll	t5,t6,0x1
800045d4:	92650000 	lbu	a1,0(s3)
800045d8:	01b06021 	addu	t4,t5,s0
800045dc:	08001137 	j	800044dc <__svfscanf_r+0x9c>
800045e0:	2597ffd0 	addiu	s7,t4,-48
800045e4:	36940001 	ori	s4,s4,0x1
800045e8:	36940040 	ori	s4,s4,0x40
800045ec:	00008021 	move	s0,zero
800045f0:	8e4d0004 	lw	t5,4(s2)
800045f4:	19a0033c 	blez	t5,800052e8 <__svfscanf_r+0xea8>
800045f8:	328e0040 	andi	t6,s4,0x40
800045fc:	15c0001a 	bnez	t6,80004668 <__svfscanf_r+0x228>
80004600:	2e040005 	sltiu	a0,s0,5
80004604:	8e440000 	lw	a0,0(s2)
80004608:	3c198001 	lui	t9,0x8001
8000460c:	2725ebe0 	addiu	a1,t9,-5152
80004610:	90980000 	lbu	t8,0(a0)
80004614:	0305b021 	addu	s6,t8,a1
80004618:	92d10000 	lbu	s1,0(s6)
8000461c:	322f0008 	andi	t7,s1,0x8
80004620:	51e00011 	beqzl	t7,80004668 <__svfscanf_r+0x228>
80004624:	2e040005 	sltiu	a0,s0,5
80004628:	00a08821 	move	s1,a1
8000462c:	8e470004 	lw	a3,4(s2)
80004630:	26b50001 	addiu	s5,s5,1
80004634:	24e6ffff 	addiu	a2,a3,-1
80004638:	18c00325 	blez	a2,800052d0 <__svfscanf_r+0xe90>
8000463c:	ae460004 	sw	a2,4(s2)
80004640:	24880001 	addiu	t0,a0,1
80004644:	ae480000 	sw	t0,0(s2)
80004648:	8e440000 	lw	a0,0(s2)
8000464c:	908a0000 	lbu	t2,0(a0)
80004650:	01511821 	addu	v1,t2,s1
80004654:	90690000 	lbu	t1,0(v1)
80004658:	31250008 	andi	a1,t1,0x8
8000465c:	54a0fff4 	bnezl	a1,80004630 <__svfscanf_r+0x1f0>
80004660:	8e470004 	lw	a3,4(s2)
80004664:	2e040005 	sltiu	a0,s0,5
80004668:	5080ff8a 	beqzl	a0,80004494 <__svfscanf_r+0x54>
8000466c:	82630000 	lb	v1,0(s3)
80004670:	3c0d8001 	lui	t5,0x8001
80004674:	00106080 	sll	t4,s0,0x2
80004678:	25a2eef0 	addiu	v0,t5,-4368
8000467c:	01825821 	addu	t3,t4,v0
80004680:	8d700000 	lw	s0,0(t3)
80004684:	02000008 	jr	s0
80004688:	00000000 	nop
8000468c:	240f0001 	li	t7,1
80004690:	328e0001 	andi	t6,s4,0x1
80004694:	15c00029 	bnez	t6,8000473c <__svfscanf_r+0x2fc>
80004698:	01f7b80a 	movz	s7,t7,s7
8000469c:	32900010 	andi	s0,s4,0x10
800046a0:	1600000f 	bnez	s0,800046e0 <__svfscanf_r+0x2a0>
800046a4:	27c70003 	addiu	a3,s8,3
800046a8:	2406fffc 	li	a2,-4
800046ac:	00e6a024 	and	s4,a3,a2
800046b0:	8e840000 	lw	a0,0(s4)
800046b4:	02e03021 	move	a2,s7
800046b8:	24050001 	li	a1,1
800046bc:	0c001654 	jal	80005950 <fread>
800046c0:	02403821 	move	a3,s2
800046c4:	1040ffb7 	beqz	v0,800045a4 <__svfscanf_r+0x164>
800046c8:	269e0004 	addiu	s8,s4,4
800046cc:	8fa90284 	lw	t1,644(sp)
800046d0:	02a2a821 	addu	s5,s5,v0
800046d4:	25280001 	addiu	t0,t1,1
800046d8:	08001124 	j	80004490 <__svfscanf_r+0x50>
800046dc:	afa80284 	sw	t0,644(sp)
800046e0:	00008021 	move	s0,zero
800046e4:	8e510004 	lw	s1,4(s2)
800046e8:	0237782a 	slt	t7,s1,s7
800046ec:	11e0000c 	beqz	t7,80004720 <__svfscanf_r+0x2e0>
800046f0:	02402021 	move	a0,s2
800046f4:	8e580000 	lw	t8,0(s2)
800046f8:	02118021 	addu	s0,s0,s1
800046fc:	0311b021 	addu	s6,t8,s1
80004700:	0c001824 	jal	80006090 <__srefill>
80004704:	ae560000 	sw	s6,0(s2)
80004708:	1040fff6 	beqz	v0,800046e4 <__svfscanf_r+0x2a4>
8000470c:	02f1b823 	subu	s7,s7,s1
80004710:	5200ffa5 	beqzl	s0,800045a8 <__svfscanf_r+0x168>
80004714:	8fb20284 	lw	s2,644(sp)
80004718:	08001124 	j	80004490 <__svfscanf_r+0x50>
8000471c:	02b0a821 	addu	s5,s5,s0
80004720:	8e590000 	lw	t9,0(s2)
80004724:	02371023 	subu	v0,s1,s7
80004728:	ae420004 	sw	v0,4(s2)
8000472c:	03378821 	addu	s1,t9,s7
80004730:	ae510000 	sw	s1,0(s2)
80004734:	080011c6 	j	80004718 <__svfscanf_r+0x2d8>
80004738:	02178021 	addu	s0,s0,s7
8000473c:	32910010 	andi	s1,s4,0x10
80004740:	16200041 	bnez	s1,80004848 <__svfscanf_r+0x408>
80004744:	0220a021 	move	s4,s1
80004748:	27d90003 	addiu	t9,s8,3
8000474c:	2418fffc 	li	t8,-4
80004750:	0338b024 	and	s6,t9,t8
80004754:	8ed00000 	lw	s0,0(s6)
80004758:	26de0004 	addiu	s8,s6,4
8000475c:	12e0002c 	beqz	s7,80004810 <__svfscanf_r+0x3d0>
80004760:	00008821 	move	s1,zero
80004764:	27b60018 	addiu	s6,sp,24
80004768:	3c078001 	lui	a3,0x8001
8000476c:	8ce6e930 	lw	a2,-5840(a3)
80004770:	1226ff8c 	beq	s1,a2,800045a4 <__svfscanf_r+0x164>
80004774:	02364821 	addu	t1,s1,s6
80004778:	8e4b0000 	lw	t3,0(s2)
8000477c:	8e430004 	lw	v1,4(s2)
80004780:	916a0000 	lbu	t2,0(t3)
80004784:	2464ffff 	addiu	a0,v1,-1
80004788:	25650001 	addiu	a1,t3,1
8000478c:	ae440004 	sw	a0,4(s2)
80004790:	ae450000 	sw	a1,0(s2)
80004794:	02c02021 	move	a0,s6
80004798:	00002821 	move	a1,zero
8000479c:	24060008 	li	a2,8
800047a0:	0c0008d0 	jal	80002340 <memset>
800047a4:	a12a0108 	sb	t2,264(t1)
800047a8:	8fa402d8 	lw	a0,728(sp)
800047ac:	26310001 	addiu	s1,s1,1
800047b0:	02002821 	move	a1,s0
800047b4:	27a60120 	addiu	a2,sp,288
800047b8:	02203821 	move	a3,s1
800047bc:	0c001794 	jal	80005e50 <_mbrtowc_r>
800047c0:	afb60010 	sw	s6,16(sp)
800047c4:	2408ffff 	li	t0,-1
800047c8:	1048ff76 	beq	v0,t0,800045a4 <__svfscanf_r+0x164>
800047cc:	00401821 	move	v1,v0
800047d0:	14400004 	bnez	v0,800047e4 <__svfscanf_r+0x3a4>
800047d4:	240cfffe 	li	t4,-2
800047d8:	52800002 	beqzl	s4,800047e4 <__svfscanf_r+0x3a4>
800047dc:	ae000000 	sw	zero,0(s0)
800047e0:	240cfffe 	li	t4,-2
800047e4:	106c0005 	beq	v1,t4,800047fc <__svfscanf_r+0x3bc>
800047e8:	260d0004 	addiu	t5,s0,4
800047ec:	02b1a821 	addu	s5,s5,s1
800047f0:	01b4800a 	movz	s0,t5,s4
800047f4:	26f7ffff 	addiu	s7,s7,-1
800047f8:	00008821 	move	s1,zero
800047fc:	8e4e0004 	lw	t6,4(s2)
80004800:	19c00009 	blez	t6,80004828 <__svfscanf_r+0x3e8>
80004804:	00000000 	nop
80004808:	16e0ffd8 	bnez	s7,8000476c <__svfscanf_r+0x32c>
8000480c:	3c078001 	lui	a3,0x8001
80004810:	5680ff20 	bnezl	s4,80004494 <__svfscanf_r+0x54>
80004814:	82630000 	lb	v1,0(s3)
80004818:	8fb40284 	lw	s4,644(sp)
8000481c:	26970001 	addiu	s7,s4,1
80004820:	08001124 	j	80004490 <__svfscanf_r+0x50>
80004824:	afb70284 	sw	s7,644(sp)
80004828:	0c001824 	jal	80006090 <__srefill>
8000482c:	02402021 	move	a0,s2
80004830:	1040fff5 	beqz	v0,80004808 <__svfscanf_r+0x3c8>
80004834:	00000000 	nop
80004838:	1220fff5 	beqz	s1,80004810 <__svfscanf_r+0x3d0>
8000483c:	00000000 	nop
80004840:	0800116a 	j	800045a8 <__svfscanf_r+0x168>
80004844:	8fb20284 	lw	s2,644(sp)
80004848:	080011d7 	j	8000475c <__svfscanf_r+0x31c>
8000484c:	00008021 	move	s0,zero
80004850:	2405ffff 	li	a1,-1
80004854:	328a0010 	andi	t2,s4,0x10
80004858:	11400024 	beqz	t2,800048ec <__svfscanf_r+0x4ac>
8000485c:	00b7b80a 	movz	s7,a1,s7
80004860:	8e440000 	lw	a0,0(s2)
80004864:	27b00020 	addiu	s0,sp,32
80004868:	908c0000 	lbu	t4,0(a0)
8000486c:	020c1821 	addu	v1,s0,t4
80004870:	806b0000 	lb	t3,0(v1)
80004874:	11600011 	beqz	t3,800048bc <__svfscanf_r+0x47c>
80004878:	00008821 	move	s1,zero
8000487c:	8e4e0004 	lw	t6,4(s2)
80004880:	248d0001 	addiu	t5,a0,1
80004884:	26f7ffff 	addiu	s7,s7,-1
80004888:	25c2ffff 	addiu	v0,t6,-1
8000488c:	ae4d0000 	sw	t5,0(s2)
80004890:	ae420004 	sw	v0,4(s2)
80004894:	12e00009 	beqz	s7,800048bc <__svfscanf_r+0x47c>
80004898:	26310001 	addiu	s1,s1,1
8000489c:	1840000b 	blez	v0,800048cc <__svfscanf_r+0x48c>
800048a0:	00000000 	nop
800048a4:	8e440000 	lw	a0,0(s2)
800048a8:	90980000 	lbu	t8,0(a0)
800048ac:	0218b021 	addu	s6,s0,t8
800048b0:	82cf0000 	lb	t7,0(s6)
800048b4:	55e0fff2 	bnezl	t7,80004880 <__svfscanf_r+0x440>
800048b8:	8e4e0004 	lw	t6,4(s2)
800048bc:	1220ff28 	beqz	s1,80004560 <__svfscanf_r+0x120>
800048c0:	8fa20284 	lw	v0,644(sp)
800048c4:	08001124 	j	80004490 <__svfscanf_r+0x50>
800048c8:	02b1a821 	addu	s5,s5,s1
800048cc:	0c001824 	jal	80006090 <__srefill>
800048d0:	02402021 	move	a0,s2
800048d4:	5040fff4 	beqzl	v0,800048a8 <__svfscanf_r+0x468>
800048d8:	8e440000 	lw	a0,0(s2)
800048dc:	1620feec 	bnez	s1,80004490 <__svfscanf_r+0x50>
800048e0:	02b1a821 	addu	s5,s5,s1
800048e4:	0800116a 	j	800045a8 <__svfscanf_r+0x168>
800048e8:	8fb20284 	lw	s2,644(sp)
800048ec:	8e460000 	lw	a2,0(s2)
800048f0:	27c20003 	addiu	v0,s8,3
800048f4:	2411fffc 	li	s1,-4
800048f8:	90de0000 	lbu	s8,0(a2)
800048fc:	00518024 	and	s0,v0,s1
80004900:	27b10020 	addiu	s1,sp,32
80004904:	023e2021 	addu	a0,s1,s8
80004908:	8e160000 	lw	s6,0(s0)
8000490c:	80990000 	lb	t9,0(a0)
80004910:	261e0004 	addiu	s8,s0,4
80004914:	13200014 	beqz	t9,80004968 <__svfscanf_r+0x528>
80004918:	02c08021 	move	s0,s6
8000491c:	8e4a0004 	lw	t2,4(s2)
80004920:	24c70001 	addiu	a3,a2,1
80004924:	26f7ffff 	addiu	s7,s7,-1
80004928:	2549ffff 	addiu	t1,t2,-1
8000492c:	ae490004 	sw	t1,4(s2)
80004930:	90c80000 	lbu	t0,0(a2)
80004934:	a2c80000 	sb	t0,0(s6)
80004938:	ae470000 	sw	a3,0(s2)
8000493c:	12e0000a 	beqz	s7,80004968 <__svfscanf_r+0x528>
80004940:	26d60001 	addiu	s6,s6,1
80004944:	8e460004 	lw	a2,4(s2)
80004948:	18c0000f 	blez	a2,80004988 <__svfscanf_r+0x548>
8000494c:	00000000 	nop
80004950:	8e460000 	lw	a2,0(s2)
80004954:	90c30000 	lbu	v1,0(a2)
80004958:	02235821 	addu	t3,s1,v1
8000495c:	81650000 	lb	a1,0(t3)
80004960:	54a0ffef 	bnezl	a1,80004920 <__svfscanf_r+0x4e0>
80004964:	8e4a0004 	lw	t2,4(s2)
80004968:	02d08823 	subu	s1,s6,s0
8000496c:	1220fefc 	beqz	s1,80004560 <__svfscanf_r+0x120>
80004970:	8fa20284 	lw	v0,644(sp)
80004974:	a2c00000 	sb	zero,0(s6)
80004978:	8fac0284 	lw	t4,644(sp)
8000497c:	25970001 	addiu	s7,t4,1
80004980:	08001231 	j	800048c4 <__svfscanf_r+0x484>
80004984:	afb70284 	sw	s7,644(sp)
80004988:	0c001824 	jal	80006090 <__srefill>
8000498c:	02402021 	move	a0,s2
80004990:	5040fff0 	beqzl	v0,80004954 <__svfscanf_r+0x514>
80004994:	8e460000 	lw	a2,0(s2)
80004998:	16d0fff4 	bne	s6,s0,8000496c <__svfscanf_r+0x52c>
8000499c:	02d08823 	subu	s1,s6,s0
800049a0:	0800116a 	j	800045a8 <__svfscanf_r+0x168>
800049a4:	8fb20284 	lw	s2,644(sp)
800049a8:	240effff 	li	t6,-1
800049ac:	328d0001 	andi	t5,s4,0x1
800049b0:	15a00056 	bnez	t5,80004b0c <__svfscanf_r+0x6cc>
800049b4:	01d7b80a 	movz	s7,t6,s7
800049b8:	32900010 	andi	s0,s4,0x10
800049bc:	16000030 	bnez	s0,80004a80 <__svfscanf_r+0x640>
800049c0:	3c108001 	lui	s0,0x8001
800049c4:	8e460000 	lw	a2,0(s2)
800049c8:	2607ebe0 	addiu	a3,s0,-5152
800049cc:	90ca0000 	lbu	t2,0(a2)
800049d0:	27d60003 	addiu	s6,s8,3
800049d4:	2414fffc 	li	s4,-4
800049d8:	01474821 	addu	t1,t2,a3
800049dc:	02d4c824 	and	t9,s6,s4
800049e0:	913e0000 	lbu	s8,0(t1)
800049e4:	8f360000 	lw	s6,0(t9)
800049e8:	33c40008 	andi	a0,s8,0x8
800049ec:	02c08021 	move	s0,s6
800049f0:	14800016 	bnez	a0,80004a4c <__svfscanf_r+0x60c>
800049f4:	273e0004 	addiu	s8,t9,4
800049f8:	00e08821 	move	s1,a3
800049fc:	8e450004 	lw	a1,4(s2)
80004a00:	24cb0001 	addiu	t3,a2,1
80004a04:	26f7ffff 	addiu	s7,s7,-1
80004a08:	24adffff 	addiu	t5,a1,-1
80004a0c:	ae4d0004 	sw	t5,4(s2)
80004a10:	90cc0000 	lbu	t4,0(a2)
80004a14:	a2cc0000 	sb	t4,0(s6)
80004a18:	ae4b0000 	sw	t3,0(s2)
80004a1c:	12e0000b 	beqz	s7,80004a4c <__svfscanf_r+0x60c>
80004a20:	26d60001 	addiu	s6,s6,1
80004a24:	8e460004 	lw	a2,4(s2)
80004a28:	18c0000f 	blez	a2,80004a68 <__svfscanf_r+0x628>
80004a2c:	00000000 	nop
80004a30:	8e460000 	lw	a2,0(s2)
80004a34:	90ce0000 	lbu	t6,0(a2)
80004a38:	01d11821 	addu	v1,t6,s1
80004a3c:	90670000 	lbu	a3,0(v1)
80004a40:	30e20008 	andi	v0,a3,0x8
80004a44:	5040ffee 	beqzl	v0,80004a00 <__svfscanf_r+0x5c0>
80004a48:	8e450004 	lw	a1,4(s2)
80004a4c:	8fb10284 	lw	s1,644(sp)
80004a50:	02d07823 	subu	t7,s6,s0
80004a54:	02afa821 	addu	s5,s5,t7
80004a58:	26370001 	addiu	s7,s1,1
80004a5c:	afb70284 	sw	s7,644(sp)
80004a60:	08001124 	j	80004490 <__svfscanf_r+0x50>
80004a64:	a2c00000 	sb	zero,0(s6)
80004a68:	0c001824 	jal	80006090 <__srefill>
80004a6c:	02402021 	move	a0,s2
80004a70:	5040fff0 	beqzl	v0,80004a34 <__svfscanf_r+0x5f4>
80004a74:	8e460000 	lw	a2,0(s2)
80004a78:	08001294 	j	80004a50 <__svfscanf_r+0x610>
80004a7c:	8fb10284 	lw	s1,644(sp)
80004a80:	8e440000 	lw	a0,0(s2)
80004a84:	3c118001 	lui	s1,0x8001
80004a88:	2625ebe0 	addiu	a1,s1,-5152
80004a8c:	908d0000 	lbu	t5,0(a0)
80004a90:	01a51021 	addu	v0,t5,a1
80004a94:	904c0000 	lbu	t4,0(v0)
80004a98:	318b0008 	andi	t3,t4,0x8
80004a9c:	1560ff89 	bnez	t3,800048c4 <__svfscanf_r+0x484>
80004aa0:	00008821 	move	s1,zero
80004aa4:	00a08021 	move	s0,a1
80004aa8:	8e430004 	lw	v1,4(s2)
80004aac:	24850001 	addiu	a1,a0,1
80004ab0:	26f7ffff 	addiu	s7,s7,-1
80004ab4:	2462ffff 	addiu	v0,v1,-1
80004ab8:	ae450000 	sw	a1,0(s2)
80004abc:	ae420004 	sw	v0,4(s2)
80004ac0:	12e0ff80 	beqz	s7,800048c4 <__svfscanf_r+0x484>
80004ac4:	26310001 	addiu	s1,s1,1
80004ac8:	1840000a 	blez	v0,80004af4 <__svfscanf_r+0x6b4>
80004acc:	00000000 	nop
80004ad0:	8e440000 	lw	a0,0(s2)
80004ad4:	90980000 	lbu	t8,0(a0)
80004ad8:	03107821 	addu	t7,t8,s0
80004adc:	91ee0000 	lbu	t6,0(t7)
80004ae0:	31c70008 	andi	a3,t6,0x8
80004ae4:	50e0fff1 	beqzl	a3,80004aac <__svfscanf_r+0x66c>
80004ae8:	8e430004 	lw	v1,4(s2)
80004aec:	08001124 	j	80004490 <__svfscanf_r+0x50>
80004af0:	02b1a821 	addu	s5,s5,s1
80004af4:	0c001824 	jal	80006090 <__srefill>
80004af8:	02402021 	move	a0,s2
80004afc:	5040fff5 	beqzl	v0,80004ad4 <__svfscanf_r+0x694>
80004b00:	8e440000 	lw	a0,0(s2)
80004b04:	08001124 	j	80004490 <__svfscanf_r+0x50>
80004b08:	02b1a821 	addu	s5,s5,s1
80004b0c:	32940010 	andi	s4,s4,0x10
80004b10:	16800006 	bnez	s4,80004b2c <__svfscanf_r+0x6ec>
80004b14:	27b00280 	addiu	s0,sp,640
80004b18:	27d90003 	addiu	t9,s8,3
80004b1c:	2418fffc 	li	t8,-4
80004b20:	03387824 	and	t7,t9,t8
80004b24:	8df00000 	lw	s0,0(t7)
80004b28:	25fe0004 	addiu	s8,t7,4
80004b2c:	8e440000 	lw	a0,0(s2)
80004b30:	3c118001 	lui	s1,0x8001
80004b34:	262aebe0 	addiu	t2,s1,-5152
80004b38:	90870000 	lbu	a3,0(a0)
80004b3c:	01471021 	addu	v0,t2,a3
80004b40:	90490000 	lbu	t1,0(v0)
80004b44:	31280008 	andi	t0,t1,0x8
80004b48:	15000036 	bnez	t0,80004c24 <__svfscanf_r+0x7e4>
80004b4c:	00008821 	move	s1,zero
80004b50:	12e00034 	beqz	s7,80004c24 <__svfscanf_r+0x7e4>
80004b54:	3c058001 	lui	a1,0x8001
80004b58:	27b60018 	addiu	s6,sp,24
80004b5c:	8ca6e930 	lw	a2,-5840(a1)
80004b60:	1226fe90 	beq	s1,a2,800045a4 <__svfscanf_r+0x164>
80004b64:	248c0001 	addiu	t4,a0,1
80004b68:	8e4d0004 	lw	t5,4(s2)
80004b6c:	02365821 	addu	t3,s1,s6
80004b70:	25a3ffff 	addiu	v1,t5,-1
80004b74:	ae430004 	sw	v1,4(s2)
80004b78:	ae4c0000 	sw	t4,0(s2)
80004b7c:	02c02021 	move	a0,s6
80004b80:	a1670108 	sb	a3,264(t3)
80004b84:	00002821 	move	a1,zero
80004b88:	0c0008d0 	jal	80002340 <memset>
80004b8c:	24060008 	li	a2,8
80004b90:	8fa402d8 	lw	a0,728(sp)
80004b94:	26310001 	addiu	s1,s1,1
80004b98:	02002821 	move	a1,s0
80004b9c:	27a60120 	addiu	a2,sp,288
80004ba0:	02203821 	move	a3,s1
80004ba4:	0c001794 	jal	80005e50 <_mbrtowc_r>
80004ba8:	afb60010 	sw	s6,16(sp)
80004bac:	2404ffff 	li	a0,-1
80004bb0:	1044fe7c 	beq	v0,a0,800045a4 <__svfscanf_r+0x164>
80004bb4:	00401821 	move	v1,v0
80004bb8:	50400001 	beqzl	v0,80004bc0 <__svfscanf_r+0x780>
80004bbc:	ae000000 	sw	zero,0(s0)
80004bc0:	2407fffe 	li	a3,-2
80004bc4:	5067000a 	beql	v1,a3,80004bf0 <__svfscanf_r+0x7b0>
80004bc8:	8e580004 	lw	t8,4(s2)
80004bcc:	0c001734 	jal	80005cd0 <iswspace>
80004bd0:	8e040000 	lw	a0,0(s0)
80004bd4:	14400022 	bnez	v0,80004c60 <__svfscanf_r+0x820>
80004bd8:	260f0004 	addiu	t7,s0,4
80004bdc:	02b1a821 	addu	s5,s5,s1
80004be0:	01f4800a 	movz	s0,t7,s4
80004be4:	26f7ffff 	addiu	s7,s7,-1
80004be8:	00008821 	move	s1,zero
80004bec:	8e580004 	lw	t8,4(s2)
80004bf0:	1b000013 	blez	t8,80004c40 <__svfscanf_r+0x800>
80004bf4:	00000000 	nop
80004bf8:	8e440000 	lw	a0,0(s2)
80004bfc:	3c068001 	lui	a2,0x8001
80004c00:	24caebe0 	addiu	t2,a2,-5152
80004c04:	90870000 	lbu	a3,0(a0)
80004c08:	01474821 	addu	t1,t2,a3
80004c0c:	91280000 	lbu	t0,0(t1)
80004c10:	31190008 	andi	t9,t0,0x8
80004c14:	17200003 	bnez	t9,80004c24 <__svfscanf_r+0x7e4>
80004c18:	00000000 	nop
80004c1c:	16e0ffcf 	bnez	s7,80004b5c <__svfscanf_r+0x71c>
80004c20:	3c058001 	lui	a1,0x8001
80004c24:	5680fe1b 	bnezl	s4,80004494 <__svfscanf_r+0x54>
80004c28:	82630000 	lb	v1,0(s3)
80004c2c:	8fb60284 	lw	s6,644(sp)
80004c30:	ae000000 	sw	zero,0(s0)
80004c34:	26d40001 	addiu	s4,s6,1
80004c38:	08001124 	j	80004490 <__svfscanf_r+0x50>
80004c3c:	afb40284 	sw	s4,644(sp)
80004c40:	0c001824 	jal	80006090 <__srefill>
80004c44:	02402021 	move	a0,s2
80004c48:	5040ffec 	beqzl	v0,80004bfc <__svfscanf_r+0x7bc>
80004c4c:	8e440000 	lw	a0,0(s2)
80004c50:	1220fff4 	beqz	s1,80004c24 <__svfscanf_r+0x7e4>
80004c54:	00000000 	nop
80004c58:	0800116a 	j	800045a8 <__svfscanf_r+0x168>
80004c5c:	8fb20284 	lw	s2,644(sp)
80004c60:	1220fff0 	beqz	s1,80004c24 <__svfscanf_r+0x7e4>
80004c64:	00000000 	nop
80004c68:	2631ffff 	addiu	s1,s1,-1
80004c6c:	27ae0120 	addiu	t6,sp,288
80004c70:	01d1b821 	addu	s7,t6,s1
80004c74:	82e40000 	lb	a0,0(s7)
80004c78:	0c001e11 	jal	80007844 <ungetc>
80004c7c:	02402821 	move	a1,s2
80004c80:	5620fffa 	bnezl	s1,80004c6c <__svfscanf_r+0x82c>
80004c84:	2631ffff 	addiu	s1,s1,-1
80004c88:	08001309 	j	80004c24 <__svfscanf_r+0x7e4>
80004c8c:	00000000 	nop
80004c90:	26e4ffff 	addiu	a0,s7,-1
80004c94:	2c98015d 	sltiu	t8,a0,349
80004c98:	00008821 	move	s1,zero
80004c9c:	17000003 	bnez	t8,80004cac <__svfscanf_r+0x86c>
80004ca0:	afa00290 	sw	zero,656(sp)
80004ca4:	26f1fea3 	addiu	s1,s7,-349
80004ca8:	2417015d 	li	s7,349
80004cac:	36940d80 	ori	s4,s4,0xd80
80004cb0:	12e0002b 	beqz	s7,80004d60 <__svfscanf_r+0x920>
80004cb4:	27b60120 	addiu	s6,sp,288
80004cb8:	8e480000 	lw	t0,0(s2)
80004cbc:	91100000 	lbu	s0,0(t0)
80004cc0:	2603ffd5 	addiu	v1,s0,-43
80004cc4:	2c79004e 	sltiu	t9,v1,78
80004cc8:	13200025 	beqz	t9,80004d60 <__svfscanf_r+0x920>
80004ccc:	3c0d8001 	lui	t5,0x8001
80004cd0:	00035880 	sll	t3,v1,0x2
80004cd4:	25acef04 	addiu	t4,t5,-4348
80004cd8:	016c5021 	addu	t2,t3,t4
80004cdc:	8d490000 	lw	t1,0(t2)
80004ce0:	01200008 	jr	t1
80004ce4:	00000000 	nop
80004ce8:	32850800 	andi	a1,s4,0x800
80004cec:	50a00070 	beqzl	a1,80004eb0 <__svfscanf_r+0xa70>
80004cf0:	a2d00000 	sb	s0,0(s6)
80004cf4:	8fa60288 	lw	a2,648(sp)
80004cf8:	14c00005 	bnez	a2,80004d10 <__svfscanf_r+0x8d0>
80004cfc:	32870400 	andi	a3,s4,0x400
80004d00:	24020008 	li	v0,8
80004d04:	afa20288 	sw	v0,648(sp)
80004d08:	36940200 	ori	s4,s4,0x200
80004d0c:	32870400 	andi	a3,s4,0x400
80004d10:	14e00065 	bnez	a3,80004ea8 <__svfscanf_r+0xa68>
80004d14:	2402fa7f 	li	v0,-1409
80004d18:	2410fc7f 	li	s0,-897
80004d1c:	12200003 	beqz	s1,80004d2c <__svfscanf_r+0x8ec>
80004d20:	0290a024 	and	s4,s4,s0
80004d24:	2631ffff 	addiu	s1,s1,-1
80004d28:	26f70001 	addiu	s7,s7,1
80004d2c:	8fae0290 	lw	t6,656(sp)
80004d30:	25c30001 	addiu	v1,t6,1
80004d34:	afa30290 	sw	v1,656(sp)
80004d38:	8e4a0004 	lw	t2,4(s2)
80004d3c:	2550ffff 	addiu	s0,t2,-1
80004d40:	1a000053 	blez	s0,80004e90 <__svfscanf_r+0xa50>
80004d44:	ae500004 	sw	s0,4(s2)
80004d48:	8e4c0000 	lw	t4,0(s2)
80004d4c:	258b0001 	addiu	t3,t4,1
80004d50:	ae4b0000 	sw	t3,0(s2)
80004d54:	26f7ffff 	addiu	s7,s7,-1
80004d58:	56e0ffd8 	bnezl	s7,80004cbc <__svfscanf_r+0x87c>
80004d5c:	8e480000 	lw	t0,0(s2)
80004d60:	32970100 	andi	s7,s4,0x100
80004d64:	16e00041 	bnez	s7,80004e6c <__svfscanf_r+0xa2c>
80004d68:	24110078 	li	s1,120
80004d6c:	82d0ffff 	lb	s0,-1(s6)
80004d70:	12110038 	beq	s0,s1,80004e54 <__svfscanf_r+0xa14>
80004d74:	240d0058 	li	t5,88
80004d78:	120d0037 	beq	s0,t5,80004e58 <__svfscanf_r+0xa18>
80004d7c:	02002021 	move	a0,s0
80004d80:	32850010 	andi	a1,s4,0x10
80004d84:	50a00007 	beqzl	a1,80004da4 <__svfscanf_r+0x964>
80004d88:	a2c00000 	sb	zero,0(s6)
80004d8c:	8fa20290 	lw	v0,656(sp)
80004d90:	27b90120 	addiu	t9,sp,288
80004d94:	02d9c023 	subu	t8,s6,t9
80004d98:	0302b021 	addu	s6,t8,v0
80004d9c:	08001124 	j	80004490 <__svfscanf_r+0x50>
80004da0:	02b6a821 	addu	s5,s5,s6
80004da4:	8fa402d8 	lw	a0,728(sp)
80004da8:	8fa70288 	lw	a3,648(sp)
80004dac:	8fae028c 	lw	t6,652(sp)
80004db0:	27a50120 	addiu	a1,sp,288
80004db4:	01c0f809 	jalr	t6
80004db8:	00003021 	move	a2,zero
80004dbc:	32860020 	andi	a2,s4,0x20
80004dc0:	10c0000b 	beqz	a2,80004df0 <__svfscanf_r+0x9b0>
80004dc4:	00402821 	move	a1,v0
80004dc8:	27c20003 	addiu	v0,s8,3
80004dcc:	240ffffc 	li	t7,-4
80004dd0:	004f3824 	and	a3,v0,t7
80004dd4:	8cf40000 	lw	s4,0(a3)
80004dd8:	24fe0004 	addiu	s8,a3,4
80004ddc:	ae850000 	sw	a1,0(s4)
80004de0:	8faf0284 	lw	t7,644(sp)
80004de4:	25e50001 	addiu	a1,t7,1
80004de8:	08001363 	j	80004d8c <__svfscanf_r+0x94c>
80004dec:	afa50284 	sw	a1,644(sp)
80004df0:	32830008 	andi	v1,s4,0x8
80004df4:	50600008 	beqzl	v1,80004e18 <__svfscanf_r+0x9d8>
80004df8:	32900004 	andi	s0,s4,0x4
80004dfc:	27c90003 	addiu	t1,s8,3
80004e00:	2404fffc 	li	a0,-4
80004e04:	0124c824 	and	t9,t1,a0
80004e08:	8f380000 	lw	t8,0(t9)
80004e0c:	273e0004 	addiu	s8,t9,4
80004e10:	08001378 	j	80004de0 <__svfscanf_r+0x9a0>
80004e14:	a3020000 	sb	v0,0(t8)
80004e18:	12000008 	beqz	s0,80004e3c <__svfscanf_r+0x9fc>
80004e1c:	27c70003 	addiu	a3,s8,3
80004e20:	27d10003 	addiu	s1,s8,3
80004e24:	2417fffc 	li	s7,-4
80004e28:	02375824 	and	t3,s1,s7
80004e2c:	8d6a0000 	lw	t2,0(t3)
80004e30:	257e0004 	addiu	s8,t3,4
80004e34:	08001378 	j	80004de0 <__svfscanf_r+0x9a0>
80004e38:	a5420000 	sh	v0,0(t2)
80004e3c:	2414fffc 	li	s4,-4
80004e40:	00f43024 	and	a2,a3,s4
80004e44:	8ccd0000 	lw	t5,0(a2)
80004e48:	24de0004 	addiu	s8,a2,4
80004e4c:	08001378 	j	80004de0 <__svfscanf_r+0x9a0>
80004e50:	ada20000 	sw	v0,0(t5)
80004e54:	02002021 	move	a0,s0
80004e58:	02402821 	move	a1,s2
80004e5c:	0c001e11 	jal	80007844 <ungetc>
80004e60:	26d6ffff 	addiu	s6,s6,-1
80004e64:	08001361 	j	80004d84 <__svfscanf_r+0x944>
80004e68:	32850010 	andi	a1,s4,0x10
80004e6c:	27b50120 	addiu	s5,sp,288
80004e70:	02b6982b 	sltu	s3,s5,s6
80004e74:	5260fdba 	beqzl	s3,80004560 <__svfscanf_r+0x120>
80004e78:	8fa20284 	lw	v0,644(sp)
80004e7c:	82c4ffff 	lb	a0,-1(s6)
80004e80:	0c001e11 	jal	80007844 <ungetc>
80004e84:	02402821 	move	a1,s2
80004e88:	08001158 	j	80004560 <__svfscanf_r+0x120>
80004e8c:	8fa20284 	lw	v0,644(sp)
80004e90:	0c001824 	jal	80006090 <__srefill>
80004e94:	02402021 	move	a0,s2
80004e98:	5040ffaf 	beqzl	v0,80004d58 <__svfscanf_r+0x918>
80004e9c:	26f7ffff 	addiu	s7,s7,-1
80004ea0:	08001359 	j	80004d64 <__svfscanf_r+0x924>
80004ea4:	32970100 	andi	s7,s4,0x100
80004ea8:	0282a024 	and	s4,s4,v0
80004eac:	a2d00000 	sb	s0,0(s6)
80004eb0:	0800134e 	j	80004d38 <__svfscanf_r+0x8f8>
80004eb4:	26d60001 	addiu	s6,s6,1
80004eb8:	32830080 	andi	v1,s4,0x80
80004ebc:	5060ffa9 	beqzl	v1,80004d64 <__svfscanf_r+0x924>
80004ec0:	32970100 	andi	s7,s4,0x100
80004ec4:	080013aa 	j	80004ea8 <__svfscanf_r+0xa68>
80004ec8:	2402ff7f 	li	v0,-129
80004ecc:	8faa0288 	lw	t2,648(sp)
80004ed0:	3c098001 	lui	t1,0x8001
80004ed4:	2528ece0 	addiu	t0,t1,-4896
80004ed8:	000ac840 	sll	t9,t2,0x1
80004edc:	03282021 	addu	a0,t9,t0
80004ee0:	84980000 	lh	t8,0(a0)
80004ee4:	240ff47f 	li	t7,-2945
80004ee8:	028fa024 	and	s4,s4,t7
80004eec:	080013ab 	j	80004eac <__svfscanf_r+0xa6c>
80004ef0:	afb80288 	sw	t8,648(sp)
80004ef4:	8fa70288 	lw	a3,648(sp)
80004ef8:	3c028001 	lui	v0,0x8001
80004efc:	2446ece0 	addiu	a2,v0,-4896
80004f00:	00072840 	sll	a1,a3,0x1
80004f04:	00a66821 	addu	t5,a1,a2
80004f08:	85ac0000 	lh	t4,0(t5)
80004f0c:	298b0009 	slti	t3,t4,9
80004f10:	1560ff93 	bnez	t3,80004d60 <__svfscanf_r+0x920>
80004f14:	afac0288 	sw	t4,648(sp)
80004f18:	080013aa 	j	80004ea8 <__svfscanf_r+0xa68>
80004f1c:	2402f47f 	li	v0,-2945
80004f20:	8faf0288 	lw	t7,648(sp)
80004f24:	29ee000b 	slti	t6,t7,11
80004f28:	51c0ffdf 	beqzl	t6,80004ea8 <__svfscanf_r+0xa68>
80004f2c:	2402f47f 	li	v0,-2945
80004f30:	08001359 	j	80004d64 <__svfscanf_r+0x924>
80004f34:	32970100 	andi	s7,s4,0x100
80004f38:	32980200 	andi	t8,s4,0x200
80004f3c:	1300ff88 	beqz	t8,80004d60 <__svfscanf_r+0x920>
80004f40:	27a40121 	addiu	a0,sp,289
80004f44:	16c4ff86 	bne	s6,a0,80004d60 <__svfscanf_r+0x920>
80004f48:	2409fdff 	li	t1,-513
80004f4c:	0289c824 	and	t9,s4,t1
80004f50:	24080010 	li	t0,16
80004f54:	afa80288 	sw	t0,648(sp)
80004f58:	080013ab 	j	80004eac <__svfscanf_r+0xa6c>
80004f5c:	37340500 	ori	s4,t9,0x500
80004f60:	26e8ffff 	addiu	t0,s7,-1
80004f64:	2d03015d 	sltiu	v1,t0,349
80004f68:	afa00294 	sw	zero,660(sp)
80004f6c:	afa0029c 	sw	zero,668(sp)
80004f70:	00003021 	move	a2,zero
80004f74:	14600003 	bnez	v1,80004f84 <__svfscanf_r+0xb44>
80004f78:	00002821 	move	a1,zero
80004f7c:	26e6fea3 	addiu	a2,s7,-349
80004f80:	2417015d 	li	s7,349
80004f84:	36940780 	ori	s4,s4,0x780
80004f88:	00008821 	move	s1,zero
80004f8c:	afa00298 	sw	zero,664(sp)
80004f90:	12e00021 	beqz	s7,80005018 <__svfscanf_r+0xbd8>
80004f94:	27b60120 	addiu	s6,sp,288
80004f98:	8e490000 	lw	t1,0(s2)
80004f9c:	91300000 	lbu	s0,0(t1)
80004fa0:	2603ffd5 	addiu	v1,s0,-43
80004fa4:	2c640044 	sltiu	a0,v1,68
80004fa8:	1080001b 	beqz	a0,80005018 <__svfscanf_r+0xbd8>
80004fac:	3c0e8001 	lui	t6,0x8001
80004fb0:	00036080 	sll	t4,v1,0x2
80004fb4:	25cdf03c 	addiu	t5,t6,-4036
80004fb8:	018d5821 	addu	t3,t4,t5
80004fbc:	8d6a0000 	lw	t2,0(t3)
80004fc0:	01400008 	jr	t2
80004fc4:	00000000 	nop
80004fc8:	32870100 	andi	a3,s4,0x100
80004fcc:	10e0008a 	beqz	a3,800051f8 <__svfscanf_r+0xdb8>
80004fd0:	00000000 	nop
80004fd4:	2410ff7f 	li	s0,-129
80004fd8:	0290a024 	and	s4,s4,s0
80004fdc:	10c00003 	beqz	a2,80004fec <__svfscanf_r+0xbac>
80004fe0:	26310001 	addiu	s1,s1,1
80004fe4:	24c6ffff 	addiu	a2,a2,-1
80004fe8:	26f70001 	addiu	s7,s7,1
80004fec:	8e500004 	lw	s0,4(s2)
80004ff0:	26f7ffff 	addiu	s7,s7,-1
80004ff4:	26b50001 	addiu	s5,s5,1
80004ff8:	2607ffff 	addiu	a3,s0,-1
80004ffc:	18e00075 	blez	a3,800051d4 <__svfscanf_r+0xd94>
80005000:	ae470004 	sw	a3,4(s2)
80005004:	8e580000 	lw	t8,0(s2)
80005008:	270f0001 	addiu	t7,t8,1
8000500c:	ae4f0000 	sw	t7,0(s2)
80005010:	56e0ffe2 	bnezl	s7,80004f9c <__svfscanf_r+0xb5c>
80005014:	8e490000 	lw	t1,0(s2)
80005018:	12200004 	beqz	s1,8000502c <__svfscanf_r+0xbec>
8000501c:	32860100 	andi	a2,s4,0x100
80005020:	2417feff 	li	s7,-257
80005024:	0297a024 	and	s4,s4,s7
80005028:	32860100 	andi	a2,s4,0x100
8000502c:	10c00014 	beqz	a2,80005080 <__svfscanf_r+0xc40>
80005030:	32880010 	andi	t0,s4,0x10
80005034:	32850400 	andi	a1,s4,0x400
80005038:	14a00058 	bnez	a1,8000519c <__svfscanf_r+0xd5c>
8000503c:	24190065 	li	t9,101
80005040:	26d6ffff 	addiu	s6,s6,-1
80005044:	82d00000 	lb	s0,0(s6)
80005048:	12190009 	beq	s0,t9,80005070 <__svfscanf_r+0xc30>
8000504c:	26b5ffff 	addiu	s5,s5,-1
80005050:	24030045 	li	v1,69
80005054:	12030006 	beq	s0,v1,80005070 <__svfscanf_r+0xc30>
80005058:	02002021 	move	a0,s0
8000505c:	02402821 	move	a1,s2
80005060:	0c001e11 	jal	80007844 <ungetc>
80005064:	26d6ffff 	addiu	s6,s6,-1
80005068:	82d00000 	lb	s0,0(s6)
8000506c:	26b5ffff 	addiu	s5,s5,-1
80005070:	02002021 	move	a0,s0
80005074:	0c001e11 	jal	80007844 <ungetc>
80005078:	02402821 	move	a1,s2
8000507c:	32880010 	andi	t0,s4,0x10
80005080:	5500fd04 	bnezl	t0,80004494 <__svfscanf_r+0x54>
80005084:	82630000 	lb	v1,0(s3)
80005088:	32890600 	andi	t1,s4,0x600
8000508c:	24040400 	li	a0,1024
80005090:	1124003c 	beq	t1,a0,80005184 <__svfscanf_r+0xd44>
80005094:	a2c00000 	sb	zero,0(s6)
80005098:	8fb60298 	lw	s6,664(sp)
8000509c:	16c00023 	bnez	s6,8000512c <__svfscanf_r+0xcec>
800050a0:	8fa2029c 	lw	v0,668(sp)
800050a4:	8fa402d8 	lw	a0,728(sp)
800050a8:	27a50120 	addiu	a1,sp,288
800050ac:	0c00197c 	jal	800065f0 <_strtod_r>
800050b0:	00003021 	move	a2,zero
800050b4:	32980001 	andi	t8,s4,0x1
800050b8:	17000004 	bnez	t8,800050cc <__svfscanf_r+0xc8c>
800050bc:	46200506 	mov.d	$f20,$f0
800050c0:	32970002 	andi	s7,s4,0x2
800050c4:	12e0000b 	beqz	s7,800050f4 <__svfscanf_r+0xcb4>
800050c8:	27c40003 	addiu	a0,s8,3
800050cc:	27d90003 	addiu	t9,s8,3
800050d0:	2414fffc 	li	s4,-4
800050d4:	03342824 	and	a1,t9,s4
800050d8:	8ca60000 	lw	a2,0(a1)
800050dc:	24be0004 	addiu	s8,a1,4
800050e0:	f4d40000 	sdc1	$f20,0(a2)
800050e4:	8faa0284 	lw	t2,644(sp)
800050e8:	25490001 	addiu	t1,t2,1
800050ec:	08001124 	j	80004490 <__svfscanf_r+0x50>
800050f0:	afa90284 	sw	t1,644(sp)
800050f4:	2408fffc 	li	t0,-4
800050f8:	0088b024 	and	s6,a0,t0
800050fc:	46200306 	mov.d	$f12,$f0
80005100:	0c001898 	jal	80006260 <isnan>
80005104:	8ed00000 	lw	s0,0(s6)
80005108:	14400004 	bnez	v0,8000511c <__svfscanf_r+0xcdc>
8000510c:	26de0004 	addiu	s8,s6,4
80005110:	4620a020 	cvt.s.d	$f0,$f20
80005114:	08001439 	j	800050e4 <__svfscanf_r+0xca4>
80005118:	e6000000 	swc1	$f0,0(s0)
8000511c:	0c0018e0 	jal	80006380 <nanf>
80005120:	00002021 	move	a0,zero
80005124:	08001439 	j	800050e4 <__svfscanf_r+0xca4>
80005128:	e6000000 	swc1	$f0,0(s0)
8000512c:	8fa402d8 	lw	a0,728(sp)
80005130:	00003021 	move	a2,zero
80005134:	24450001 	addiu	a1,v0,1
80005138:	0c000d94 	jal	80003650 <_strtol_r>
8000513c:	2407000a 	li	a3,10
80005140:	8fac0298 	lw	t4,664(sp)
80005144:	004c3023 	subu	a2,v0,t4
80005148:	8fad0298 	lw	t5,664(sp)
8000514c:	51a0ffd6 	beqzl	t5,800050a8 <__svfscanf_r+0xc68>
80005150:	8fa402d8 	lw	a0,728(sp)
80005154:	8faf029c 	lw	t7,668(sp)
80005158:	8fa4029c 	lw	a0,668(sp)
8000515c:	27b00273 	addiu	s0,sp,627
80005160:	01f0382b 	sltu	a3,t7,s0
80005164:	27ae0272 	addiu	t6,sp,626
80005168:	3c118001 	lui	s1,0x8001
8000516c:	01c7200a 	movz	a0,t6,a3
80005170:	2625ed04 	addiu	a1,s1,-4860
80005174:	0c0018fb 	jal	800063ec <sprintf>
80005178:	afa4029c 	sw	a0,668(sp)
8000517c:	0800142a 	j	800050a8 <__svfscanf_r+0xc68>
80005180:	8fa402d8 	lw	a0,728(sp)
80005184:	8fab0294 	lw	t3,660(sp)
80005188:	afb6029c 	sw	s6,668(sp)
8000518c:	022b5023 	subu	t2,s1,t3
80005190:	000a3023 	negu	a2,t2
80005194:	08001452 	j	80005148 <__svfscanf_r+0xd08>
80005198:	afaa0298 	sw	t2,664(sp)
8000519c:	27b50120 	addiu	s5,sp,288
800051a0:	02b6982b 	sltu	s3,s5,s6
800051a4:	1260fcee 	beqz	s3,80004560 <__svfscanf_r+0x120>
800051a8:	8fa20284 	lw	v0,644(sp)
800051ac:	26d6ffff 	addiu	s6,s6,-1
800051b0:	82c40000 	lb	a0,0(s6)
800051b4:	27b40120 	addiu	s4,sp,288
800051b8:	02402821 	move	a1,s2
800051bc:	0c001e11 	jal	80007844 <ungetc>
800051c0:	0296f02b 	sltu	s8,s4,s6
800051c4:	17c0fffa 	bnez	s8,800051b0 <__svfscanf_r+0xd70>
800051c8:	26d6ffff 	addiu	s6,s6,-1
800051cc:	08001158 	j	80004560 <__svfscanf_r+0x120>
800051d0:	8fa20284 	lw	v0,644(sp)
800051d4:	02402021 	move	a0,s2
800051d8:	afa502a0 	sw	a1,672(sp)
800051dc:	0c001824 	jal	80006090 <__srefill>
800051e0:	afa602a4 	sw	a2,676(sp)
800051e4:	8fa502a0 	lw	a1,672(sp)
800051e8:	1040ff89 	beqz	v0,80005010 <__svfscanf_r+0xbd0>
800051ec:	8fa602a4 	lw	a2,676(sp)
800051f0:	08001406 	j	80005018 <__svfscanf_r+0xbd8>
800051f4:	00000000 	nop
800051f8:	14a0ff87 	bnez	a1,80005018 <__svfscanf_r+0xbd8>
800051fc:	2402fe7f 	li	v0,-385
80005200:	0282a024 	and	s4,s4,v0
80005204:	a2d00000 	sb	s0,0(s6)
80005208:	080013fb 	j	80004fec <__svfscanf_r+0xbac>
8000520c:	26d60001 	addiu	s6,s6,1
80005210:	328f0080 	andi	t7,s4,0x80
80005214:	11e0ff80 	beqz	t7,80005018 <__svfscanf_r+0xbd8>
80005218:	2402ff7f 	li	v0,-129
8000521c:	08001481 	j	80005204 <__svfscanf_r+0xdc4>
80005220:	0282a024 	and	s4,s4,v0
80005224:	32880200 	andi	t0,s4,0x200
80005228:	1100ff7b 	beqz	t0,80005018 <__svfscanf_r+0xbd8>
8000522c:	2404fd7f 	li	a0,-641
80005230:	0284a024 	and	s4,s4,a0
80005234:	08001481 	j	80005204 <__svfscanf_r+0xdc4>
80005238:	afb10294 	sw	s1,660(sp)
8000523c:	24030001 	li	v1,1
80005240:	14a3ff75 	bne	a1,v1,80005018 <__svfscanf_r+0xbd8>
80005244:	00000000 	nop
80005248:	08001481 	j	80005204 <__svfscanf_r+0xdc4>
8000524c:	24050002 	li	a1,2
80005250:	32820500 	andi	v0,s4,0x500
80005254:	24090400 	li	t1,1024
80005258:	10490005 	beq	v0,t1,80005270 <__svfscanf_r+0xe30>
8000525c:	328a0400 	andi	t2,s4,0x400
80005260:	1140ff6d 	beqz	t2,80005018 <__svfscanf_r+0xbd8>
80005264:	00000000 	nop
80005268:	5220ff70 	beqzl	s1,8000502c <__svfscanf_r+0xbec>
8000526c:	32860100 	andi	a2,s4,0x100
80005270:	328b0200 	andi	t3,s4,0x200
80005274:	15600005 	bnez	t3,8000528c <__svfscanf_r+0xe4c>
80005278:	240ef9ff 	li	t6,-1537
8000527c:	8fad0294 	lw	t5,660(sp)
80005280:	afb6029c 	sw	s6,668(sp)
80005284:	022d6023 	subu	t4,s1,t5
80005288:	afac0298 	sw	t4,664(sp)
8000528c:	028e8824 	and	s1,s4,t6
80005290:	36340180 	ori	s4,s1,0x180
80005294:	08001481 	j	80005204 <__svfscanf_r+0xdc4>
80005298:	00008821 	move	s1,zero
8000529c:	14a00008 	bnez	a1,800052c0 <__svfscanf_r+0xe80>
800052a0:	24190002 	li	t9,2
800052a4:	32980780 	andi	t8,s4,0x780
800052a8:	13000005 	beqz	t8,800052c0 <__svfscanf_r+0xe80>
800052ac:	00000000 	nop
800052b0:	2405f87f 	li	a1,-1921
800052b4:	0285a024 	and	s4,s4,a1
800052b8:	08001481 	j	80005204 <__svfscanf_r+0xdc4>
800052bc:	24050001 	li	a1,1
800052c0:	14b9ff55 	bne	a1,t9,80005018 <__svfscanf_r+0xbd8>
800052c4:	00000000 	nop
800052c8:	08001481 	j	80005204 <__svfscanf_r+0xdc4>
800052cc:	24050003 	li	a1,3
800052d0:	0c001824 	jal	80006090 <__srefill>
800052d4:	02402021 	move	a0,s2
800052d8:	5040fcdc 	beqzl	v0,8000464c <__svfscanf_r+0x20c>
800052dc:	8e440000 	lw	a0,0(s2)
800052e0:	0800116a 	j	800045a8 <__svfscanf_r+0x168>
800052e4:	8fb20284 	lw	s2,644(sp)
800052e8:	0c001824 	jal	80006090 <__srefill>
800052ec:	02402021 	move	a0,s2
800052f0:	1040fcc2 	beqz	v0,800045fc <__svfscanf_r+0x1bc>
800052f4:	328e0040 	andi	t6,s4,0x40
800052f8:	0800116a 	j	800045a8 <__svfscanf_r+0x168>
800052fc:	8fb20284 	lw	s2,644(sp)
80005300:	36940001 	ori	s4,s4,0x1
80005304:	3c168000 	lui	s6,0x8000
80005308:	26d13650 	addiu	s1,s6,13904
8000530c:	24100003 	li	s0,3
80005310:	2402000a 	li	v0,10
80005314:	afb1028c 	sw	s1,652(sp)
80005318:	0800117c 	j	800045f0 <__svfscanf_r+0x1b0>
8000531c:	afa20288 	sw	v0,648(sp)
80005320:	92650000 	lbu	a1,0(s3)
80005324:	08001137 	j	800044dc <__svfscanf_r+0x9c>
80005328:	36940002 	ori	s4,s4,0x2
8000532c:	36940001 	ori	s4,s4,0x1
80005330:	3c078000 	lui	a3,0x8000
80005334:	24e64280 	addiu	a2,a3,17024
80005338:	24100003 	li	s0,3
8000533c:	24030008 	li	v1,8
80005340:	afa6028c 	sw	a2,652(sp)
80005344:	0800117c 	j	800045f0 <__svfscanf_r+0x1b0>
80005348:	afa30288 	sw	v1,648(sp)
8000534c:	36940001 	ori	s4,s4,0x1
80005350:	0800117c 	j	800045f0 <__svfscanf_r+0x1b0>
80005354:	24100002 	li	s0,2
80005358:	02602821 	move	a1,s3
8000535c:	0c0018a8 	jal	800062a0 <__sccl>
80005360:	27a40020 	addiu	a0,sp,32
80005364:	00409821 	move	s3,v0
80005368:	36940040 	ori	s4,s4,0x40
8000536c:	0800117c 	j	800045f0 <__svfscanf_r+0x1b0>
80005370:	24100001 	li	s0,1
80005374:	0800117c 	j	800045f0 <__svfscanf_r+0x1b0>
80005378:	24100004 	li	s0,4
8000537c:	826b0000 	lb	t3,0(s3)
80005380:	240a0068 	li	t2,104
80005384:	116a0003 	beq	t3,t2,80005394 <__svfscanf_r+0xf54>
80005388:	92650000 	lbu	a1,0(s3)
8000538c:	08001137 	j	800044dc <__svfscanf_r+0x9c>
80005390:	36940004 	ori	s4,s4,0x4
80005394:	26730001 	addiu	s3,s3,1
80005398:	92650000 	lbu	a1,0(s3)
8000539c:	08001137 	j	800044dc <__svfscanf_r+0x9c>
800053a0:	36940008 	ori	s4,s4,0x8
800053a4:	3c198000 	lui	t9,0x8000
800053a8:	27383650 	addiu	t8,t9,13904
800053ac:	24100003 	li	s0,3
800053b0:	afb8028c 	sw	t8,652(sp)
800053b4:	0800117c 	j	800045f0 <__svfscanf_r+0x1b0>
800053b8:	afa00288 	sw	zero,648(sp)
800053bc:	82690000 	lb	t1,0(s3)
800053c0:	2410006c 	li	s0,108
800053c4:	11300003 	beq	t1,s0,800053d4 <__svfscanf_r+0xf94>
800053c8:	92650000 	lbu	a1,0(s3)
800053cc:	08001137 	j	800044dc <__svfscanf_r+0x9c>
800053d0:	36940001 	ori	s4,s4,0x1
800053d4:	080014c8 	j	80005320 <__svfscanf_r+0xee0>
800053d8:	26730001 	addiu	s3,s3,1
800053dc:	32970010 	andi	s7,s4,0x10
800053e0:	56e0fc2c 	bnezl	s7,80004494 <__svfscanf_r+0x54>
800053e4:	82630000 	lb	v1,0(s3)
800053e8:	328a0008 	andi	t2,s4,0x8
800053ec:	15400010 	bnez	t2,80005430 <__svfscanf_r+0xff0>
800053f0:	328d0004 	andi	t5,s4,0x4
800053f4:	15a00007 	bnez	t5,80005414 <__svfscanf_r+0xfd4>
800053f8:	27c30003 	addiu	v1,s8,3
800053fc:	2408fffc 	li	t0,-4
80005400:	00683024 	and	a2,v1,t0
80005404:	8cd90000 	lw	t9,0(a2)
80005408:	24de0004 	addiu	s8,a2,4
8000540c:	08001124 	j	80004490 <__svfscanf_r+0x50>
80005410:	af350000 	sw	s5,0(t9)
80005414:	27d80003 	addiu	t8,s8,3
80005418:	2416fffc 	li	s6,-4
8000541c:	03167824 	and	t7,t8,s6
80005420:	8dee0000 	lw	t6,0(t7)
80005424:	25fe0004 	addiu	s8,t7,4
80005428:	08001124 	j	80004490 <__svfscanf_r+0x50>
8000542c:	a5d50000 	sh	s5,0(t6)
80005430:	27cc0003 	addiu	t4,s8,3
80005434:	240bfffc 	li	t3,-4
80005438:	018ba024 	and	s4,t4,t3
8000543c:	8e820000 	lw	v0,0(s4)
80005440:	269e0004 	addiu	s8,s4,4
80005444:	08001124 	j	80004490 <__svfscanf_r+0x50>
80005448:	a0550000 	sb	s5,0(v0)
8000544c:	3c098000 	lui	t1,0x8000
80005450:	25304280 	addiu	s0,t1,17024
80005454:	afb0028c 	sw	s0,652(sp)
80005458:	36940220 	ori	s4,s4,0x220
8000545c:	24100003 	li	s0,3
80005460:	080014d1 	j	80005344 <__svfscanf_r+0xf04>
80005464:	24030010 	li	v1,16
80005468:	3c088000 	lui	t0,0x8000
8000546c:	25034280 	addiu	v1,t0,17024
80005470:	afa3028c 	sw	v1,652(sp)
80005474:	2402000a 	li	v0,10
80005478:	24100003 	li	s0,3
8000547c:	0800117c 	j	800045f0 <__svfscanf_r+0x1b0>
80005480:	afa20288 	sw	v0,648(sp)
80005484:	3c0c8001 	lui	t4,0x8001
80005488:	258bebe0 	addiu	t3,t4,-5152
8000548c:	020b5021 	addu	t2,s0,t3
80005490:	91450000 	lbu	a1,0(t2)
80005494:	3c098000 	lui	t1,0x8000
80005498:	25303650 	addiu	s0,t1,13904
8000549c:	30a40001 	andi	a0,a1,0x1
800054a0:	afb0028c 	sw	s0,652(sp)
800054a4:	0800151d 	j	80005474 <__svfscanf_r+0x1034>
800054a8:	0284a025 	or	s4,s4,a0
800054ac:	3c058000 	lui	a1,0x8000
800054b0:	24a44280 	addiu	a0,a1,17024
800054b4:	afa4028c 	sw	a0,652(sp)
800054b8:	36940200 	ori	s4,s4,0x200
800054bc:	24100003 	li	s0,3
800054c0:	080014c6 	j	80005318 <__svfscanf_r+0xed8>
800054c4:	24020010 	li	v0,16
800054c8:	8e440004 	lw	a0,4(s2)
800054cc:	1880000f 	blez	a0,8000550c <__svfscanf_r+0x10cc>
800054d0:	00000000 	nop
800054d4:	8e440000 	lw	a0,0(s2)
800054d8:	908b0000 	lbu	t3,0(a0)
800054dc:	01705021 	addu	t2,t3,s0
800054e0:	91490000 	lbu	t1,0(t2)
800054e4:	31250008 	andi	a1,t1,0x8
800054e8:	50a0fbea 	beqzl	a1,80004494 <__svfscanf_r+0x54>
800054ec:	82630000 	lb	v1,0(s3)
800054f0:	8e4e0004 	lw	t6,4(s2)
800054f4:	248c0001 	addiu	t4,a0,1
800054f8:	26b50001 	addiu	s5,s5,1
800054fc:	25cdffff 	addiu	t5,t6,-1
80005500:	ae4d0004 	sw	t5,4(s2)
80005504:	08001532 	j	800054c8 <__svfscanf_r+0x1088>
80005508:	ae4c0000 	sw	t4,0(s2)
8000550c:	0c001824 	jal	80006090 <__srefill>
80005510:	02402021 	move	a0,s2
80005514:	5440fbdf 	bnezl	v0,80004494 <__svfscanf_r+0x54>
80005518:	82630000 	lb	v1,0(s3)
8000551c:	08001536 	j	800054d8 <__svfscanf_r+0x1098>
80005520:	8e440000 	lw	a0,0(s2)

80005524 <vfscanf>:
80005524:	3c078001 	lui	a3,0x8001
80005528:	8ce3e348 	lw	v1,-7352(a3)
8000552c:	27bdffe0 	addiu	sp,sp,-32
80005530:	afb20018 	sw	s2,24(sp)
80005534:	afb10014 	sw	s1,20(sp)
80005538:	afb00010 	sw	s0,16(sp)
8000553c:	afbf001c 	sw	ra,28(sp)
80005540:	00808021 	move	s0,a0
80005544:	00a08821 	move	s1,a1
80005548:	10600004 	beqz	v1,8000555c <vfscanf+0x38>
8000554c:	00c09021 	move	s2,a2
80005550:	8c650038 	lw	a1,56(v1)
80005554:	10a0000d 	beqz	a1,8000558c <vfscanf+0x68>
80005558:	00602021 	move	a0,v1
8000555c:	3c038001 	lui	v1,0x8001
80005560:	8c64e348 	lw	a0,-7352(v1)
80005564:	02002821 	move	a1,s0
80005568:	02203021 	move	a2,s1
8000556c:	0c001110 	jal	80004440 <__svfscanf_r>
80005570:	02403821 	move	a3,s2
80005574:	8fbf001c 	lw	ra,28(sp)
80005578:	8fb20018 	lw	s2,24(sp)
8000557c:	8fb10014 	lw	s1,20(sp)
80005580:	8fb00010 	lw	s0,16(sp)
80005584:	03e00008 	jr	ra
80005588:	27bd0020 	addiu	sp,sp,32
8000558c:	0c0015df 	jal	8000577c <__sinit>
80005590:	00000000 	nop
80005594:	08001558 	j	80005560 <vfscanf+0x3c>
80005598:	3c038001 	lui	v1,0x8001

8000559c <__svfscanf>:
8000559c:	3c078001 	lui	a3,0x8001
800055a0:	00801821 	move	v1,a0
800055a4:	8ce4e348 	lw	a0,-7352(a3)
800055a8:	00a01021 	move	v0,a1
800055ac:	27bdffe8 	addiu	sp,sp,-24
800055b0:	00c03821 	move	a3,a2
800055b4:	00602821 	move	a1,v1
800055b8:	afbf0010 	sw	ra,16(sp)
800055bc:	0c001110 	jal	80004440 <__svfscanf_r>
800055c0:	00403021 	move	a2,v0
800055c4:	8fbf0010 	lw	ra,16(sp)
800055c8:	03e00008 	jr	ra
800055cc:	27bd0018 	addiu	sp,sp,24

800055d0 <_vfscanf_r>:
800055d0:	27bdffd8 	addiu	sp,sp,-40
800055d4:	afb3001c 	sw	s3,28(sp)
800055d8:	afb20018 	sw	s2,24(sp)
800055dc:	afb10014 	sw	s1,20(sp)
800055e0:	afb00010 	sw	s0,16(sp)
800055e4:	afbf0020 	sw	ra,32(sp)
800055e8:	00808021 	move	s0,a0
800055ec:	00a08821 	move	s1,a1
800055f0:	00c09021 	move	s2,a2
800055f4:	10800004 	beqz	a0,80005608 <_vfscanf_r+0x38>
800055f8:	00e09821 	move	s3,a3
800055fc:	8c830038 	lw	v1,56(a0)
80005600:	1060000d 	beqz	v1,80005638 <_vfscanf_r+0x68>
80005604:	00000000 	nop
80005608:	02002021 	move	a0,s0
8000560c:	02202821 	move	a1,s1
80005610:	02403021 	move	a2,s2
80005614:	0c001110 	jal	80004440 <__svfscanf_r>
80005618:	02603821 	move	a3,s3
8000561c:	8fbf0020 	lw	ra,32(sp)
80005620:	8fb3001c 	lw	s3,28(sp)
80005624:	8fb20018 	lw	s2,24(sp)
80005628:	8fb10014 	lw	s1,20(sp)
8000562c:	8fb00010 	lw	s0,16(sp)
80005630:	03e00008 	jr	ra
80005634:	27bd0028 	addiu	sp,sp,40
80005638:	0c0015df 	jal	8000577c <__sinit>
8000563c:	00000000 	nop
80005640:	08001583 	j	8000560c <_vfscanf_r+0x3c>
80005644:	02002021 	move	a0,s0
	...

80005650 <__env_lock>:
80005650:	03e00008 	jr	ra
80005654:	00000000 	nop

80005658 <__env_unlock>:
80005658:	03e00008 	jr	ra
8000565c:	00000000 	nop

80005660 <__sfp>:
80005660:	27bdffe0 	addiu	sp,sp,-32
80005664:	3c038001 	lui	v1,0x8001
80005668:	afb00010 	sw	s0,16(sp)
8000566c:	8c70ea04 	lw	s0,-5628(v1)
80005670:	afb20018 	sw	s2,24(sp)
80005674:	afbf001c 	sw	ra,28(sp)
80005678:	afb10014 	sw	s1,20(sp)
8000567c:	8e030038 	lw	v1,56(s0)
80005680:	1060003a 	beqz	v1,8000576c <__sfp+0x10c>
80005684:	00809021 	move	s2,a0
80005688:	261002e0 	addiu	s0,s0,736
8000568c:	8e020004 	lw	v0,4(s0)
80005690:	2443ffff 	addiu	v1,v0,-1
80005694:	04600006 	bltz	v1,800056b0 <__sfp+0x50>
80005698:	8e040008 	lw	a0,8(s0)
8000569c:	8485000c 	lh	a1,12(a0)
800056a0:	10a00022 	beqz	a1,8000572c <__sfp+0xcc>
800056a4:	2463ffff 	addiu	v1,v1,-1
800056a8:	0461fffc 	bgez	v1,8000569c <__sfp+0x3c>
800056ac:	24840058 	addiu	a0,a0,88
800056b0:	8e020000 	lw	v0,0(s0)
800056b4:	10400003 	beqz	v0,800056c4 <__sfp+0x64>
800056b8:	02402021 	move	a0,s2
800056bc:	080015a3 	j	8000568c <__sfp+0x2c>
800056c0:	00408021 	move	s0,v0
800056c4:	0c0001cc 	jal	80000730 <_malloc_r>
800056c8:	2405016c 	li	a1,364
800056cc:	00408821 	move	s1,v0
800056d0:	1220000a 	beqz	s1,800056fc <__sfp+0x9c>
800056d4:	00001021 	move	v0,zero
800056d8:	2624000c 	addiu	a0,s1,12
800056dc:	24060004 	li	a2,4
800056e0:	ae260004 	sw	a2,4(s1)
800056e4:	ae200000 	sw	zero,0(s1)
800056e8:	ae240008 	sw	a0,8(s1)
800056ec:	00002821 	move	a1,zero
800056f0:	0c0008d0 	jal	80002340 <memset>
800056f4:	24060160 	li	a2,352
800056f8:	02201021 	move	v0,s1
800056fc:	1440ffef 	bnez	v0,800056bc <__sfp+0x5c>
80005700:	ae020000 	sw	v0,0(s0)
80005704:	2404000c 	li	a0,12
80005708:	00001821 	move	v1,zero
8000570c:	ae440000 	sw	a0,0(s2)
80005710:	8fbf001c 	lw	ra,28(sp)
80005714:	8fb20018 	lw	s2,24(sp)
80005718:	8fb10014 	lw	s1,20(sp)
8000571c:	8fb00010 	lw	s0,16(sp)
80005720:	00601021 	move	v0,v1
80005724:	03e00008 	jr	ra
80005728:	27bd0020 	addiu	sp,sp,32
8000572c:	2408ffff 	li	t0,-1
80005730:	24070001 	li	a3,1
80005734:	a488000e 	sh	t0,14(a0)
80005738:	a487000c 	sh	a3,12(a0)
8000573c:	ac800000 	sw	zero,0(a0)
80005740:	ac800008 	sw	zero,8(a0)
80005744:	ac800004 	sw	zero,4(a0)
80005748:	ac800010 	sw	zero,16(a0)
8000574c:	ac800014 	sw	zero,20(a0)
80005750:	ac800018 	sw	zero,24(a0)
80005754:	ac800030 	sw	zero,48(a0)
80005758:	ac800034 	sw	zero,52(a0)
8000575c:	ac800044 	sw	zero,68(a0)
80005760:	ac800048 	sw	zero,72(a0)
80005764:	080015c4 	j	80005710 <__sfp+0xb0>
80005768:	00801821 	move	v1,a0
8000576c:	0c0015df 	jal	8000577c <__sinit>
80005770:	02002021 	move	a0,s0
80005774:	080015a3 	j	8000568c <__sfp+0x2c>
80005778:	261002e0 	addiu	s0,s0,736

8000577c <__sinit>:
8000577c:	3c038000 	lui	v1,0x8000
80005780:	246b6558 	addiu	t3,v1,25944
80005784:	8c830038 	lw	v1,56(a0)
80005788:	3c068000 	lui	a2,0x8000
8000578c:	3c058000 	lui	a1,0x8000
80005790:	3c028000 	lui	v0,0x8000
80005794:	24c96460 	addiu	t1,a2,25696
80005798:	24aa64c8 	addiu	t2,a1,25800
8000579c:	244865c4 	addiu	t0,v0,26052
800057a0:	240c0001 	li	t4,1
800057a4:	14600037 	bnez	v1,80005884 <__sinit+0x108>
800057a8:	248702ec 	addiu	a3,a0,748
800057ac:	8c8e0004 	lw	t6,4(a0)
800057b0:	8c8d0008 	lw	t5,8(a0)
800057b4:	ac8702e8 	sw	a3,744(a0)
800057b8:	8c87000c 	lw	a3,12(a0)
800057bc:	3c038000 	lui	v1,0x8000
800057c0:	24020003 	li	v0,3
800057c4:	24795904 	addiu	t9,v1,22788
800057c8:	24180004 	li	t8,4
800057cc:	240f0009 	li	t7,9
800057d0:	ac8202e4 	sw	v0,740(a0)
800057d4:	ac8c0038 	sw	t4,56(a0)
800057d8:	adc8002c 	sw	t0,44(t6)
800057dc:	ac99003c 	sw	t9,60(a0)
800057e0:	ac8002e0 	sw	zero,736(a0)
800057e4:	a5d8000c 	sh	t8,12(t6)
800057e8:	adc00000 	sw	zero,0(t6)
800057ec:	adc00004 	sw	zero,4(t6)
800057f0:	adc00008 	sw	zero,8(t6)
800057f4:	a5c0000e 	sh	zero,14(t6)
800057f8:	adc00010 	sw	zero,16(t6)
800057fc:	adc00014 	sw	zero,20(t6)
80005800:	adc00018 	sw	zero,24(t6)
80005804:	adce001c 	sw	t6,28(t6)
80005808:	adc90020 	sw	t1,32(t6)
8000580c:	adca0024 	sw	t2,36(t6)
80005810:	adcb0028 	sw	t3,40(t6)
80005814:	ada8002c 	sw	t0,44(t5)
80005818:	a5af000c 	sh	t7,12(t5)
8000581c:	a5ac000e 	sh	t4,14(t5)
80005820:	ada00000 	sw	zero,0(t5)
80005824:	ada00004 	sw	zero,4(t5)
80005828:	ada00008 	sw	zero,8(t5)
8000582c:	ada00010 	sw	zero,16(t5)
80005830:	ada00014 	sw	zero,20(t5)
80005834:	ada00018 	sw	zero,24(t5)
80005838:	adad001c 	sw	t5,28(t5)
8000583c:	ada90020 	sw	t1,32(t5)
80005840:	adaa0024 	sw	t2,36(t5)
80005844:	adab0028 	sw	t3,40(t5)
80005848:	2404000a 	li	a0,10
8000584c:	ace8002c 	sw	t0,44(a3)
80005850:	24080002 	li	t0,2
80005854:	a4e4000c 	sh	a0,12(a3)
80005858:	a4e8000e 	sh	t0,14(a3)
8000585c:	ace90020 	sw	t1,32(a3)
80005860:	acea0024 	sw	t2,36(a3)
80005864:	aceb0028 	sw	t3,40(a3)
80005868:	ace00000 	sw	zero,0(a3)
8000586c:	ace00004 	sw	zero,4(a3)
80005870:	ace00008 	sw	zero,8(a3)
80005874:	ace00010 	sw	zero,16(a3)
80005878:	ace00014 	sw	zero,20(a3)
8000587c:	ace00018 	sw	zero,24(a3)
80005880:	ace7001c 	sw	a3,28(a3)
80005884:	03e00008 	jr	ra
80005888:	00000000 	nop

8000588c <__sfmoreglue>:
8000588c:	00053040 	sll	a2,a1,0x1
80005890:	27bdffe0 	addiu	sp,sp,-32
80005894:	00c51821 	addu	v1,a2,a1
80005898:	afb10014 	sw	s1,20(sp)
8000589c:	00a08821 	move	s1,a1
800058a0:	00032880 	sll	a1,v1,0x2
800058a4:	00b11823 	subu	v1,a1,s1
800058a8:	afb20018 	sw	s2,24(sp)
800058ac:	000390c0 	sll	s2,v1,0x3
800058b0:	afb00010 	sw	s0,16(sp)
800058b4:	afbf001c 	sw	ra,28(sp)
800058b8:	0c0001cc 	jal	80000730 <_malloc_r>
800058bc:	2645000c 	addiu	a1,s2,12
800058c0:	00408021 	move	s0,v0
800058c4:	12000009 	beqz	s0,800058ec <__sfmoreglue+0x60>
800058c8:	00001021 	move	v0,zero
800058cc:	2604000c 	addiu	a0,s0,12
800058d0:	ae110004 	sw	s1,4(s0)
800058d4:	ae000000 	sw	zero,0(s0)
800058d8:	ae040008 	sw	a0,8(s0)
800058dc:	02403021 	move	a2,s2
800058e0:	0c0008d0 	jal	80002340 <memset>
800058e4:	00002821 	move	a1,zero
800058e8:	02001021 	move	v0,s0
800058ec:	8fbf001c 	lw	ra,28(sp)
800058f0:	8fb20018 	lw	s2,24(sp)
800058f4:	8fb10014 	lw	s1,20(sp)
800058f8:	8fb00010 	lw	s0,16(sp)
800058fc:	03e00008 	jr	ra
80005900:	27bd0020 	addiu	sp,sp,32

80005904 <_cleanup_r>:
80005904:	3c028001 	lui	v0,0x8001
80005908:	27bdffe8 	addiu	sp,sp,-24
8000590c:	afbf0010 	sw	ra,16(sp)
80005910:	0c0016dc 	jal	80005b70 <_fwalk>
80005914:	2445b3c0 	addiu	a1,v0,-19520
80005918:	8fbf0010 	lw	ra,16(sp)
8000591c:	03e00008 	jr	ra
80005920:	27bd0018 	addiu	sp,sp,24

80005924 <_cleanup>:
80005924:	3c038001 	lui	v1,0x8001
80005928:	8c64ea04 	lw	a0,-5628(v1)
8000592c:	3c028001 	lui	v0,0x8001
80005930:	27bdffe8 	addiu	sp,sp,-24
80005934:	afbf0010 	sw	ra,16(sp)
80005938:	0c0016dc 	jal	80005b70 <_fwalk>
8000593c:	2445b3c0 	addiu	a1,v0,-19520
80005940:	8fbf0010 	lw	ra,16(sp)
80005944:	03e00008 	jr	ra
80005948:	27bd0018 	addiu	sp,sp,24
8000594c:	00000000 	nop

80005950 <fread>:
80005950:	27bdffc8 	addiu	sp,sp,-56
80005954:	afb40020 	sw	s4,32(sp)
80005958:	70c5a002 	mul	s4,a2,a1
8000595c:	afb7002c 	sw	s7,44(sp)
80005960:	afb60028 	sw	s6,40(sp)
80005964:	afb3001c 	sw	s3,28(sp)
80005968:	afb00010 	sw	s0,16(sp)
8000596c:	afbf0034 	sw	ra,52(sp)
80005970:	afbe0030 	sw	s8,48(sp)
80005974:	afb50024 	sw	s5,36(sp)
80005978:	afb20018 	sw	s2,24(sp)
8000597c:	afb10014 	sw	s1,20(sp)
80005980:	00a0b021 	move	s6,a1
80005984:	00c0b821 	move	s7,a2
80005988:	00808021 	move	s0,a0
8000598c:	00e09821 	move	s3,a3
80005990:	1280002e 	beqz	s4,80005a4c <fread+0xfc>
80005994:	00001021 	move	v0,zero
80005998:	3c038001 	lui	v1,0x8001
8000599c:	8c64e348 	lw	a0,-7352(v1)
800059a0:	50800005 	beqzl	a0,800059b8 <fread+0x68>
800059a4:	8e660004 	lw	a2,4(s3)
800059a8:	8c850038 	lw	a1,56(a0)
800059ac:	10a0006b 	beqz	a1,80005b5c <fread+0x20c>
800059b0:	00000000 	nop
800059b4:	8e660004 	lw	a2,4(s3)
800059b8:	04c20066 	bltzl	a2,80005b54 <fread+0x204>
800059bc:	ae600004 	sw	zero,4(s3)
800059c0:	9667000c 	lhu	a3,12(s3)
800059c4:	0200a821 	move	s5,s0
800059c8:	30e40002 	andi	a0,a3,0x2
800059cc:	14800032 	bnez	a0,80005a98 <fread+0x148>
800059d0:	0280f021 	move	s8,s4
800059d4:	00d4702b 	sltu	t6,a2,s4
800059d8:	11c00011 	beqz	t6,80005a20 <fread+0xd0>
800059dc:	00c08021 	move	s0,a2
800059e0:	8e650000 	lw	a1,0(s3)
800059e4:	02a02021 	move	a0,s5
800059e8:	0c0017e0 	jal	80005f80 <memcpy>
800059ec:	02003021 	move	a2,s0
800059f0:	8e720000 	lw	s2,0(s3)
800059f4:	02602021 	move	a0,s3
800059f8:	0290a023 	subu	s4,s4,s0
800059fc:	02507821 	addu	t7,s2,s0
80005a00:	0c001824 	jal	80006090 <__srefill>
80005a04:	ae6f0000 	sw	t7,0(s3)
80005a08:	1440001c 	bnez	v0,80005a7c <fread+0x12c>
80005a0c:	02b0a821 	addu	s5,s5,s0
80005a10:	8e700004 	lw	s0,4(s3)
80005a14:	0214c02b 	sltu	t8,s0,s4
80005a18:	5700fff2 	bnezl	t8,800059e4 <fread+0x94>
80005a1c:	8e650000 	lw	a1,0(s3)
80005a20:	8e650000 	lw	a1,0(s3)
80005a24:	02a02021 	move	a0,s5
80005a28:	0c0017e0 	jal	80005f80 <memcpy>
80005a2c:	02803021 	move	a2,s4
80005a30:	8e790004 	lw	t9,4(s3)
80005a34:	8e760000 	lw	s6,0(s3)
80005a38:	03348023 	subu	s0,t9,s4
80005a3c:	02d4a821 	addu	s5,s6,s4
80005a40:	ae750000 	sw	s5,0(s3)
80005a44:	ae700004 	sw	s0,4(s3)
80005a48:	02e01021 	move	v0,s7
80005a4c:	8fbf0034 	lw	ra,52(sp)
80005a50:	8fbe0030 	lw	s8,48(sp)
80005a54:	8fb7002c 	lw	s7,44(sp)
80005a58:	8fb60028 	lw	s6,40(sp)
80005a5c:	8fb50024 	lw	s5,36(sp)
80005a60:	8fb40020 	lw	s4,32(sp)
80005a64:	8fb3001c 	lw	s3,28(sp)
80005a68:	8fb20018 	lw	s2,24(sp)
80005a6c:	8fb10014 	lw	s1,20(sp)
80005a70:	8fb00010 	lw	s0,16(sp)
80005a74:	03e00008 	jr	ra
80005a78:	27bd0038 	addiu	sp,sp,56
80005a7c:	03d41823 	subu	v1,s8,s4
80005a80:	0076001b 	divu	zero,v1,s6
80005a84:	52c00001 	beqzl	s6,80005a8c <fread+0x13c>
80005a88:	0000018d 	break	0x6
80005a8c:	00001012 	mflo	v0
80005a90:	08001694 	j	80005a50 <fread+0x100>
80005a94:	8fbf0034 	lw	ra,52(sp)
80005a98:	00d4502b 	sltu	t2,a2,s4
80005a9c:	8e650000 	lw	a1,0(s3)
80005aa0:	00c08821 	move	s1,a2
80005aa4:	028a880a 	movz	s1,s4,t2
80005aa8:	02203021 	move	a2,s1
80005aac:	0c0017e0 	jal	80005f80 <memcpy>
80005ab0:	02002021 	move	a0,s0
80005ab4:	8e620000 	lw	v0,0(s3)
80005ab8:	8e690004 	lw	t1,4(s3)
80005abc:	8e650030 	lw	a1,48(s3)
80005ac0:	00514021 	addu	t0,v0,s1
80005ac4:	01313023 	subu	a2,t1,s1
80005ac8:	ae680000 	sw	t0,0(s3)
80005acc:	ae660004 	sw	a2,4(s3)
80005ad0:	0291a023 	subu	s4,s4,s1
80005ad4:	10a00009 	beqz	a1,80005afc <fread+0x1ac>
80005ad8:	0211a821 	addu	s5,s0,s1
80005adc:	1280ffdb 	beqz	s4,80005a4c <fread+0xfc>
80005ae0:	02e01021 	move	v0,s7
80005ae4:	266b0040 	addiu	t3,s3,64
80005ae8:	10ab0003 	beq	a1,t3,80005af8 <fread+0x1a8>
80005aec:	3c0c8001 	lui	t4,0x8001
80005af0:	0c0003d4 	jal	80000f50 <_free_r>
80005af4:	8d84e348 	lw	a0,-7352(t4)
80005af8:	ae600030 	sw	zero,48(s3)
80005afc:	1280ffd3 	beqz	s4,80005a4c <fread+0xfc>
80005b00:	02e01021 	move	v0,s7
80005b04:	8e710010 	lw	s1,16(s3)
80005b08:	8e720000 	lw	s2,0(s3)
80005b0c:	8e700014 	lw	s0,20(s3)
80005b10:	ae750010 	sw	s5,16(s3)
80005b14:	ae750000 	sw	s5,0(s3)
80005b18:	ae740014 	sw	s4,20(s3)
80005b1c:	0c001824 	jal	80006090 <__srefill>
80005b20:	02602021 	move	a0,s3
80005b24:	8e6d0004 	lw	t5,4(s3)
80005b28:	ae710010 	sw	s1,16(s3)
80005b2c:	ae700014 	sw	s0,20(s3)
80005b30:	ae720000 	sw	s2,0(s3)
80005b34:	ae600004 	sw	zero,4(s3)
80005b38:	02ada821 	addu	s5,s5,t5
80005b3c:	1440ffcf 	bnez	v0,80005a7c <fread+0x12c>
80005b40:	028da023 	subu	s4,s4,t5
80005b44:	5680fff0 	bnezl	s4,80005b08 <fread+0x1b8>
80005b48:	8e710010 	lw	s1,16(s3)
80005b4c:	08001693 	j	80005a4c <fread+0xfc>
80005b50:	02e01021 	move	v0,s7
80005b54:	08001670 	j	800059c0 <fread+0x70>
80005b58:	00003021 	move	a2,zero
80005b5c:	0c0015df 	jal	8000577c <__sinit>
80005b60:	00000000 	nop
80005b64:	0800166e 	j	800059b8 <fread+0x68>
80005b68:	8e660004 	lw	a2,4(s3)
80005b6c:	00000000 	nop

80005b70 <_fwalk>:
80005b70:	27bdffd0 	addiu	sp,sp,-48
80005b74:	afb20018 	sw	s2,24(sp)
80005b78:	249202e0 	addiu	s2,a0,736
80005b7c:	afb50024 	sw	s5,36(sp)
80005b80:	afb40020 	sw	s4,32(sp)
80005b84:	afbf0028 	sw	ra,40(sp)
80005b88:	afb3001c 	sw	s3,28(sp)
80005b8c:	afb10014 	sw	s1,20(sp)
80005b90:	afb00010 	sw	s0,16(sp)
80005b94:	00a0a821 	move	s5,a1
80005b98:	12400014 	beqz	s2,80005bec <_fwalk+0x7c>
80005b9c:	0000a021 	move	s4,zero
80005ba0:	8e420004 	lw	v0,4(s2)
80005ba4:	2451ffff 	addiu	s1,v0,-1
80005ba8:	0620000d 	bltz	s1,80005be0 <_fwalk+0x70>
80005bac:	8e500008 	lw	s0,8(s2)
80005bb0:	2413ffff 	li	s3,-1
80005bb4:	8603000c 	lh	v1,12(s0)
80005bb8:	10600007 	beqz	v1,80005bd8 <_fwalk+0x68>
80005bbc:	2631ffff 	addiu	s1,s1,-1
80005bc0:	8605000e 	lh	a1,14(s0)
80005bc4:	10b30004 	beq	a1,s3,80005bd8 <_fwalk+0x68>
80005bc8:	02002021 	move	a0,s0
80005bcc:	02a0f809 	jalr	s5
80005bd0:	00000000 	nop
80005bd4:	0282a025 	or	s4,s4,v0
80005bd8:	0621fff6 	bgez	s1,80005bb4 <_fwalk+0x44>
80005bdc:	26100058 	addiu	s0,s0,88
80005be0:	8e520000 	lw	s2,0(s2)
80005be4:	5640ffef 	bnezl	s2,80005ba4 <_fwalk+0x34>
80005be8:	8e420004 	lw	v0,4(s2)
80005bec:	02801021 	move	v0,s4
80005bf0:	8fbf0028 	lw	ra,40(sp)
80005bf4:	8fb50024 	lw	s5,36(sp)
80005bf8:	8fb40020 	lw	s4,32(sp)
80005bfc:	8fb3001c 	lw	s3,28(sp)
80005c00:	8fb20018 	lw	s2,24(sp)
80005c04:	8fb10014 	lw	s1,20(sp)
80005c08:	8fb00010 	lw	s0,16(sp)
80005c0c:	03e00008 	jr	ra
80005c10:	27bd0030 	addiu	sp,sp,48

80005c14 <_fwalk_reent>:
80005c14:	27bdffd0 	addiu	sp,sp,-48
80005c18:	afb20018 	sw	s2,24(sp)
80005c1c:	249202e0 	addiu	s2,a0,736
80005c20:	afb60028 	sw	s6,40(sp)
80005c24:	afb50024 	sw	s5,36(sp)
80005c28:	afb3001c 	sw	s3,28(sp)
80005c2c:	afbf002c 	sw	ra,44(sp)
80005c30:	afb40020 	sw	s4,32(sp)
80005c34:	afb10014 	sw	s1,20(sp)
80005c38:	afb00010 	sw	s0,16(sp)
80005c3c:	0080a821 	move	s5,a0
80005c40:	00a0b021 	move	s6,a1
80005c44:	12400015 	beqz	s2,80005c9c <_fwalk_reent+0x88>
80005c48:	00009821 	move	s3,zero
80005c4c:	8e420004 	lw	v0,4(s2)
80005c50:	2451ffff 	addiu	s1,v0,-1
80005c54:	0620000e 	bltz	s1,80005c90 <_fwalk_reent+0x7c>
80005c58:	8e500008 	lw	s0,8(s2)
80005c5c:	2414ffff 	li	s4,-1
80005c60:	8603000c 	lh	v1,12(s0)
80005c64:	10600008 	beqz	v1,80005c88 <_fwalk_reent+0x74>
80005c68:	2631ffff 	addiu	s1,s1,-1
80005c6c:	8606000e 	lh	a2,14(s0)
80005c70:	02002821 	move	a1,s0
80005c74:	10d40004 	beq	a2,s4,80005c88 <_fwalk_reent+0x74>
80005c78:	02a02021 	move	a0,s5
80005c7c:	02c0f809 	jalr	s6
80005c80:	00000000 	nop
80005c84:	02629825 	or	s3,s3,v0
80005c88:	0621fff5 	bgez	s1,80005c60 <_fwalk_reent+0x4c>
80005c8c:	26100058 	addiu	s0,s0,88
80005c90:	8e520000 	lw	s2,0(s2)
80005c94:	5640ffee 	bnezl	s2,80005c50 <_fwalk_reent+0x3c>
80005c98:	8e420004 	lw	v0,4(s2)
80005c9c:	02601021 	move	v0,s3
80005ca0:	8fbf002c 	lw	ra,44(sp)
80005ca4:	8fb60028 	lw	s6,40(sp)
80005ca8:	8fb50024 	lw	s5,36(sp)
80005cac:	8fb40020 	lw	s4,32(sp)
80005cb0:	8fb3001c 	lw	s3,28(sp)
80005cb4:	8fb20018 	lw	s2,24(sp)
80005cb8:	8fb10014 	lw	s1,20(sp)
80005cbc:	8fb00010 	lw	s0,16(sp)
80005cc0:	03e00008 	jr	ra
80005cc4:	27bd0030 	addiu	sp,sp,48
	...

80005cd0 <iswspace>:
80005cd0:	3c058001 	lui	a1,0x8001
80005cd4:	24a3ebe0 	addiu	v1,a1,-5152
80005cd8:	00831021 	addu	v0,a0,v1
80005cdc:	2c830100 	sltiu	v1,a0,256
80005ce0:	10600004 	beqz	v1,80005cf4 <iswspace+0x24>
80005ce4:	00000000 	nop
80005ce8:	90440000 	lbu	a0,0(v0)
80005cec:	03e00008 	jr	ra
80005cf0:	30820008 	andi	v0,a0,0x8
80005cf4:	03e00008 	jr	ra
80005cf8:	00001021 	move	v0,zero
80005cfc:	00000000 	nop

80005d00 <_setlocale_r>:
80005d00:	27bdffd8 	addiu	sp,sp,-40
80005d04:	afb10014 	sw	s1,20(sp)
80005d08:	3c118001 	lui	s1,0x8001
80005d0c:	2623f194 	addiu	v1,s1,-3692
80005d10:	afb3001c 	sw	s3,28(sp)
80005d14:	afb20018 	sw	s2,24(sp)
80005d18:	afb00010 	sw	s0,16(sp)
80005d1c:	00809021 	move	s2,a0
80005d20:	00a09821 	move	s3,a1
80005d24:	afbf0020 	sw	ra,32(sp)
80005d28:	00c08021 	move	s0,a2
80005d2c:	00c02021 	move	a0,a2
80005d30:	10c0000a 	beqz	a2,80005d5c <_setlocale_r+0x5c>
80005d34:	00602821 	move	a1,v1
80005d38:	0c001008 	jal	80004020 <strcmp>
80005d3c:	00000000 	nop
80005d40:	3c038001 	lui	v1,0x8001
80005d44:	02002021 	move	a0,s0
80005d48:	1440000c 	bnez	v0,80005d7c <_setlocale_r+0x7c>
80005d4c:	2465f154 	addiu	a1,v1,-3756
80005d50:	ae500034 	sw	s0,52(s2)
80005d54:	ae530030 	sw	s3,48(s2)
80005d58:	2623f194 	addiu	v1,s1,-3692
80005d5c:	8fbf0020 	lw	ra,32(sp)
80005d60:	8fb3001c 	lw	s3,28(sp)
80005d64:	8fb20018 	lw	s2,24(sp)
80005d68:	8fb10014 	lw	s1,20(sp)
80005d6c:	8fb00010 	lw	s0,16(sp)
80005d70:	00601021 	move	v0,v1
80005d74:	03e00008 	jr	ra
80005d78:	27bd0028 	addiu	sp,sp,40
80005d7c:	0c001008 	jal	80004020 <strcmp>
80005d80:	00000000 	nop
80005d84:	1440fff5 	bnez	v0,80005d5c <_setlocale_r+0x5c>
80005d88:	00001821 	move	v1,zero
80005d8c:	08001755 	j	80005d54 <_setlocale_r+0x54>
80005d90:	ae500034 	sw	s0,52(s2)

80005d94 <__locale_charset>:
80005d94:	3c048001 	lui	a0,0x8001
80005d98:	03e00008 	jr	ra
80005d9c:	8c82e940 	lw	v0,-5824(a0)

80005da0 <_localeconv_r>:
80005da0:	3c038001 	lui	v1,0x8001
80005da4:	03e00008 	jr	ra
80005da8:	2462f158 	addiu	v0,v1,-3752

80005dac <setlocale>:
80005dac:	27bdffd8 	addiu	sp,sp,-40
80005db0:	afb20018 	sw	s2,24(sp)
80005db4:	3c128001 	lui	s2,0x8001
80005db8:	afb00010 	sw	s0,16(sp)
80005dbc:	2642f194 	addiu	v0,s2,-3692
80005dc0:	00a08021 	move	s0,a1
80005dc4:	3c038001 	lui	v1,0x8001
80005dc8:	afb3001c 	sw	s3,28(sp)
80005dcc:	afb10014 	sw	s1,20(sp)
80005dd0:	00809821 	move	s3,a0
80005dd4:	afbf0020 	sw	ra,32(sp)
80005dd8:	00402821 	move	a1,v0
80005ddc:	8c71e348 	lw	s1,-7352(v1)
80005de0:	12000009 	beqz	s0,80005e08 <setlocale+0x5c>
80005de4:	02002021 	move	a0,s0
80005de8:	0c001008 	jal	80004020 <strcmp>
80005dec:	00000000 	nop
80005df0:	3c038001 	lui	v1,0x8001
80005df4:	2465f154 	addiu	a1,v1,-3756
80005df8:	1440000c 	bnez	v0,80005e2c <setlocale+0x80>
80005dfc:	02002021 	move	a0,s0
80005e00:	ae300034 	sw	s0,52(s1)
80005e04:	ae330030 	sw	s3,48(s1)
80005e08:	2643f194 	addiu	v1,s2,-3692
80005e0c:	8fbf0020 	lw	ra,32(sp)
80005e10:	8fb3001c 	lw	s3,28(sp)
80005e14:	8fb20018 	lw	s2,24(sp)
80005e18:	8fb10014 	lw	s1,20(sp)
80005e1c:	8fb00010 	lw	s0,16(sp)
80005e20:	00601021 	move	v0,v1
80005e24:	03e00008 	jr	ra
80005e28:	27bd0028 	addiu	sp,sp,40
80005e2c:	0c001008 	jal	80004020 <strcmp>
80005e30:	00000000 	nop
80005e34:	1440fff5 	bnez	v0,80005e0c <setlocale+0x60>
80005e38:	00001821 	move	v1,zero
80005e3c:	08001781 	j	80005e04 <setlocale+0x58>
80005e40:	ae300034 	sw	s0,52(s1)

80005e44 <localeconv>:
80005e44:	3c038001 	lui	v1,0x8001
80005e48:	03e00008 	jr	ra
80005e4c:	2462f158 	addiu	v0,v1,-3752

80005e50 <_mbrtowc_r>:
80005e50:	27bdffd8 	addiu	sp,sp,-40
80005e54:	afb1001c 	sw	s1,28(sp)
80005e58:	afb00018 	sw	s0,24(sp)
80005e5c:	afbf0020 	sw	ra,32(sp)
80005e60:	8fb00038 	lw	s0,56(sp)
80005e64:	10c00011 	beqz	a2,80005eac <_mbrtowc_r+0x5c>
80005e68:	00808821 	move	s1,a0
80005e6c:	0c0017d4 	jal	80005f50 <_mbtowc_r>
80005e70:	afb00010 	sw	s0,16(sp)
80005e74:	2405ffff 	li	a1,-1
80005e78:	10450008 	beq	v0,a1,80005e9c <_mbrtowc_r+0x4c>
80005e7c:	2404ffff 	li	a0,-1
80005e80:	00402021 	move	a0,v0
80005e84:	8fbf0020 	lw	ra,32(sp)
80005e88:	8fb1001c 	lw	s1,28(sp)
80005e8c:	8fb00018 	lw	s0,24(sp)
80005e90:	00801021 	move	v0,a0
80005e94:	03e00008 	jr	ra
80005e98:	27bd0028 	addiu	sp,sp,40
80005e9c:	2403008a 	li	v1,138
80005ea0:	ae000000 	sw	zero,0(s0)
80005ea4:	080017a1 	j	80005e84 <_mbrtowc_r+0x34>
80005ea8:	ae230000 	sw	v1,0(s1)
80005eac:	3c028001 	lui	v0,0x8001
80005eb0:	2446f1a0 	addiu	a2,v0,-3680
80005eb4:	00002821 	move	a1,zero
80005eb8:	0800179b 	j	80005e6c <_mbrtowc_r+0x1c>
80005ebc:	24070001 	li	a3,1

80005ec0 <mbrtowc>:
80005ec0:	27bdffd8 	addiu	sp,sp,-40
80005ec4:	3c038001 	lui	v1,0x8001
80005ec8:	afb00018 	sw	s0,24(sp)
80005ecc:	8c70e348 	lw	s0,-7352(v1)
80005ed0:	00801021 	move	v0,a0
80005ed4:	3c048001 	lui	a0,0x8001
80005ed8:	afb1001c 	sw	s1,28(sp)
80005edc:	00c01821 	move	v1,a2
80005ee0:	00e08821 	move	s1,a3
80005ee4:	2486f1a0 	addiu	a2,a0,-3680
80005ee8:	afbf0020 	sw	ra,32(sp)
80005eec:	00a04021 	move	t0,a1
80005ef0:	24070001 	li	a3,1
80005ef4:	10a00005 	beqz	a1,80005f0c <mbrtowc+0x4c>
80005ef8:	02002021 	move	a0,s0
80005efc:	00402821 	move	a1,v0
80005f00:	01003021 	move	a2,t0
80005f04:	00603821 	move	a3,v1
80005f08:	02002021 	move	a0,s0
80005f0c:	0c0017d4 	jal	80005f50 <_mbtowc_r>
80005f10:	afb10010 	sw	s1,16(sp)
80005f14:	2405ffff 	li	a1,-1
80005f18:	10450008 	beq	v0,a1,80005f3c <mbrtowc+0x7c>
80005f1c:	2404ffff 	li	a0,-1
80005f20:	00402021 	move	a0,v0
80005f24:	8fbf0020 	lw	ra,32(sp)
80005f28:	8fb1001c 	lw	s1,28(sp)
80005f2c:	8fb00018 	lw	s0,24(sp)
80005f30:	00801021 	move	v0,a0
80005f34:	03e00008 	jr	ra
80005f38:	27bd0028 	addiu	sp,sp,40
80005f3c:	2406008a 	li	a2,138
80005f40:	ae200000 	sw	zero,0(s1)
80005f44:	080017c9 	j	80005f24 <mbrtowc+0x64>
80005f48:	ae060000 	sw	a2,0(s0)
80005f4c:	00000000 	nop

80005f50 <_mbtowc_r>:
80005f50:	27bdfff8 	addiu	sp,sp,-8
80005f54:	00001021 	move	v0,zero
80005f58:	10c00007 	beqz	a2,80005f78 <_mbtowc_r+0x28>
80005f5c:	03a5280a 	movz	a1,sp,a1
80005f60:	10e00005 	beqz	a3,80005f78 <_mbtowc_r+0x28>
80005f64:	2402fffe 	li	v0,-2
80005f68:	90c30000 	lbu	v1,0(a2)
80005f6c:	aca30000 	sw	v1,0(a1)
80005f70:	90c40000 	lbu	a0,0(a2)
80005f74:	0004102b 	sltu	v0,zero,a0
80005f78:	03e00008 	jr	ra
80005f7c:	27bd0008 	addiu	sp,sp,8

80005f80 <memcpy>:
80005f80:	00805021 	move	t2,a0
80005f84:	00a42025 	or	a0,a1,a0
80005f88:	30830003 	andi	v1,a0,0x3
80005f8c:	14600026 	bnez	v1,80006028 <memcpy+0xa8>
80005f90:	28c80000 	slti	t0,a2,0
80005f94:	00064102 	srl	t0,a2,0x4
80005f98:	00a04821 	move	t1,a1
80005f9c:	30c6000f 	andi	a2,a2,0xf
80005fa0:	1100000d 	beqz	t0,80005fd8 <memcpy+0x58>
80005fa4:	01403821 	move	a3,t2
80005fa8:	8d230000 	lw	v1,0(t1)
80005fac:	8d2c0004 	lw	t4,4(t1)
80005fb0:	8d250008 	lw	a1,8(t1)
80005fb4:	8d2b000c 	lw	t3,12(t1)
80005fb8:	2508ffff 	addiu	t0,t0,-1
80005fbc:	ace30000 	sw	v1,0(a3)
80005fc0:	acec0004 	sw	t4,4(a3)
80005fc4:	ace50008 	sw	a1,8(a3)
80005fc8:	aceb000c 	sw	t3,12(a3)
80005fcc:	25290010 	addiu	t1,t1,16
80005fd0:	1500fff5 	bnez	t0,80005fa8 <memcpy+0x28>
80005fd4:	24e70010 	addiu	a3,a3,16
80005fd8:	00064082 	srl	t0,a2,0x2
80005fdc:	11000007 	beqz	t0,80005ffc <memcpy+0x7c>
80005fe0:	30c60003 	andi	a2,a2,0x3
80005fe4:	8d2d0000 	lw	t5,0(t1)
80005fe8:	2508ffff 	addiu	t0,t0,-1
80005fec:	25290004 	addiu	t1,t1,4
80005ff0:	aced0000 	sw	t5,0(a3)
80005ff4:	1500fffb 	bnez	t0,80005fe4 <memcpy+0x64>
80005ff8:	24e70004 	addiu	a3,a3,4
80005ffc:	00e01821 	move	v1,a3
80006000:	18c00007 	blez	a2,80006020 <memcpy+0xa0>
80006004:	01202821 	move	a1,t1
80006008:	90a70000 	lbu	a3,0(a1)
8000600c:	24c6ffff 	addiu	a2,a2,-1
80006010:	24a50001 	addiu	a1,a1,1
80006014:	a0670000 	sb	a3,0(v1)
80006018:	1cc0fffb 	bgtz	a2,80006008 <memcpy+0x88>
8000601c:	24630001 	addiu	v1,v1,1
80006020:	03e00008 	jr	ra
80006024:	01401021 	move	v0,t2
80006028:	24c90003 	addiu	t1,a2,3
8000602c:	00c8480a 	movz	t1,a2,t0
80006030:	00094083 	sra	t0,t1,0x2
80006034:	00081080 	sll	v0,t0,0x2
80006038:	00c23023 	subu	a2,a2,v0
8000603c:	11000009 	beqz	t0,80006064 <memcpy+0xe4>
80006040:	01401821 	move	v1,t2
80006044:	88ae0003 	lwl	t6,3(a1)
80006048:	98ae0000 	lwr	t6,0(a1)
8000604c:	2508ffff 	addiu	t0,t0,-1
80006050:	a86e0003 	swl	t6,3(v1)
80006054:	b86e0000 	swr	t6,0(v1)
80006058:	24a50004 	addiu	a1,a1,4
8000605c:	1500fff9 	bnez	t0,80006044 <memcpy+0xc4>
80006060:	24630004 	addiu	v1,v1,4
80006064:	18c0ffee 	blez	a2,80006020 <memcpy+0xa0>
80006068:	00000000 	nop
8000606c:	90af0000 	lbu	t7,0(a1)
80006070:	24c6ffff 	addiu	a2,a2,-1
80006074:	24a50001 	addiu	a1,a1,1
80006078:	a06f0000 	sb	t7,0(v1)
8000607c:	1cc0fffb 	bgtz	a2,8000606c <memcpy+0xec>
80006080:	24630001 	addiu	v1,v1,1
80006084:	08001808 	j	80006020 <memcpy+0xa0>
80006088:	00000000 	nop
8000608c:	00000000 	nop

80006090 <__srefill>:
80006090:	3c058001 	lui	a1,0x8001
80006094:	8ca3e348 	lw	v1,-7352(a1)
80006098:	27bdffe8 	addiu	sp,sp,-24
8000609c:	afb00010 	sw	s0,16(sp)
800060a0:	afbf0014 	sw	ra,20(sp)
800060a4:	10600004 	beqz	v1,800060b8 <__srefill+0x28>
800060a8:	00808021 	move	s0,a0
800060ac:	8c640038 	lw	a0,56(v1)
800060b0:	10800057 	beqz	a0,80006210 <__srefill+0x180>
800060b4:	00000000 	nop
800060b8:	9603000c 	lhu	v1,12(s0)
800060bc:	ae000004 	sw	zero,4(s0)
800060c0:	30650020 	andi	a1,v1,0x20
800060c4:	14a00020 	bnez	a1,80006148 <__srefill+0xb8>
800060c8:	2404ffff 	li	a0,-1
800060cc:	30660004 	andi	a2,v1,0x4
800060d0:	54c00040 	bnezl	a2,800061d4 <__srefill+0x144>
800060d4:	8e050030 	lw	a1,48(s0)
800060d8:	30670010 	andi	a3,v1,0x10
800060dc:	10e0001b 	beqz	a3,8000614c <__srefill+0xbc>
800060e0:	8fbf0014 	lw	ra,20(sp)
800060e4:	30680008 	andi	t0,v1,0x8
800060e8:	1500002f 	bnez	t0,800061a8 <__srefill+0x118>
800060ec:	00000000 	nop
800060f0:	346a0004 	ori	t2,v1,0x4
800060f4:	a60a000c 	sh	t2,12(s0)
800060f8:	8e0f0010 	lw	t7,16(s0)
800060fc:	11e00026 	beqz	t7,80006198 <__srefill+0x108>
80006100:	00000000 	nop
80006104:	9619000c 	lhu	t9,12(s0)
80006108:	33380003 	andi	t8,t9,0x3
8000610c:	1700001c 	bnez	t8,80006180 <__srefill+0xf0>
80006110:	3c058001 	lui	a1,0x8001
80006114:	8e050010 	lw	a1,16(s0)
80006118:	8e04001c 	lw	a0,28(s0)
8000611c:	8e060014 	lw	a2,20(s0)
80006120:	8e020020 	lw	v0,32(s0)
80006124:	0040f809 	jalr	v0
80006128:	ae050000 	sw	a1,0(s0)
8000612c:	9606000c 	lhu	a2,12(s0)
80006130:	00401821 	move	v1,v0
80006134:	ae020004 	sw	v0,4(s0)
80006138:	30c2dfff 	andi	v0,a2,0xdfff
8000613c:	00002021 	move	a0,zero
80006140:	18600006 	blez	v1,8000615c <__srefill+0xcc>
80006144:	a602000c 	sh	v0,12(s0)
80006148:	8fbf0014 	lw	ra,20(sp)
8000614c:	8fb00010 	lw	s0,16(sp)
80006150:	00801021 	move	v0,a0
80006154:	03e00008 	jr	ra
80006158:	27bd0018 	addiu	sp,sp,24
8000615c:	14600005 	bnez	v1,80006174 <__srefill+0xe4>
80006160:	34470040 	ori	a3,v0,0x40
80006164:	34440020 	ori	a0,v0,0x20
80006168:	a604000c 	sh	a0,12(s0)
8000616c:	08001852 	j	80006148 <__srefill+0xb8>
80006170:	2404ffff 	li	a0,-1
80006174:	a607000c 	sh	a3,12(s0)
80006178:	0800185b 	j	8000616c <__srefill+0xdc>
8000617c:	ae000004 	sw	zero,4(s0)
80006180:	8ca4ea04 	lw	a0,-5628(a1)
80006184:	3c028000 	lui	v0,0x8000
80006188:	0c0016dc 	jal	80005b70 <_fwalk>
8000618c:	24456220 	addiu	a1,v0,25120
80006190:	08001846 	j	80006118 <__srefill+0x88>
80006194:	8e050010 	lw	a1,16(s0)
80006198:	0c002e54 	jal	8000b950 <__smakebuf>
8000619c:	02002021 	move	a0,s0
800061a0:	08001842 	j	80006108 <__srefill+0x78>
800061a4:	9619000c 	lhu	t9,12(s0)
800061a8:	0c002cfc 	jal	8000b3f0 <fflush>
800061ac:	02002021 	move	a0,s0
800061b0:	1440ffe5 	bnez	v0,80006148 <__srefill+0xb8>
800061b4:	2404ffff 	li	a0,-1
800061b8:	9603000c 	lhu	v1,12(s0)
800061bc:	ae000008 	sw	zero,8(s0)
800061c0:	ae000018 	sw	zero,24(s0)
800061c4:	3069fff7 	andi	t1,v1,0xfff7
800061c8:	a609000c 	sh	t1,12(s0)
800061cc:	0800183c 	j	800060f0 <__srefill+0x60>
800061d0:	01201821 	move	v1,t1
800061d4:	50a0ffc9 	beqzl	a1,800060fc <__srefill+0x6c>
800061d8:	8e0f0010 	lw	t7,16(s0)
800061dc:	260b0040 	addiu	t3,s0,64
800061e0:	10ab0003 	beq	a1,t3,800061f0 <__srefill+0x160>
800061e4:	3c0c8001 	lui	t4,0x8001
800061e8:	0c0003d4 	jal	80000f50 <_free_r>
800061ec:	8d84e348 	lw	a0,-7352(t4)
800061f0:	8e0d003c 	lw	t5,60(s0)
800061f4:	ae000030 	sw	zero,48(s0)
800061f8:	11a0ffbf 	beqz	t5,800060f8 <__srefill+0x68>
800061fc:	ae0d0004 	sw	t5,4(s0)
80006200:	8e0e0038 	lw	t6,56(s0)
80006204:	00002021 	move	a0,zero
80006208:	08001852 	j	80006148 <__srefill+0xb8>
8000620c:	ae0e0000 	sw	t6,0(s0)
80006210:	0c0015df 	jal	8000577c <__sinit>
80006214:	00602021 	move	a0,v1
80006218:	0800182f 	j	800060bc <__srefill+0x2c>
8000621c:	9603000c 	lhu	v1,12(s0)

80006220 <lflush>:
80006220:	27bdffe8 	addiu	sp,sp,-24
80006224:	afbf0010 	sw	ra,16(sp)
80006228:	9486000c 	lhu	a2,12(a0)
8000622c:	30c20009 	andi	v0,a2,0x9
80006230:	24060009 	li	a2,9
80006234:	10460005 	beq	v0,a2,8000624c <lflush+0x2c>
80006238:	00002821 	move	a1,zero
8000623c:	8fbf0010 	lw	ra,16(sp)
80006240:	00a01021 	move	v0,a1
80006244:	03e00008 	jr	ra
80006248:	27bd0018 	addiu	sp,sp,24
8000624c:	0c002cfc 	jal	8000b3f0 <fflush>
80006250:	00000000 	nop
80006254:	0800188f 	j	8000623c <lflush+0x1c>
80006258:	00402821 	move	a1,v0
8000625c:	00000000 	nop

80006260 <isnan>:
80006260:	44046000 	mfc1	a0,$f12
80006264:	44056800 	mfc1	a1,$f13
80006268:	3c0a7fff 	lui	t2,0x7fff
8000626c:	00041023 	negu	v0,a0
80006270:	00444025 	or	t0,v0,a0
80006274:	3549ffff 	ori	t1,t2,0xffff
80006278:	01252024 	and	a0,t1,a1
8000627c:	00083fc2 	srl	a3,t0,0x1f
80006280:	00872825 	or	a1,a0,a3
80006284:	3c067ff0 	lui	a2,0x7ff0
80006288:	00c51823 	subu	v1,a2,a1
8000628c:	03e00008 	jr	ra
80006290:	000317c2 	srl	v0,v1,0x1f
	...

800062a0 <__sccl>:
800062a0:	90a60000 	lbu	a2,0(a1)
800062a4:	2403005e 	li	v1,94
800062a8:	10c30030 	beq	a2,v1,8000636c <__sccl+0xcc>
800062ac:	24a50001 	addiu	a1,a1,1
800062b0:	00004021 	move	t0,zero
800062b4:	00003821 	move	a3,zero
800062b8:	00871021 	addu	v0,a0,a3
800062bc:	24e70001 	addiu	a3,a3,1
800062c0:	28e90100 	slti	t1,a3,256
800062c4:	1520fffc 	bnez	t1,800062b8 <__sccl+0x18>
800062c8:	a0480000 	sb	t0,0(v0)
800062cc:	10c00021 	beqz	a2,80006354 <__sccl+0xb4>
800062d0:	24a2ffff 	addiu	v0,a1,-1
800062d4:	24030001 	li	v1,1
800062d8:	00684023 	subu	t0,v1,t0
800062dc:	240a002d 	li	t2,45
800062e0:	240b005d 	li	t3,93
800062e4:	2409005d 	li	t1,93
800062e8:	00863821 	addu	a3,a0,a2
800062ec:	a0e80000 	sb	t0,0(a3)
800062f0:	90a70000 	lbu	a3,0(a1)
800062f4:	14ea0010 	bne	a3,t2,80006338 <__sccl+0x98>
800062f8:	24a50001 	addiu	a1,a1,1
800062fc:	90a70000 	lbu	a3,0(a1)
80006300:	10e9000b 	beq	a3,t1,80006330 <__sccl+0x90>
80006304:	00e6602a 	slt	t4,a3,a2
80006308:	5580fff7 	bnezl	t4,800062e8 <__sccl+0x48>
8000630c:	2406002d 	li	a2,45
80006310:	24a50001 	addiu	a1,a1,1
80006314:	24c60001 	addiu	a2,a2,1
80006318:	00867021 	addu	t6,a0,a2
8000631c:	00c7682a 	slt	t5,a2,a3
80006320:	15a0fffc 	bnez	t5,80006314 <__sccl+0x74>
80006324:	a1c80000 	sb	t0,0(t6)
80006328:	080018bd 	j	800062f4 <__sccl+0x54>
8000632c:	90a70000 	lbu	a3,0(a1)
80006330:	080018ba 	j	800062e8 <__sccl+0x48>
80006334:	2406002d 	li	a2,45
80006338:	28e6002e 	slti	a2,a3,46
8000633c:	10c00007 	beqz	a2,8000635c <__sccl+0xbc>
80006340:	00000000 	nop
80006344:	10e00003 	beqz	a3,80006354 <__sccl+0xb4>
80006348:	24a2ffff 	addiu	v0,a1,-1
8000634c:	080018ba 	j	800062e8 <__sccl+0x48>
80006350:	00e03021 	move	a2,a3
80006354:	03e00008 	jr	ra
80006358:	00000000 	nop
8000635c:	10ebfffd 	beq	a3,t3,80006354 <__sccl+0xb4>
80006360:	00a01021 	move	v0,a1
80006364:	080018ba 	j	800062e8 <__sccl+0x48>
80006368:	00e03021 	move	a2,a3
8000636c:	90a60000 	lbu	a2,0(a1)
80006370:	24080001 	li	t0,1
80006374:	080018ad 	j	800062b4 <__sccl+0x14>
80006378:	24a50001 	addiu	a1,a1,1
8000637c:	00000000 	nop

80006380 <nanf>:
80006380:	3c037fc0 	lui	v1,0x7fc0
80006384:	03e00008 	jr	ra
80006388:	44830000 	mtc1	v1,$f0
8000638c:	00000000 	nop

80006390 <_sprintf_r>:
80006390:	afa60008 	sw	a2,8(sp)
80006394:	afa7000c 	sw	a3,12(sp)
80006398:	3c027fff 	lui	v0,0x7fff
8000639c:	27bdff90 	addiu	sp,sp,-112
800063a0:	00a05021 	move	t2,a1
800063a4:	3449ffff 	ori	t1,v0,0xffff
800063a8:	240b0208 	li	t3,520
800063ac:	2408ffff 	li	t0,-1
800063b0:	27a7007c 	addiu	a3,sp,124
800063b4:	27a50010 	addiu	a1,sp,16
800063b8:	afbf0068 	sw	ra,104(sp)
800063bc:	a7ab001c 	sh	t3,28(sp)
800063c0:	afaa0020 	sw	t2,32(sp)
800063c4:	afa90024 	sw	t1,36(sp)
800063c8:	a7a8001e 	sh	t0,30(sp)
800063cc:	afaa0010 	sw	t2,16(sp)
800063d0:	0c001e1c 	jal	80007870 <_vfprintf_r>
800063d4:	afa90018 	sw	t1,24(sp)
800063d8:	8fa40010 	lw	a0,16(sp)
800063dc:	8fbf0068 	lw	ra,104(sp)
800063e0:	a0800000 	sb	zero,0(a0)
800063e4:	03e00008 	jr	ra
800063e8:	27bd0070 	addiu	sp,sp,112

800063ec <sprintf>:
800063ec:	3c038001 	lui	v1,0x8001
800063f0:	00805021 	move	t2,a0
800063f4:	8c64e348 	lw	a0,-7352(v1)
800063f8:	afa50004 	sw	a1,4(sp)
800063fc:	afa60008 	sw	a2,8(sp)
80006400:	afa7000c 	sw	a3,12(sp)
80006404:	3c027fff 	lui	v0,0x7fff
80006408:	27bdff90 	addiu	sp,sp,-112
8000640c:	3449ffff 	ori	t1,v0,0xffff
80006410:	00a03021 	move	a2,a1
80006414:	240b0208 	li	t3,520
80006418:	2408ffff 	li	t0,-1
8000641c:	27a70078 	addiu	a3,sp,120
80006420:	27a50010 	addiu	a1,sp,16
80006424:	afbf0068 	sw	ra,104(sp)
80006428:	a7ab001c 	sh	t3,28(sp)
8000642c:	afaa0020 	sw	t2,32(sp)
80006430:	afa90024 	sw	t1,36(sp)
80006434:	a7a8001e 	sh	t0,30(sp)
80006438:	afaa0010 	sw	t2,16(sp)
8000643c:	0c001e1c 	jal	80007870 <_vfprintf_r>
80006440:	afa90018 	sw	t1,24(sp)
80006444:	8fa40010 	lw	a0,16(sp)
80006448:	8fbf0068 	lw	ra,104(sp)
8000644c:	a0800000 	sb	zero,0(a0)
80006450:	03e00008 	jr	ra
80006454:	27bd0070 	addiu	sp,sp,112
	...

80006460 <__sread>:
80006460:	27bdffe8 	addiu	sp,sp,-24
80006464:	afb00010 	sw	s0,16(sp)
80006468:	afbf0014 	sw	ra,20(sp)
8000646c:	8483000e 	lh	v1,14(a0)
80006470:	3c078001 	lui	a3,0x8001
80006474:	00808021 	move	s0,a0
80006478:	8ce4e348 	lw	a0,-7352(a3)
8000647c:	00a01021 	move	v0,a1
80006480:	00c03821 	move	a3,a2
80006484:	00602821 	move	a1,v1
80006488:	0c003300 	jal	8000cc00 <_read_r>
8000648c:	00403021 	move	a2,v0
80006490:	04400009 	bltz	v0,800064b8 <__sread+0x58>
80006494:	00401821 	move	v1,v0
80006498:	8e050050 	lw	a1,80(s0)
8000649c:	00a22021 	addu	a0,a1,v0
800064a0:	ae040050 	sw	a0,80(s0)
800064a4:	8fbf0014 	lw	ra,20(sp)
800064a8:	8fb00010 	lw	s0,16(sp)
800064ac:	00601021 	move	v0,v1
800064b0:	03e00008 	jr	ra
800064b4:	27bd0018 	addiu	sp,sp,24
800064b8:	9608000c 	lhu	t0,12(s0)
800064bc:	3106efff 	andi	a2,t0,0xefff
800064c0:	08001929 	j	800064a4 <__sread+0x44>
800064c4:	a606000c 	sh	a2,12(s0)

800064c8 <__swrite>:
800064c8:	27bdffd8 	addiu	sp,sp,-40
800064cc:	afb3001c 	sw	s3,28(sp)
800064d0:	afb20018 	sw	s2,24(sp)
800064d4:	afb10014 	sw	s1,20(sp)
800064d8:	afb00010 	sw	s0,16(sp)
800064dc:	afbf0020 	sw	ra,32(sp)
800064e0:	00808021 	move	s0,a0
800064e4:	9484000c 	lhu	a0,12(a0)
800064e8:	00c09021 	move	s2,a2
800064ec:	3c118001 	lui	s1,0x8001
800064f0:	30830100 	andi	v1,a0,0x100
800064f4:	24070002 	li	a3,2
800064f8:	00a09821 	move	s3,a1
800064fc:	14600011 	bnez	v1,80006544 <__swrite+0x7c>
80006500:	00003021 	move	a2,zero
80006504:	3c118001 	lui	s1,0x8001
80006508:	9608000c 	lhu	t0,12(s0)
8000650c:	8605000e 	lh	a1,14(s0)
80006510:	8e24e348 	lw	a0,-7352(s1)
80006514:	3103efff 	andi	v1,t0,0xefff
80006518:	02603021 	move	a2,s3
8000651c:	02403821 	move	a3,s2
80006520:	0c00276c 	jal	80009db0 <_write_r>
80006524:	a603000c 	sh	v1,12(s0)
80006528:	8fbf0020 	lw	ra,32(sp)
8000652c:	8fb3001c 	lw	s3,28(sp)
80006530:	8fb20018 	lw	s2,24(sp)
80006534:	8fb10014 	lw	s1,20(sp)
80006538:	8fb00010 	lw	s0,16(sp)
8000653c:	03e00008 	jr	ra
80006540:	27bd0028 	addiu	sp,sp,40
80006544:	8605000e 	lh	a1,14(s0)
80006548:	0c002e3c 	jal	8000b8f0 <_lseek_r>
8000654c:	8e24e348 	lw	a0,-7352(s1)
80006550:	08001943 	j	8000650c <__swrite+0x44>
80006554:	9608000c 	lhu	t0,12(s0)

80006558 <__sseek>:
80006558:	27bdffe8 	addiu	sp,sp,-24
8000655c:	afb00010 	sw	s0,16(sp)
80006560:	afbf0014 	sw	ra,20(sp)
80006564:	8483000e 	lh	v1,14(a0)
80006568:	3c078001 	lui	a3,0x8001
8000656c:	00808021 	move	s0,a0
80006570:	8ce4e348 	lw	a0,-7352(a3)
80006574:	00a01021 	move	v0,a1
80006578:	00c03821 	move	a3,a2
8000657c:	00602821 	move	a1,v1
80006580:	0c002e3c 	jal	8000b8f0 <_lseek_r>
80006584:	00403021 	move	a2,v0
80006588:	2404ffff 	li	a0,-1
8000658c:	1044000a 	beq	v0,a0,800065b8 <__sseek+0x60>
80006590:	00401821 	move	v1,v0
80006594:	9605000c 	lhu	a1,12(s0)
80006598:	ae020050 	sw	v0,80(s0)
8000659c:	34a21000 	ori	v0,a1,0x1000
800065a0:	a602000c 	sh	v0,12(s0)
800065a4:	8fbf0014 	lw	ra,20(sp)
800065a8:	8fb00010 	lw	s0,16(sp)
800065ac:	00601021 	move	v0,v1
800065b0:	03e00008 	jr	ra
800065b4:	27bd0018 	addiu	sp,sp,24
800065b8:	9604000c 	lhu	a0,12(s0)
800065bc:	08001968 	j	800065a0 <__sseek+0x48>
800065c0:	3082efff 	andi	v0,a0,0xefff

800065c4 <__sclose>:
800065c4:	27bdffe8 	addiu	sp,sp,-24
800065c8:	afbf0010 	sw	ra,16(sp)
800065cc:	3c038001 	lui	v1,0x8001
800065d0:	8485000e 	lh	a1,14(a0)
800065d4:	0c0027cc 	jal	80009f30 <_close_r>
800065d8:	8c64e348 	lw	a0,-7352(v1)
800065dc:	8fbf0010 	lw	ra,16(sp)
800065e0:	03e00008 	jr	ra
800065e4:	27bd0018 	addiu	sp,sp,24
	...

800065f0 <_strtod_r>:
800065f0:	27bdff80 	addiu	sp,sp,-128
800065f4:	afbe0068 	sw	s8,104(sp)
800065f8:	afb70064 	sw	s7,100(sp)
800065fc:	afb5005c 	sw	s5,92(sp)
80006600:	afb40058 	sw	s4,88(sp)
80006604:	afbf006c 	sw	ra,108(sp)
80006608:	afb60060 	sw	s6,96(sp)
8000660c:	afb30054 	sw	s3,84(sp)
80006610:	afb20050 	sw	s2,80(sp)
80006614:	afb1004c 	sw	s1,76(sp)
80006618:	afb00048 	sw	s0,72(sp)
8000661c:	f7b60078 	sdc1	$f22,120(sp)
80006620:	f7b40070 	sdc1	$f20,112(sp)
80006624:	0000a021 	move	s4,zero
80006628:	0000a821 	move	s5,zero
8000662c:	afa50084 	sw	a1,132(sp)
80006630:	0080f021 	move	s8,a0
80006634:	afa60088 	sw	a2,136(sp)
80006638:	afa00028 	sw	zero,40(sp)
8000663c:	00005021 	move	t2,zero
80006640:	00005821 	move	t3,zero
80006644:	afa00020 	sw	zero,32(sp)
80006648:	00a0b821 	move	s7,a1
8000664c:	82e30000 	lb	v1,0(s7)
80006650:	2c64002e 	sltiu	a0,v1,46
80006654:	10800031 	beqz	a0,8000671c <_strtod_r+0x12c>
80006658:	92e50000 	lbu	a1,0(s7)
8000665c:	3c078001 	lui	a3,0x8001
80006660:	00033080 	sll	a2,v1,0x2
80006664:	24e2f1b0 	addiu	v0,a3,-3664
80006668:	00c22021 	addu	a0,a2,v0
8000666c:	8c830000 	lw	v1,0(a0)
80006670:	00600008 	jr	v1
80006674:	00000000 	nop
80006678:	24050001 	li	a1,1
8000667c:	afa50020 	sw	a1,32(sp)
80006680:	26f70001 	addiu	s7,s7,1
80006684:	82e80000 	lb	t0,0(s7)
80006688:	15000024 	bnez	t0,8000671c <_strtod_r+0x12c>
8000668c:	92e50000 	lbu	a1,0(s7)
80006690:	8fb70084 	lw	s7,132(sp)
80006694:	8fa40088 	lw	a0,136(sp)
80006698:	54800001 	bnezl	a0,800066a0 <_strtod_r+0xb0>
8000669c:	ac970000 	sw	s7,0(a0)
800066a0:	8fbe0028 	lw	s8,40(sp)
800066a4:	17c00019 	bnez	s8,8000670c <_strtod_r+0x11c>
800066a8:	00000000 	nop
800066ac:	44946000 	mtc1	s4,$f12
800066b0:	44956800 	mtc1	s5,$f13
800066b4:	8fb50020 	lw	s5,32(sp)
800066b8:	12a00006 	beqz	s5,800066d4 <_strtod_r+0xe4>
800066bc:	46206006 	mov.d	$f0,$f12
800066c0:	8fb20084 	lw	s2,132(sp)
800066c4:	46206507 	neg.d	$f20,$f12
800066c8:	02f28826 	xor	s1,s7,s2
800066cc:	4631a313 	movn.d	$f12,$f20,s1
800066d0:	46206006 	mov.d	$f0,$f12
800066d4:	8fbf006c 	lw	ra,108(sp)
800066d8:	8fbe0068 	lw	s8,104(sp)
800066dc:	8fb70064 	lw	s7,100(sp)
800066e0:	8fb60060 	lw	s6,96(sp)
800066e4:	8fb5005c 	lw	s5,92(sp)
800066e8:	8fb40058 	lw	s4,88(sp)
800066ec:	8fb30054 	lw	s3,84(sp)
800066f0:	8fb20050 	lw	s2,80(sp)
800066f4:	8fb1004c 	lw	s1,76(sp)
800066f8:	8fb00048 	lw	s0,72(sp)
800066fc:	d7b60078 	ldc1	$f22,120(sp)
80006700:	d7b40070 	ldc1	$f20,112(sp)
80006704:	03e00008 	jr	ra
80006708:	27bd0080 	addiu	sp,sp,128
8000670c:	0c00348c 	jal	8000d230 <nan>
80006710:	00002021 	move	a0,zero
80006714:	080019b6 	j	800066d8 <_strtod_r+0xe8>
80006718:	8fbf006c 	lw	ra,108(sp)
8000671c:	00054e00 	sll	t1,a1,0x18
80006720:	00091e03 	sra	v1,t1,0x18
80006724:	2404006e 	li	a0,110
80006728:	1064034a 	beq	v1,a0,80007454 <_strtod_r+0xe64>
8000672c:	240c004e 	li	t4,78
80006730:	106c0348 	beq	v1,t4,80007454 <_strtod_r+0xe64>
80006734:	240f0030 	li	t7,48
80006738:	106f033c 	beq	v1,t7,8000742c <_strtod_r+0xe3c>
8000673c:	00058e00 	sll	s1,a1,0x18
80006740:	00112603 	sra	a0,s1,0x18
80006744:	28900030 	slti	s0,a0,48
80006748:	02e02821 	move	a1,s7
8000674c:	00004821 	move	t1,zero
80006750:	0000b021 	move	s6,zero
80006754:	00006021 	move	t4,zero
80006758:	16000014 	bnez	s0,800067ac <_strtod_r+0x1bc>
8000675c:	00003821 	move	a3,zero
80006760:	2892003a 	slti	s2,a0,58
80006764:	12400012 	beqz	s2,800067b0 <_strtod_r+0x1c0>
80006768:	2411002e 	li	s1,46
8000676c:	28f30009 	slti	s3,a3,9
80006770:	12600326 	beqz	s3,8000740c <_strtod_r+0xe1c>
80006774:	28e60010 	slti	a2,a3,16
80006778:	00161880 	sll	v1,s6,0x2
8000677c:	0076c821 	addu	t9,v1,s6
80006780:	0019b040 	sll	s6,t9,0x1
80006784:	02c4c021 	addu	t8,s6,a0
80006788:	2716ffd0 	addiu	s6,t8,-48
8000678c:	26f70001 	addiu	s7,s7,1
80006790:	82e40000 	lb	a0,0(s7)
80006794:	288f0030 	slti	t7,a0,48
80006798:	15e00004 	bnez	t7,800067ac <_strtod_r+0x1bc>
8000679c:	24e70001 	addiu	a3,a3,1
800067a0:	2890003a 	slti	s0,a0,58
800067a4:	1600fff2 	bnez	s0,80006770 <_strtod_r+0x180>
800067a8:	28f30009 	slti	s3,a3,9
800067ac:	2411002e 	li	s1,46
800067b0:	109102ce 	beq	a0,s1,800072ec <_strtod_r+0xcfc>
800067b4:	00e03021 	move	a2,a3
800067b8:	24080065 	li	t0,101
800067bc:	10880286 	beq	a0,t0,800071d8 <_strtod_r+0xbe8>
800067c0:	afa00024 	sw	zero,36(sp)
800067c4:	24100045 	li	s0,69
800067c8:	10900283 	beq	a0,s0,800071d8 <_strtod_r+0xbe8>
800067cc:	00000000 	nop
800067d0:	54e00007 	bnezl	a3,800067f0 <_strtod_r+0x200>
800067d4:	8fab0024 	lw	t3,36(sp)
800067d8:	1540ffaf 	bnez	t2,80006698 <_strtod_r+0xa8>
800067dc:	8fa40088 	lw	a0,136(sp)
800067e0:	1560ffad 	bnez	t3,80006698 <_strtod_r+0xa8>
800067e4:	00000000 	nop
800067e8:	080019a6 	j	80006698 <_strtod_r+0xa8>
800067ec:	8fb70084 	lw	s7,132(sp)
800067f0:	28f40011 	slti	s4,a3,17
800067f4:	24080010 	li	t0,16
800067f8:	016ca823 	subu	s5,t3,t4
800067fc:	afb50024 	sw	s5,36(sp)
80006800:	00f4400b 	movn	t0,a3,s4
80006804:	44961000 	mtc1	s6,$f2
80006808:	468010a1 	cvt.d.w	$f2,$f2
8000680c:	06c0026d 	bltz	s6,800071c4 <_strtod_r+0xbd4>
80006810:	00e6300a 	movz	a2,a3,a2
80006814:	290c000a 	slti	t4,t0,10
80006818:	44141000 	mfc1	s4,$f2
8000681c:	44151800 	mfc1	s5,$f3
80006820:	55800010 	bnezl	t4,80006864 <_strtod_r+0x274>
80006824:	28e90010 	slti	t1,a3,16
80006828:	3c128001 	lui	s2,0x8001
8000682c:	000888c0 	sll	s1,t0,0x3
80006830:	2642f4e0 	addiu	v0,s2,-2848
80006834:	02225021 	addu	t2,s1,v0
80006838:	d548ffb8 	ldc1	$f8,-72(t2)
8000683c:	44943000 	mtc1	s4,$f6
80006840:	44953800 	mtc1	s5,$f7
80006844:	44891000 	mtc1	t1,$f2
80006848:	468010a1 	cvt.d.w	$f2,$f2
8000684c:	05200258 	bltz	t1,800071b0 <_strtod_r+0xbc0>
80006850:	46264302 	mul.d	$f12,$f8,$f6
80006854:	46226000 	add.d	$f0,$f12,$f2
80006858:	44140000 	mfc1	s4,$f0
8000685c:	44150800 	mfc1	s5,$f1
80006860:	28e90010 	slti	t1,a3,16
80006864:	1120002b 	beqz	t1,80006914 <_strtod_r+0x324>
80006868:	afa00034 	sw	zero,52(sp)
8000686c:	8fa20024 	lw	v0,36(sp)
80006870:	1040ff89 	beqz	v0,80006698 <_strtod_r+0xa8>
80006874:	8fa40088 	lw	a0,136(sp)
80006878:	18400240 	blez	v0,8000717c <_strtod_r+0xb8c>
8000687c:	28530017 	slti	s3,v0,23
80006880:	1260000e 	beqz	s3,800068bc <_strtod_r+0x2cc>
80006884:	240f000f 	li	t7,15
80006888:	8fa60024 	lw	a2,36(sp)
8000688c:	3c168001 	lui	s6,0x8001
80006890:	26c5f4e0 	addiu	a1,s6,-2848
80006894:	000638c0 	sll	a3,a2,0x3
80006898:	00e5f021 	addu	s8,a3,a1
8000689c:	d7cc0000 	ldc1	$f12,0(s8)
800068a0:	44947000 	mtc1	s4,$f14
800068a4:	44957800 	mtc1	s5,$f15
800068a8:	462e6002 	mul.d	$f0,$f12,$f14
800068ac:	44140000 	mfc1	s4,$f0
800068b0:	44150800 	mfc1	s5,$f1
800068b4:	080019a6 	j	80006698 <_strtod_r+0xa8>
800068b8:	8fa40088 	lw	a0,136(sp)
800068bc:	8fae0024 	lw	t6,36(sp)
800068c0:	01e72023 	subu	a0,t7,a3
800068c4:	24990016 	addiu	t9,a0,22
800068c8:	032ec02a 	slt	t8,t9,t6
800068cc:	17000012 	bnez	t8,80006918 <_strtod_r+0x328>
800068d0:	8fb90024 	lw	t9,36(sp)
800068d4:	3c028001 	lui	v0,0x8001
800068d8:	244df4e0 	addiu	t5,v0,-2848
800068dc:	000488c0 	sll	s1,a0,0x3
800068e0:	022d5021 	addu	t2,s1,t5
800068e4:	d5540000 	ldc1	$f20,0(t2)
800068e8:	4494b000 	mtc1	s4,$f22
800068ec:	4495b800 	mtc1	s5,$f23
800068f0:	8fac0024 	lw	t4,36(sp)
800068f4:	4636a482 	mul.d	$f18,$f20,$f22
800068f8:	01845823 	subu	t3,t4,a0
800068fc:	000b80c0 	sll	s0,t3,0x3
80006900:	020d2021 	addu	a0,s0,t5
80006904:	d4820000 	ldc1	$f2,0(a0)
80006908:	afab0024 	sw	t3,36(sp)
8000690c:	08001a2b 	j	800068ac <_strtod_r+0x2bc>
80006910:	46321002 	mul.d	$f0,$f2,$f18
80006914:	8fb90024 	lw	t9,36(sp)
80006918:	00e8c023 	subu	t8,a3,t0
8000691c:	03384821 	addu	t1,t9,t8
80006920:	192001d2 	blez	t1,8000706c <_strtod_r+0xa7c>
80006924:	3124000f 	andi	a0,t1,0xf
80006928:	1080000b 	beqz	a0,80006958 <_strtod_r+0x368>
8000692c:	2403fff0 	li	v1,-16
80006930:	000478c0 	sll	t7,a0,0x3
80006934:	3c048001 	lui	a0,0x8001
80006938:	2488f4e0 	addiu	t0,a0,-2848
8000693c:	01e87021 	addu	t6,t7,t0
80006940:	d5ca0000 	ldc1	$f10,0(t6)
80006944:	44940000 	mtc1	s4,$f0
80006948:	44950800 	mtc1	s5,$f1
8000694c:	46205202 	mul.d	$f8,$f10,$f0
80006950:	44144000 	mfc1	s4,$f8
80006954:	44154800 	mfc1	s5,$f9
80006958:	01234824 	and	t1,t1,v1
8000695c:	1120004c 	beqz	t1,80006a90 <_strtod_r+0x4a0>
80006960:	03c02021 	move	a0,s8
80006964:	29300135 	slti	s0,t1,309
80006968:	5600001b 	bnezl	s0,800069d8 <_strtod_r+0x3e8>
8000696c:	00094903 	sra	t1,t1,0x4
80006970:	24140022 	li	s4,34
80006974:	afd40000 	sw	s4,0(s8)
80006978:	3c148001 	lui	s4,0x8001
8000697c:	8e94f600 	lw	s4,-2560(s4)
80006980:	3c158001 	lui	s5,0x8001
80006984:	8eb5f604 	lw	s5,-2556(s5)
80006988:	8fa50034 	lw	a1,52(sp)
8000698c:	50a0ff42 	beqzl	a1,80006698 <_strtod_r+0xa8>
80006990:	8fa40088 	lw	a0,136(sp)
80006994:	8fa5002c 	lw	a1,44(sp)
80006998:	0c003245 	jal	8000c914 <_Bfree>
8000699c:	03c02021 	move	a0,s8
800069a0:	8fa50030 	lw	a1,48(sp)
800069a4:	0c003245 	jal	8000c914 <_Bfree>
800069a8:	03c02021 	move	a0,s8
800069ac:	8fa50038 	lw	a1,56(sp)
800069b0:	0c003245 	jal	8000c914 <_Bfree>
800069b4:	03c02021 	move	a0,s8
800069b8:	8fa50034 	lw	a1,52(sp)
800069bc:	0c003245 	jal	8000c914 <_Bfree>
800069c0:	03c02021 	move	a0,s8
800069c4:	8fa5003c 	lw	a1,60(sp)
800069c8:	0c003245 	jal	8000c914 <_Bfree>
800069cc:	03c02021 	move	a0,s8
800069d0:	080019a6 	j	80006698 <_strtod_r+0xa8>
800069d4:	8fa40088 	lw	a0,136(sp)
800069d8:	1120002d 	beqz	t1,80006a90 <_strtod_r+0x4a0>
800069dc:	03c02021 	move	a0,s8
800069e0:	292d0002 	slti	t5,t1,2
800069e4:	15a00010 	bnez	t5,80006a28 <_strtod_r+0x438>
800069e8:	00004021 	move	t0,zero
800069ec:	3c0b8001 	lui	t3,0x8001
800069f0:	2563f5a8 	addiu	v1,t3,-2648
800069f4:	312c0001 	andi	t4,t1,0x1
800069f8:	11800007 	beqz	t4,80006a18 <_strtod_r+0x428>
800069fc:	00094843 	sra	t1,t1,0x1
80006a00:	d46e0000 	ldc1	$f14,0(v1)
80006a04:	44948000 	mtc1	s4,$f16
80006a08:	44958800 	mtc1	s5,$f17
80006a0c:	46307302 	mul.d	$f12,$f14,$f16
80006a10:	44146000 	mfc1	s4,$f12
80006a14:	44156800 	mfc1	s5,$f13
80006a18:	292a0002 	slti	t2,t1,2
80006a1c:	24630008 	addiu	v1,v1,8
80006a20:	1140fff4 	beqz	t2,800069f4 <_strtod_r+0x404>
80006a24:	25080001 	addiu	t0,t0,1
80006a28:	3c0e8001 	lui	t6,0x8001
80006a2c:	0008c0c0 	sll	t8,t0,0x3
80006a30:	25d9f5a8 	addiu	t9,t6,-2648
80006a34:	3c09fcb0 	lui	t1,0xfcb0
80006a38:	03199821 	addu	s3,t8,t9
80006a3c:	0135a821 	addu	s5,t1,s5
80006a40:	d6720000 	ldc1	$f18,0(s3)
80006a44:	4494a000 	mtc1	s4,$f20
80006a48:	4495a800 	mtc1	s5,$f21
80006a4c:	3c027ff0 	lui	v0,0x7ff0
80006a50:	46349082 	mul.d	$f2,$f18,$f20
80006a54:	3c127ca0 	lui	s2,0x7ca0
80006a58:	44141000 	mfc1	s4,$f2
80006a5c:	44151800 	mfc1	s5,$f3
80006a60:	02a24824 	and	t1,s5,v0
80006a64:	0249882b 	sltu	s1,s2,t1
80006a68:	5620ffc2 	bnezl	s1,80006974 <_strtod_r+0x384>
80006a6c:	24140022 	li	s4,34
80006a70:	3c087c90 	lui	t0,0x7c90
80006a74:	0109782b 	sltu	t7,t0,t1
80006a78:	11e0017a 	beqz	t7,80007064 <_strtod_r+0xa74>
80006a7c:	3c030350 	lui	v1,0x350
80006a80:	3c047fef 	lui	a0,0x7fef
80006a84:	3495ffff 	ori	s5,a0,0xffff
80006a88:	2414ffff 	li	s4,-1
80006a8c:	03c02021 	move	a0,s8
80006a90:	0c003250 	jal	8000c940 <_s2b>
80006a94:	afb60010 	sw	s6,16(sp)
80006a98:	2456000c 	addiu	s6,v0,12
80006a9c:	afa20034 	sw	v0,52(sp)
80006aa0:	afb60040 	sw	s6,64(sp)
80006aa4:	8fa40034 	lw	a0,52(sp)
80006aa8:	8c850004 	lw	a1,4(a0)
80006aac:	0c002f30 	jal	8000bcc0 <_Balloc>
80006ab0:	03c02021 	move	a0,s8
80006ab4:	8fa60034 	lw	a2,52(sp)
80006ab8:	8fa50040 	lw	a1,64(sp)
80006abc:	2444000c 	addiu	a0,v0,12
80006ac0:	8cd00010 	lw	s0,16(a2)
80006ac4:	afa20030 	sw	v0,48(sp)
80006ac8:	00103880 	sll	a3,s0,0x2
80006acc:	0c0017e0 	jal	80005f80 <memcpy>
80006ad0:	24e60008 	addiu	a2,a3,8
80006ad4:	27a30018 	addiu	v1,sp,24
80006ad8:	27a8001c 	addiu	t0,sp,28
80006adc:	02803021 	move	a2,s4
80006ae0:	02a03821 	move	a3,s5
80006ae4:	03c02021 	move	a0,s8
80006ae8:	afa30010 	sw	v1,16(sp)
80006aec:	0c0031ea 	jal	8000c7a8 <_d2b>
80006af0:	afa80014 	sw	t0,20(sp)
80006af4:	03c02021 	move	a0,s8
80006af8:	24050001 	li	a1,1
80006afc:	0c003298 	jal	8000ca60 <_i2b>
80006b00:	afa2002c 	sw	v0,44(sp)
80006b04:	8fa40024 	lw	a0,36(sp)
80006b08:	04800150 	bltz	a0,8000704c <_strtod_r+0xa5c>
80006b0c:	afa20038 	sw	v0,56(sp)
80006b10:	00808821 	move	s1,a0
80006b14:	00003021 	move	a2,zero
80006b18:	00009021 	move	s2,zero
80006b1c:	0080b021 	move	s6,a0
80006b20:	8fa20018 	lw	v0,24(sp)
80006b24:	04420002 	bltzl	v0,80006b30 <_strtod_r+0x540>
80006b28:	02228823 	subu	s1,s1,v0
80006b2c:	02429021 	addu	s2,s2,v0
80006b30:	8fa5001c 	lw	a1,28(sp)
80006b34:	24480433 	addiu	t0,v0,1075
80006b38:	00455021 	addu	t2,v0,a1
80006b3c:	254cffff 	addiu	t4,t2,-1
80006b40:	298bfc02 	slti	t3,t4,-1022
80006b44:	15600003 	bnez	t3,80006b54 <_strtod_r+0x564>
80006b48:	02409821 	move	s3,s2
80006b4c:	24180036 	li	t8,54
80006b50:	03054023 	subu	t0,t8,a1
80006b54:	02282021 	addu	a0,s1,t0
80006b58:	02489021 	addu	s2,s2,t0
80006b5c:	0244482a 	slt	t1,s2,a0
80006b60:	00808821 	move	s1,a0
80006b64:	0249200b 	movn	a0,s2,t1
80006b68:	0264c82a 	slt	t9,s3,a0
80006b6c:	0279200b 	movn	a0,s3,t9
80006b70:	18800004 	blez	a0,80006b84 <_strtod_r+0x594>
80006b74:	00000000 	nop
80006b78:	02649823 	subu	s3,s3,a0
80006b7c:	02449023 	subu	s2,s2,a0
80006b80:	02248823 	subu	s1,s1,a0
80006b84:	18c0000d 	blez	a2,80006bbc <_strtod_r+0x5cc>
80006b88:	8fa50038 	lw	a1,56(sp)
80006b8c:	0c003074 	jal	8000c1d0 <_pow5mult>
80006b90:	03c02021 	move	a0,s8
80006b94:	8fa6002c 	lw	a2,44(sp)
80006b98:	03c02021 	move	a0,s8
80006b9c:	00402821 	move	a1,v0
80006ba0:	0c002ff4 	jal	8000bfd0 <_multiply>
80006ba4:	afa20038 	sw	v0,56(sp)
80006ba8:	8fa5002c 	lw	a1,44(sp)
80006bac:	00408021 	move	s0,v0
80006bb0:	0c003245 	jal	8000c914 <_Bfree>
80006bb4:	03c02021 	move	a0,s8
80006bb8:	afb0002c 	sw	s0,44(sp)
80006bbc:	1a400005 	blez	s2,80006bd4 <_strtod_r+0x5e4>
80006bc0:	8fa5002c 	lw	a1,44(sp)
80006bc4:	02403021 	move	a2,s2
80006bc8:	0c0030c1 	jal	8000c304 <_lshift>
80006bcc:	03c02021 	move	a0,s8
80006bd0:	afa2002c 	sw	v0,44(sp)
80006bd4:	1ac00005 	blez	s6,80006bec <_strtod_r+0x5fc>
80006bd8:	8fa50030 	lw	a1,48(sp)
80006bdc:	02c03021 	move	a2,s6
80006be0:	0c003074 	jal	8000c1d0 <_pow5mult>
80006be4:	03c02021 	move	a0,s8
80006be8:	afa20030 	sw	v0,48(sp)
80006bec:	1a200005 	blez	s1,80006c04 <_strtod_r+0x614>
80006bf0:	8fa50030 	lw	a1,48(sp)
80006bf4:	02203021 	move	a2,s1
80006bf8:	0c0030c1 	jal	8000c304 <_lshift>
80006bfc:	03c02021 	move	a0,s8
80006c00:	afa20030 	sw	v0,48(sp)
80006c04:	1a600005 	blez	s3,80006c1c <_strtod_r+0x62c>
80006c08:	8fa50038 	lw	a1,56(sp)
80006c0c:	02603021 	move	a2,s3
80006c10:	0c0030c1 	jal	8000c304 <_lshift>
80006c14:	03c02021 	move	a0,s8
80006c18:	afa20038 	sw	v0,56(sp)
80006c1c:	8fa5002c 	lw	a1,44(sp)
80006c20:	8fa60030 	lw	a2,48(sp)
80006c24:	0c003112 	jal	8000c448 <__mdiff>
80006c28:	03c02021 	move	a0,s8
80006c2c:	8fa50038 	lw	a1,56(sp)
80006c30:	8c50000c 	lw	s0,12(v0)
80006c34:	00402021 	move	a0,v0
80006c38:	ac40000c 	sw	zero,12(v0)
80006c3c:	0c0032a5 	jal	8000ca94 <__mcmp>
80006c40:	afa2003c 	sw	v0,60(sp)
80006c44:	044000ed 	bltz	v0,80006ffc <_strtod_r+0xa0c>
80006c48:	00000000 	nop
80006c4c:	104000b0 	beqz	v0,80006f10 <_strtod_r+0x920>
80006c50:	8fa4003c 	lw	a0,60(sp)
80006c54:	0c0032be 	jal	8000caf8 <_ratio>
80006c58:	8fa50038 	lw	a1,56(sp)
80006c5c:	3c014000 	lui	at,0x4000
80006c60:	44816800 	mtc1	at,$f13
80006c64:	44806000 	mtc1	zero,$f12
80006c68:	462c043e 	c.le.d	$fcc4,$f0,$f12
80006c6c:	451000a0 	bc1f	$fcc4,80006ef0 <_strtod_r+0x900>
80006c70:	00000000 	nop
80006c74:	12000075 	beqz	s0,80006e4c <_strtod_r+0x85c>
80006c78:	00000000 	nop
80006c7c:	3c013ff0 	lui	at,0x3ff0
80006c80:	4481a800 	mtc1	at,$f21
80006c84:	4480a000 	mtc1	zero,$f20
80006c88:	4620a586 	mov.d	$f22,$f20
80006c8c:	3c117ff0 	lui	s1,0x7ff0
80006c90:	02b1b024 	and	s6,s5,s1
80006c94:	3c137fe0 	lui	s3,0x7fe0
80006c98:	12d3004b 	beq	s6,s3,80006dc8 <_strtod_r+0x7d8>
80006c9c:	3c0d0340 	lui	t5,0x340
80006ca0:	01b6202b 	sltu	a0,t5,s6
80006ca4:	14800011 	bnez	a0,80006cec <_strtod_r+0x6fc>
80006ca8:	00000000 	nop
80006cac:	3c013ff0 	lui	at,0x3ff0
80006cb0:	44811800 	mtc1	at,$f3
80006cb4:	44801000 	mtc1	zero,$f2
80006cb8:	4634163e 	c.le.d	$fcc6,$f2,$f20
80006cbc:	4518000b 	bc1f	$fcc6,80006cec <_strtod_r+0x6fc>
80006cc0:	00000000 	nop
80006cc4:	3c013fe0 	lui	at,0x3fe0
80006cc8:	44816800 	mtc1	at,$f13
80006ccc:	44806000 	mtc1	zero,$f12
80006cd0:	462ca280 	add.d	$f10,$f20,$f12
80006cd4:	4620510d 	trunc.w.d	$f4,$f10
80006cd8:	440b2000 	mfc1	t3,$f4
80006cdc:	448bb000 	mtc1	t3,$f22
80006ce0:	4680b5a1 	cvt.d.w	$f22,$f22
80006ce4:	4620b207 	neg.d	$f8,$f22
80006ce8:	46304592 	movz.d	$f22,$f8,s0
80006cec:	44946000 	mtc1	s4,$f12
80006cf0:	0c003183 	jal	8000c60c <_ulp>
80006cf4:	44956800 	mtc1	s5,$f13
80006cf8:	4620b402 	mul.d	$f16,$f22,$f0
80006cfc:	44949000 	mtc1	s4,$f18
80006d00:	44959800 	mtc1	s5,$f19
80006d04:	46328380 	add.d	$f14,$f16,$f18
80006d08:	44147000 	mfc1	s4,$f14
80006d0c:	44157800 	mfc1	s5,$f15
80006d10:	3c0a7ff0 	lui	t2,0x7ff0
80006d14:	02aa6024 	and	t4,s5,t2
80006d18:	12cc000f 	beq	s6,t4,80006d58 <_strtod_r+0x768>
80006d1c:	00000000 	nop
80006d20:	8fa5002c 	lw	a1,44(sp)
80006d24:	0c003245 	jal	8000c914 <_Bfree>
80006d28:	03c02021 	move	a0,s8
80006d2c:	8fa50030 	lw	a1,48(sp)
80006d30:	0c003245 	jal	8000c914 <_Bfree>
80006d34:	03c02021 	move	a0,s8
80006d38:	8fa50038 	lw	a1,56(sp)
80006d3c:	0c003245 	jal	8000c914 <_Bfree>
80006d40:	03c02021 	move	a0,s8
80006d44:	8fa5003c 	lw	a1,60(sp)
80006d48:	0c003245 	jal	8000c914 <_Bfree>
80006d4c:	03c02021 	move	a0,s8
80006d50:	08001aaa 	j	80006aa8 <_strtod_r+0x4b8>
80006d54:	8fa40034 	lw	a0,52(sp)
80006d58:	4620a10d 	trunc.w.d	$f4,$f20
80006d5c:	44182000 	mfc1	t8,$f4
80006d60:	4498b000 	mtc1	t8,$f22
80006d64:	4680b5a1 	cvt.d.w	$f22,$f22
80006d68:	16000007 	bnez	s0,80006d88 <_strtod_r+0x798>
80006d6c:	4636a501 	sub.d	$f20,$f20,$f22
80006d70:	16800005 	bnez	s4,80006d88 <_strtod_r+0x798>
80006d74:	3c09000f 	lui	t1,0xf
80006d78:	3539ffff 	ori	t9,t1,0xffff
80006d7c:	02b98024 	and	s0,s5,t9
80006d80:	1200000d 	beqz	s0,80006db8 <_strtod_r+0x7c8>
80006d84:	00000000 	nop
80006d88:	3c018001 	lui	at,0x8001
80006d8c:	d424f268 	ldc1	$f4,-3480(at)
80006d90:	4624a73c 	c.lt.d	$fcc7,$f20,$f4
80006d94:	451dff00 	bc1t	$fcc7,80006998 <_strtod_r+0x3a8>
80006d98:	8fa5002c 	lw	a1,44(sp)
80006d9c:	3c018001 	lui	at,0x8001
80006da0:	d426f270 	ldc1	$f6,-3472(at)
80006da4:	4634303c 	c.lt.d	$f6,$f20
80006da8:	4500ffde 	bc1f	80006d24 <_strtod_r+0x734>
80006dac:	8fa5002c 	lw	a1,44(sp)
80006db0:	08001a66 	j	80006998 <_strtod_r+0x3a8>
80006db4:	00000000 	nop
80006db8:	3c018001 	lui	at,0x8001
80006dbc:	d422f278 	ldc1	$f2,-3464(at)
80006dc0:	08001b6a 	j	80006da8 <_strtod_r+0x7b8>
80006dc4:	4622a03c 	c.lt.d	$f20,$f2
80006dc8:	3c03fcb0 	lui	v1,0xfcb0
80006dcc:	02a09821 	move	s3,s5
80006dd0:	0075a821 	addu	s5,v1,s5
80006dd4:	44946000 	mtc1	s4,$f12
80006dd8:	44956800 	mtc1	s5,$f13
80006ddc:	0c003183 	jal	8000c60c <_ulp>
80006de0:	02809021 	move	s2,s4
80006de4:	4620b102 	mul.d	$f4,$f22,$f0
80006de8:	44943000 	mtc1	s4,$f6
80006dec:	44953800 	mtc1	s5,$f7
80006df0:	3c087c9f 	lui	t0,0x7c9f
80006df4:	350fffff 	ori	t7,t0,0xffff
80006df8:	46262580 	add.d	$f22,$f4,$f6
80006dfc:	4414b000 	mfc1	s4,$f22
80006e00:	4415b800 	mfc1	s5,$f23
80006e04:	02b12824 	and	a1,s5,s1
80006e08:	01e5702b 	sltu	t6,t7,a1
80006e0c:	11c0000d 	beqz	t6,80006e44 <_strtod_r+0x854>
80006e10:	3c060350 	lui	a2,0x350
80006e14:	3c147fef 	lui	s4,0x7fef
80006e18:	3696ffff 	ori	s6,s4,0xffff
80006e1c:	12760005 	beq	s3,s6,80006e34 <_strtod_r+0x844>
80006e20:	2407ffff 	li	a3,-1
80006e24:	3c027fef 	lui	v0,0x7fef
80006e28:	3455ffff 	ori	s5,v0,0xffff
80006e2c:	08001b48 	j	80006d20 <_strtod_r+0x730>
80006e30:	2414ffff 	li	s4,-1
80006e34:	1647fffc 	bne	s2,a3,80006e28 <_strtod_r+0x838>
80006e38:	3c027fef 	lui	v0,0x7fef
80006e3c:	08001a5d 	j	80006974 <_strtod_r+0x384>
80006e40:	24140022 	li	s4,34
80006e44:	08001b44 	j	80006d10 <_strtod_r+0x720>
80006e48:	00d5a821 	addu	s5,a2,s5
80006e4c:	16800006 	bnez	s4,80006e68 <_strtod_r+0x878>
80006e50:	24120001 	li	s2,1
80006e54:	3c11000f 	lui	s1,0xf
80006e58:	3629ffff 	ori	t1,s1,0xffff
80006e5c:	02a9c824 	and	t9,s5,t1
80006e60:	13200013 	beqz	t9,80006eb0 <_strtod_r+0x8c0>
80006e64:	00000000 	nop
80006e68:	12920009 	beq	s4,s2,80006e90 <_strtod_r+0x8a0>
80006e6c:	00000000 	nop
80006e70:	3c013ff0 	lui	at,0x3ff0
80006e74:	4481a800 	mtc1	at,$f21
80006e78:	4480a000 	mtc1	zero,$f20
80006e7c:	3c01bff0 	lui	at,0xbff0
80006e80:	4481b800 	mtc1	at,$f23
80006e84:	4480b000 	mtc1	zero,$f22
80006e88:	08001b24 	j	80006c90 <_strtod_r+0x6a0>
80006e8c:	3c117ff0 	lui	s1,0x7ff0
80006e90:	16a0fff7 	bnez	s5,80006e70 <_strtod_r+0x880>
80006e94:	00000000 	nop
80006e98:	24150022 	li	s5,34
80006e9c:	afd50000 	sw	s5,0(s8)
80006ea0:	0000a021 	move	s4,zero
80006ea4:	0000a821 	move	s5,zero
80006ea8:	08001a63 	j	8000698c <_strtod_r+0x39c>
80006eac:	8fa50034 	lw	a1,52(sp)
80006eb0:	3c013ff0 	lui	at,0x3ff0
80006eb4:	44817800 	mtc1	at,$f15
80006eb8:	44807000 	mtc1	zero,$f14
80006ebc:	462e053c 	c.lt.d	$fcc5,$f0,$f14
80006ec0:	45140006 	bc1f	$fcc5,80006edc <_strtod_r+0x8ec>
80006ec4:	00000000 	nop
80006ec8:	3c013fe0 	lui	at,0x3fe0
80006ecc:	4481a800 	mtc1	at,$f21
80006ed0:	4480a000 	mtc1	zero,$f20
80006ed4:	08001b23 	j	80006c8c <_strtod_r+0x69c>
80006ed8:	4620a587 	neg.d	$f22,$f20
80006edc:	3c013fe0 	lui	at,0x3fe0
80006ee0:	44818800 	mtc1	at,$f17
80006ee4:	44808000 	mtc1	zero,$f16
80006ee8:	08001bb5 	j	80006ed4 <_strtod_r+0x8e4>
80006eec:	46300502 	mul.d	$f20,$f0,$f16
80006ef0:	3c013fe0 	lui	at,0x3fe0
80006ef4:	44819800 	mtc1	at,$f19
80006ef8:	44809000 	mtc1	zero,$f18
80006efc:	46320502 	mul.d	$f20,$f0,$f18
80006f00:	4620a007 	neg.d	$f0,$f20
80006f04:	4620a586 	mov.d	$f22,$f20
80006f08:	08001b23 	j	80006c8c <_strtod_r+0x69c>
80006f0c:	46300592 	movz.d	$f22,$f0,s0
80006f10:	1200002c 	beqz	s0,80006fc4 <_strtod_r+0x9d4>
80006f14:	3c04000f 	lui	a0,0xf
80006f18:	3c05000f 	lui	a1,0xf
80006f1c:	34aeffff 	ori	t6,a1,0xffff
80006f20:	02ae7824 	and	t7,s5,t6
80006f24:	11ee001f 	beq	t7,t6,80006fa4 <_strtod_r+0x9b4>
80006f28:	2416ffff 	li	s6,-1
80006f2c:	32980001 	andi	t8,s4,0x1
80006f30:	1300fe99 	beqz	t8,80006998 <_strtod_r+0x3a8>
80006f34:	8fa5002c 	lw	a1,44(sp)
80006f38:	16000010 	bnez	s0,80006f7c <_strtod_r+0x98c>
80006f3c:	00000000 	nop
80006f40:	44946000 	mtc1	s4,$f12
80006f44:	0c003183 	jal	8000c60c <_ulp>
80006f48:	44956800 	mtc1	s5,$f13
80006f4c:	44945000 	mtc1	s4,$f10
80006f50:	44955800 	mtc1	s5,$f11
80006f54:	44801000 	mtc1	zero,$f2
80006f58:	44801800 	mtc1	zero,$f3
80006f5c:	46205201 	sub.d	$f8,$f10,$f0
80006f60:	46224332 	c.eq.d	$fcc3,$f8,$f2
80006f64:	44144000 	mfc1	s4,$f8
80006f68:	44154800 	mfc1	s5,$f9
80006f6c:	450fffcb 	bc1tl	$fcc3,80006e9c <_strtod_r+0x8ac>
80006f70:	24150022 	li	s5,34
80006f74:	08001a66 	j	80006998 <_strtod_r+0x3a8>
80006f78:	8fa5002c 	lw	a1,44(sp)
80006f7c:	44946000 	mtc1	s4,$f12
80006f80:	0c003183 	jal	8000c60c <_ulp>
80006f84:	44956800 	mtc1	s5,$f13
80006f88:	44942000 	mtc1	s4,$f4
80006f8c:	44952800 	mtc1	s5,$f5
80006f90:	46240580 	add.d	$f22,$f0,$f4
80006f94:	4414b000 	mfc1	s4,$f22
80006f98:	4415b800 	mfc1	s5,$f23
80006f9c:	08001a66 	j	80006998 <_strtod_r+0x3a8>
80006fa0:	8fa5002c 	lw	a1,44(sp)
80006fa4:	1696ffe2 	bne	s4,s6,80006f30 <_strtod_r+0x940>
80006fa8:	32980001 	andi	t8,s4,0x1
80006fac:	3c037ff0 	lui	v1,0x7ff0
80006fb0:	3c140010 	lui	s4,0x10
80006fb4:	02a34024 	and	t0,s5,v1
80006fb8:	0114a821 	addu	s5,t0,s4
80006fbc:	08001a65 	j	80006994 <_strtod_r+0x3a4>
80006fc0:	0000a021 	move	s4,zero
80006fc4:	3486ffff 	ori	a2,a0,0xffff
80006fc8:	02a63824 	and	a3,s5,a2
80006fcc:	14e0ffd8 	bnez	a3,80006f30 <_strtod_r+0x940>
80006fd0:	32980001 	andi	t8,s4,0x1
80006fd4:	1680ffd6 	bnez	s4,80006f30 <_strtod_r+0x940>
80006fd8:	3c0a7ff0 	lui	t2,0x7ff0
80006fdc:	02aa5824 	and	t3,s5,t2
80006fe0:	3c0cfff0 	lui	t4,0xfff0
80006fe4:	3c15000f 	lui	s5,0xf
80006fe8:	016c6821 	addu	t5,t3,t4
80006fec:	36b0ffff 	ori	s0,s5,0xffff
80006ff0:	01b0a825 	or	s5,t5,s0
80006ff4:	08001a65 	j	80006994 <_strtod_r+0x3a4>
80006ff8:	2414ffff 	li	s4,-1
80006ffc:	1600fe66 	bnez	s0,80006998 <_strtod_r+0x3a8>
80007000:	8fa5002c 	lw	a1,44(sp)
80007004:	1680fe64 	bnez	s4,80006998 <_strtod_r+0x3a8>
80007008:	3c13000f 	lui	s3,0xf
8000700c:	3672ffff 	ori	s2,s3,0xffff
80007010:	02b28824 	and	s1,s5,s2
80007014:	1620fe60 	bnez	s1,80006998 <_strtod_r+0x3a8>
80007018:	00000000 	nop
8000701c:	8fa5003c 	lw	a1,60(sp)
80007020:	03c02021 	move	a0,s8
80007024:	0c0030c1 	jal	8000c304 <_lshift>
80007028:	24060001 	li	a2,1
8000702c:	8fa50038 	lw	a1,56(sp)
80007030:	00402021 	move	a0,v0
80007034:	0c0032a5 	jal	8000ca94 <__mcmp>
80007038:	afa2003c 	sw	v0,60(sp)
8000703c:	5840fe56 	blezl	v0,80006998 <_strtod_r+0x3a8>
80007040:	8fa5002c 	lw	a1,44(sp)
80007044:	08001bf7 	j	80006fdc <_strtod_r+0x9ec>
80007048:	3c0a7ff0 	lui	t2,0x7ff0
8000704c:	8fad0024 	lw	t5,36(sp)
80007050:	0000b021 	move	s6,zero
80007054:	00008821 	move	s1,zero
80007058:	000d9023 	negu	s2,t5
8000705c:	08001ac8 	j	80006b20 <_strtod_r+0x530>
80007060:	02403021 	move	a2,s2
80007064:	08001aa3 	j	80006a8c <_strtod_r+0x49c>
80007068:	0075a821 	addu	s5,v1,s5
8000706c:	0521fe88 	bgez	t1,80006a90 <_strtod_r+0x4a0>
80007070:	03c02021 	move	a0,s8
80007074:	00094823 	negu	t1,t1
80007078:	3124000f 	andi	a0,t1,0xf
8000707c:	1080000b 	beqz	a0,800070ac <_strtod_r+0xabc>
80007080:	240afff0 	li	t2,-16
80007084:	3c0c8001 	lui	t4,0x8001
80007088:	000468c0 	sll	t5,a0,0x3
8000708c:	258bf4e0 	addiu	t3,t4,-2848
80007090:	01ab8021 	addu	s0,t5,t3
80007094:	d6040000 	ldc1	$f4,0(s0)
80007098:	44943000 	mtc1	s4,$f6
8000709c:	44953800 	mtc1	s5,$f7
800070a0:	46243583 	div.d	$f22,$f6,$f4
800070a4:	4414b000 	mfc1	s4,$f22
800070a8:	4415b800 	mfc1	s5,$f23
800070ac:	012a4824 	and	t1,t1,t2
800070b0:	1120fe77 	beqz	t1,80006a90 <_strtod_r+0x4a0>
800070b4:	03c02021 	move	a0,s8
800070b8:	00094903 	sra	t1,t1,0x4
800070bc:	29310020 	slti	s1,t1,32
800070c0:	5220ff76 	beqzl	s1,80006e9c <_strtod_r+0x8ac>
800070c4:	24150022 	li	s5,34
800070c8:	29320002 	slti	s2,t1,2
800070cc:	16400010 	bnez	s2,80007110 <_strtod_r+0xb20>
800070d0:	00004021 	move	t0,zero
800070d4:	3c138001 	lui	s3,0x8001
800070d8:	2663f5d0 	addiu	v1,s3,-2608
800070dc:	31380001 	andi	t8,t1,0x1
800070e0:	13000007 	beqz	t8,80007100 <_strtod_r+0xb10>
800070e4:	00094843 	sra	t1,t1,0x1
800070e8:	d46a0000 	ldc1	$f10,0(v1)
800070ec:	44940000 	mtc1	s4,$f0
800070f0:	44950800 	mtc1	s5,$f1
800070f4:	46205202 	mul.d	$f8,$f10,$f0
800070f8:	44144000 	mfc1	s4,$f8
800070fc:	44154800 	mfc1	s5,$f9
80007100:	29390002 	slti	t9,t1,2
80007104:	24630008 	addiu	v1,v1,8
80007108:	1320fff4 	beqz	t9,800070dc <_strtod_r+0xaec>
8000710c:	25080001 	addiu	t0,t0,1
80007110:	3c0f8001 	lui	t7,0x8001
80007114:	000870c0 	sll	t6,t0,0x3
80007118:	25e2f5d0 	addiu	v0,t7,-2608
8000711c:	01c24821 	addu	t1,t6,v0
80007120:	d5220000 	ldc1	$f2,0(t1)
80007124:	44947000 	mtc1	s4,$f14
80007128:	44957800 	mtc1	s5,$f15
8000712c:	44802000 	mtc1	zero,$f4
80007130:	44802800 	mtc1	zero,$f5
80007134:	462e1302 	mul.d	$f12,$f2,$f14
80007138:	02809021 	move	s2,s4
8000713c:	02a09821 	move	s3,s5
80007140:	46246132 	c.eq.d	$fcc1,$f12,$f4
80007144:	44146000 	mfc1	s4,$f12
80007148:	44156800 	mfc1	s5,$f13
8000714c:	4504fe50 	bc1f	$fcc1,80006a90 <_strtod_r+0x4a0>
80007150:	03c02021 	move	a0,s8
80007154:	4492a000 	mtc1	s2,$f20
80007158:	4493a800 	mtc1	s3,$f21
8000715c:	4634a480 	add.d	$f18,$f20,$f20
80007160:	46321402 	mul.d	$f16,$f2,$f18
80007164:	46248232 	c.eq.d	$fcc2,$f16,$f4
80007168:	450bff4c 	bc1tl	$fcc2,80006e9c <_strtod_r+0x8ac>
8000716c:	24150022 	li	s5,34
80007170:	0000a821 	move	s5,zero
80007174:	08001aa4 	j	80006a90 <_strtod_r+0x4a0>
80007178:	24140001 	li	s4,1
8000717c:	8fa30024 	lw	v1,36(sp)
80007180:	2872ffea 	slti	s2,v1,-22
80007184:	1640fde4 	bnez	s2,80006918 <_strtod_r+0x328>
80007188:	8fb90024 	lw	t9,36(sp)
8000718c:	3c078001 	lui	a3,0x8001
80007190:	0003f0c0 	sll	s8,v1,0x3
80007194:	24f3f4e0 	addiu	s3,a3,-2848
80007198:	027e4823 	subu	t1,s3,s8
8000719c:	d5240000 	ldc1	$f4,0(t1)
800071a0:	44943000 	mtc1	s4,$f6
800071a4:	44953800 	mtc1	s5,$f7
800071a8:	08001a2b 	j	800068ac <_strtod_r+0x2bc>
800071ac:	46243003 	div.d	$f0,$f6,$f4
800071b0:	3c0141f0 	lui	at,0x41f0
800071b4:	44815800 	mtc1	at,$f11
800071b8:	44805000 	mtc1	zero,$f10
800071bc:	08001a15 	j	80006854 <_strtod_r+0x264>
800071c0:	462a1080 	add.d	$f2,$f2,$f10
800071c4:	3c0141f0 	lui	at,0x41f0
800071c8:	44812800 	mtc1	at,$f5
800071cc:	44802000 	mtc1	zero,$f4
800071d0:	08001a05 	j	80006814 <_strtod_r+0x224>
800071d4:	46241080 	add.d	$f2,$f2,$f4
800071d8:	54e00006 	bnezl	a3,800071f4 <_strtod_r+0xc04>
800071dc:	afb70084 	sw	s7,132(sp)
800071e0:	55400004 	bnezl	t2,800071f4 <_strtod_r+0xc04>
800071e4:	afb70084 	sw	s7,132(sp)
800071e8:	5160fd2a 	beqzl	t3,80006694 <_strtod_r+0xa4>
800071ec:	8fb70084 	lw	s7,132(sp)
800071f0:	afb70084 	sw	s7,132(sp)
800071f4:	26f70001 	addiu	s7,s7,1
800071f8:	82e40000 	lb	a0,0(s7)
800071fc:	2411002b 	li	s1,43
80007200:	10910037 	beq	a0,s1,800072e0 <_strtod_r+0xcf0>
80007204:	00006821 	move	t5,zero
80007208:	2412002d 	li	s2,45
8000720c:	50920034 	beql	a0,s2,800072e0 <_strtod_r+0xcf0>
80007210:	240d0001 	li	t5,1
80007214:	2498ffd0 	addiu	t8,a0,-48
80007218:	2f13000a 	sltiu	s3,t8,10
8000721c:	5260fd6c 	beqzl	s3,800067d0 <_strtod_r+0x1e0>
80007220:	8fb70084 	lw	s7,132(sp)
80007224:	24020030 	li	v0,48
80007228:	10820027 	beq	a0,v0,800072c8 <_strtod_r+0xcd8>
8000722c:	2483ffcf 	addiu	v1,a0,-49
80007230:	2c790009 	sltiu	t9,v1,9
80007234:	5320fd66 	beqzl	t9,800067d0 <_strtod_r+0x1e0>
80007238:	afa00024 	sw	zero,36(sp)
8000723c:	2482ffd0 	addiu	v0,a0,-48
80007240:	02e04021 	move	t0,s7
80007244:	afa20024 	sw	v0,36(sp)
80007248:	26f70001 	addiu	s7,s7,1
8000724c:	82e40000 	lb	a0,0(s7)
80007250:	288e0030 	slti	t6,a0,48
80007254:	15c00011 	bnez	t6,8000729c <_strtod_r+0xcac>
80007258:	288f003a 	slti	t7,a0,58
8000725c:	51e00010 	beqzl	t7,800072a0 <_strtod_r+0xcb0>
80007260:	3c040098 	lui	a0,0x98
80007264:	8fae0024 	lw	t6,36(sp)
80007268:	26f70001 	addiu	s7,s7,1
8000726c:	000ec880 	sll	t9,t6,0x2
80007270:	032ec021 	addu	t8,t9,t6
80007274:	00189840 	sll	s3,t8,0x1
80007278:	02649021 	addu	s2,s3,a0
8000727c:	82e40000 	lb	a0,0(s7)
80007280:	2651ffd0 	addiu	s1,s2,-48
80007284:	28900030 	slti	s0,a0,48
80007288:	16000004 	bnez	s0,8000729c <_strtod_r+0xcac>
8000728c:	afb10024 	sw	s1,36(sp)
80007290:	2883003a 	slti	v1,a0,58
80007294:	1460fff4 	bnez	v1,80007268 <_strtod_r+0xc78>
80007298:	8fae0024 	lw	t6,36(sp)
8000729c:	3c040098 	lui	a0,0x98
800072a0:	02e88023 	subu	s0,s7,t0
800072a4:	3488967f 	ori	t0,a0,0x967f
800072a8:	8fa40024 	lw	a0,36(sp)
800072ac:	2a0f0009 	slti	t7,s0,9
800072b0:	010f200a 	movz	a0,t0,t7
800072b4:	11a0fd46 	beqz	t5,800067d0 <_strtod_r+0x1e0>
800072b8:	afa40024 	sw	a0,36(sp)
800072bc:	00046823 	negu	t5,a0
800072c0:	080019f4 	j	800067d0 <_strtod_r+0x1e0>
800072c4:	afad0024 	sw	t5,36(sp)
800072c8:	26f70001 	addiu	s7,s7,1
800072cc:	82e40000 	lb	a0,0(s7)
800072d0:	5082fffe 	beql	a0,v0,800072cc <_strtod_r+0xcdc>
800072d4:	26f70001 	addiu	s7,s7,1
800072d8:	08001c8c 	j	80007230 <_strtod_r+0xc40>
800072dc:	2483ffcf 	addiu	v1,a0,-49
800072e0:	26f70001 	addiu	s7,s7,1
800072e4:	08001c85 	j	80007214 <_strtod_r+0xc24>
800072e8:	82e40000 	lb	a0,0(s7)
800072ec:	26f70001 	addiu	s7,s7,1
800072f0:	14e00040 	bnez	a3,800073f4 <_strtod_r+0xe04>
800072f4:	82e40000 	lb	a0,0(s7)
800072f8:	24020030 	li	v0,48
800072fc:	10820037 	beq	a0,v0,800073dc <_strtod_r+0xdec>
80007300:	2493ffcf 	addiu	s3,a0,-49
80007304:	2e720009 	sltiu	s2,s3,9
80007308:	1240fd2c 	beqz	s2,800067bc <_strtod_r+0x1cc>
8000730c:	24080065 	li	t0,101
80007310:	01406021 	move	t4,t2
80007314:	2488ffd0 	addiu	t0,a0,-48
80007318:	02e02821 	move	a1,s7
8000731c:	00005021 	move	t2,zero
80007320:	11000017 	beqz	t0,80007380 <_strtod_r+0xd90>
80007324:	254a0001 	addiu	t2,t2,1
80007328:	24020001 	li	v0,1
8000732c:	004ac82a 	slt	t9,v0,t2
80007330:	1320000b 	beqz	t9,80007360 <_strtod_r+0xd70>
80007334:	018a6021 	addu	t4,t4,t2
80007338:	2544ffff 	addiu	a0,t2,-1
8000733c:	28ea0009 	slti	t2,a3,9
80007340:	1140001f 	beqz	t2,800073c0 <_strtod_r+0xdd0>
80007344:	24e70001 	addiu	a3,a3,1
80007348:	00167080 	sll	t6,s6,0x2
8000734c:	01d66821 	addu	t5,t6,s6
80007350:	000db040 	sll	s6,t5,0x1
80007354:	2484ffff 	addiu	a0,a0,-1
80007358:	1480fff9 	bnez	a0,80007340 <_strtod_r+0xd50>
8000735c:	28ea0009 	slti	t2,a3,9
80007360:	28e40009 	slti	a0,a3,9
80007364:	1080000e 	beqz	a0,800073a0 <_strtod_r+0xdb0>
80007368:	24e70001 	addiu	a3,a3,1
8000736c:	0016c880 	sll	t9,s6,0x2
80007370:	0336c021 	addu	t8,t9,s6
80007374:	00189840 	sll	s3,t8,0x1
80007378:	0268b021 	addu	s6,s3,t0
8000737c:	00005021 	move	t2,zero
80007380:	26f70001 	addiu	s7,s7,1
80007384:	82e40000 	lb	a0,0(s7)
80007388:	248fffd0 	addiu	t7,a0,-48
8000738c:	2de2000a 	sltiu	v0,t7,10
80007390:	1440ffe3 	bnez	v0,80007320 <_strtod_r+0xd30>
80007394:	01e04021 	move	t0,t7
80007398:	080019ef 	j	800067bc <_strtod_r+0x1cc>
8000739c:	24080065 	li	t0,101
800073a0:	28ea0011 	slti	t2,a3,17
800073a4:	1140fff6 	beqz	t2,80007380 <_strtod_r+0xd90>
800073a8:	00005021 	move	t2,zero
800073ac:	00097080 	sll	t6,t1,0x2
800073b0:	01c96821 	addu	t5,t6,t1
800073b4:	000d1840 	sll	v1,t5,0x1
800073b8:	08001ce0 	j	80007380 <_strtod_r+0xd90>
800073bc:	00684821 	addu	t1,v1,t0
800073c0:	28ef0011 	slti	t7,a3,17
800073c4:	51e0ffe4 	beqzl	t7,80007358 <_strtod_r+0xd68>
800073c8:	2484ffff 	addiu	a0,a0,-1
800073cc:	00098880 	sll	s1,t1,0x2
800073d0:	02298021 	addu	s0,s1,t1
800073d4:	08001cd5 	j	80007354 <_strtod_r+0xd64>
800073d8:	00104840 	sll	t1,s0,0x1
800073dc:	26f70001 	addiu	s7,s7,1
800073e0:	82e40000 	lb	a0,0(s7)
800073e4:	1082fffd 	beq	a0,v0,800073dc <_strtod_r+0xdec>
800073e8:	254a0001 	addiu	t2,t2,1
800073ec:	08001cc1 	j	80007304 <_strtod_r+0xd14>
800073f0:	2493ffcf 	addiu	s3,a0,-49
800073f4:	2488ffd0 	addiu	t0,a0,-48
800073f8:	2d18000a 	sltiu	t8,t0,10
800073fc:	1700ffc8 	bnez	t8,80007320 <_strtod_r+0xd30>
80007400:	00000000 	nop
80007404:	080019ef 	j	800067bc <_strtod_r+0x1cc>
80007408:	24080065 	li	t0,101
8000740c:	50c0fce0 	beqzl	a2,80006790 <_strtod_r+0x1a0>
80007410:	26f70001 	addiu	s7,s7,1
80007414:	00097080 	sll	t6,t1,0x2
80007418:	01c96821 	addu	t5,t6,t1
8000741c:	000d4840 	sll	t1,t5,0x1
80007420:	01244021 	addu	t0,t1,a0
80007424:	080019e3 	j	8000678c <_strtod_r+0x19c>
80007428:	2509ffd0 	addiu	t1,t0,-48
8000742c:	240b0001 	li	t3,1
80007430:	24030030 	li	v1,48
80007434:	26f70001 	addiu	s7,s7,1
80007438:	82e20000 	lb	v0,0(s7)
8000743c:	1043fffd 	beq	v0,v1,80007434 <_strtod_r+0xe44>
80007440:	92e50000 	lbu	a1,0(s7)
80007444:	1040fc94 	beqz	v0,80006698 <_strtod_r+0xa8>
80007448:	8fa40088 	lw	a0,136(sp)
8000744c:	080019d0 	j	80006740 <_strtod_r+0x150>
80007450:	00058e00 	sll	s1,a1,0x18
80007454:	26f70001 	addiu	s7,s7,1
80007458:	82e30000 	lb	v1,0(s7)
8000745c:	240a0061 	li	t2,97
80007460:	106a0003 	beq	v1,t2,80007470 <_strtod_r+0xe80>
80007464:	240b0041 	li	t3,65
80007468:	546bfc8a 	bnel	v1,t3,80006694 <_strtod_r+0xa4>
8000746c:	8fb70084 	lw	s7,132(sp)
80007470:	26f70001 	addiu	s7,s7,1
80007474:	82e30000 	lb	v1,0(s7)
80007478:	10640003 	beq	v1,a0,80007488 <_strtod_r+0xe98>
8000747c:	240d004e 	li	t5,78
80007480:	546dfc84 	bnel	v1,t5,80006694 <_strtod_r+0xa4>
80007484:	8fb70084 	lw	s7,132(sp)
80007488:	240e0001 	li	t6,1
8000748c:	26f70001 	addiu	s7,s7,1
80007490:	080019a5 	j	80006694 <_strtod_r+0xa4>
80007494:	afae0028 	sw	t6,40(sp)
80007498:	08001993 	j	8000664c <_strtod_r+0x5c>
8000749c:	26f70001 	addiu	s7,s7,1

800074a0 <strtod>:
800074a0:	3c028001 	lui	v0,0x8001
800074a4:	00803821 	move	a3,a0
800074a8:	8c44e348 	lw	a0,-7352(v0)
800074ac:	27bdffe8 	addiu	sp,sp,-24
800074b0:	00a03021 	move	a2,a1
800074b4:	afbf0010 	sw	ra,16(sp)
800074b8:	0c00197c 	jal	800065f0 <_strtod_r>
800074bc:	00e02821 	move	a1,a3
800074c0:	8fbf0010 	lw	ra,16(sp)
800074c4:	03e00008 	jr	ra
800074c8:	27bd0018 	addiu	sp,sp,24

800074cc <strtof>:
800074cc:	3c038001 	lui	v1,0x8001
800074d0:	00803821 	move	a3,a0
800074d4:	8c64e348 	lw	a0,-7352(v1)
800074d8:	27bdffe0 	addiu	sp,sp,-32
800074dc:	00a03021 	move	a2,a1
800074e0:	afbf0010 	sw	ra,16(sp)
800074e4:	f7b40018 	sdc1	$f20,24(sp)
800074e8:	0c00197c 	jal	800065f0 <_strtod_r>
800074ec:	00e02821 	move	a1,a3
800074f0:	46200306 	mov.d	$f12,$f0
800074f4:	0c001898 	jal	80006260 <isnan>
800074f8:	46200506 	mov.d	$f20,$f0
800074fc:	14400006 	bnez	v0,80007518 <strtof+0x4c>
80007500:	00002021 	move	a0,zero
80007504:	4620a020 	cvt.s.d	$f0,$f20
80007508:	8fbf0010 	lw	ra,16(sp)
8000750c:	d7b40018 	ldc1	$f20,24(sp)
80007510:	03e00008 	jr	ra
80007514:	27bd0020 	addiu	sp,sp,32
80007518:	0c0018e0 	jal	80006380 <nanf>
8000751c:	00000000 	nop
80007520:	08001d43 	j	8000750c <strtof+0x40>
80007524:	8fbf0010 	lw	ra,16(sp)
	...

80007530 <_ungetc_r>:
80007530:	27bdffd0 	addiu	sp,sp,-48
80007534:	afb20018 	sw	s2,24(sp)
80007538:	2403ffff 	li	v1,-1
8000753c:	00a09021 	move	s2,a1
80007540:	afb10014 	sw	s1,20(sp)
80007544:	afb00010 	sw	s0,16(sp)
80007548:	afbf0028 	sw	ra,40(sp)
8000754c:	afb50024 	sw	s5,36(sp)
80007550:	afb40020 	sw	s4,32(sp)
80007554:	afb3001c 	sw	s3,28(sp)
80007558:	00c08821 	move	s1,a2
8000755c:	00808021 	move	s0,a0
80007560:	12430038 	beq	s2,v1,80007644 <_ungetc_r+0x114>
80007564:	2405ffff 	li	a1,-1
80007568:	50800005 	beqzl	a0,80007580 <_ungetc_r+0x50>
8000756c:	9625000c 	lhu	a1,12(s1)
80007570:	8c830038 	lw	v1,56(a0)
80007574:	10600078 	beqz	v1,80007758 <_ungetc_r+0x228>
80007578:	00000000 	nop
8000757c:	9625000c 	lhu	a1,12(s1)
80007580:	30a4ffdf 	andi	a0,a1,0xffdf
80007584:	30820004 	andi	v0,a0,0x4
80007588:	1440000a 	bnez	v0,800075b4 <_ungetc_r+0x84>
8000758c:	a624000c 	sh	a0,12(s1)
80007590:	30860010 	andi	a2,a0,0x10
80007594:	10c0002b 	beqz	a2,80007644 <_ungetc_r+0x114>
80007598:	2405ffff 	li	a1,-1
8000759c:	30870008 	andi	a3,a0,0x8
800075a0:	14e00063 	bnez	a3,80007730 <_ungetc_r+0x200>
800075a4:	00000000 	nop
800075a8:	962a000c 	lhu	t2,12(s1)
800075ac:	35490004 	ori	t1,t2,0x4
800075b0:	a629000c 	sh	t1,12(s1)
800075b4:	8e250030 	lw	a1,48(s1)
800075b8:	10a00040 	beqz	a1,800076bc <_ungetc_r+0x18c>
800075bc:	325200ff 	andi	s2,s2,0xff
800075c0:	8e2c0004 	lw	t4,4(s1)
800075c4:	8e330034 	lw	s3,52(s1)
800075c8:	0193582a 	slt	t3,t4,s3
800075cc:	55600016 	bnezl	t3,80007628 <_ungetc_r+0xf8>
800075d0:	8e350000 	lw	s5,0(s1)
800075d4:	262d0040 	addiu	t5,s1,64
800075d8:	10ad0024 	beq	a1,t5,8000766c <_ungetc_r+0x13c>
800075dc:	0013a840 	sll	s5,s3,0x1
800075e0:	02002021 	move	a0,s0
800075e4:	0c003318 	jal	8000cc60 <_realloc_r>
800075e8:	02a03021 	move	a2,s5
800075ec:	0040a021 	move	s4,v0
800075f0:	1280000a 	beqz	s4,8000761c <_ungetc_r+0xec>
800075f4:	2402ffff 	li	v0,-1
800075f8:	02938021 	addu	s0,s4,s3
800075fc:	02603021 	move	a2,s3
80007600:	02002021 	move	a0,s0
80007604:	0c0017e0 	jal	80005f80 <memcpy>
80007608:	02802821 	move	a1,s4
8000760c:	ae300000 	sw	s0,0(s1)
80007610:	ae340030 	sw	s4,48(s1)
80007614:	ae350034 	sw	s5,52(s1)
80007618:	00001021 	move	v0,zero
8000761c:	14400009 	bnez	v0,80007644 <_ungetc_r+0x114>
80007620:	2405ffff 	li	a1,-1
80007624:	8e350000 	lw	s5,0(s1)
80007628:	02402821 	move	a1,s2
8000762c:	26b8ffff 	addiu	t8,s5,-1
80007630:	ae380000 	sw	t8,0(s1)
80007634:	a2b2ffff 	sb	s2,-1(s5)
80007638:	8e340004 	lw	s4,4(s1)
8000763c:	26920001 	addiu	s2,s4,1
80007640:	ae320004 	sw	s2,4(s1)
80007644:	8fbf0028 	lw	ra,40(sp)
80007648:	8fb50024 	lw	s5,36(sp)
8000764c:	8fb40020 	lw	s4,32(sp)
80007650:	8fb3001c 	lw	s3,28(sp)
80007654:	8fb20018 	lw	s2,24(sp)
80007658:	8fb10014 	lw	s1,20(sp)
8000765c:	8fb00010 	lw	s0,16(sp)
80007660:	00a01021 	move	v0,a1
80007664:	03e00008 	jr	ra
80007668:	27bd0030 	addiu	sp,sp,48
8000766c:	02002021 	move	a0,s0
80007670:	0c0001cc 	jal	80000730 <_malloc_r>
80007674:	24050400 	li	a1,1024
80007678:	0040a021 	move	s4,v0
8000767c:	1280ffe7 	beqz	s4,8000761c <_ungetc_r+0xec>
80007680:	2402ffff 	li	v0,-1
80007684:	240e0400 	li	t6,1024
80007688:	ae340030 	sw	s4,48(s1)
8000768c:	ae2e0034 	sw	t6,52(s1)
80007690:	24050002 	li	a1,2
80007694:	269403fd 	addiu	s4,s4,1021
80007698:	00b19821 	addu	s3,a1,s1
8000769c:	92700040 	lbu	s0,64(s3)
800076a0:	02857821 	addu	t7,s4,a1
800076a4:	24a5ffff 	addiu	a1,a1,-1
800076a8:	04a1fffb 	bgez	a1,80007698 <_ungetc_r+0x168>
800076ac:	a1f00000 	sb	s0,0(t7)
800076b0:	00001021 	move	v0,zero
800076b4:	08001d87 	j	8000761c <_ungetc_r+0xec>
800076b8:	ae340000 	sw	s4,0(s1)
800076bc:	8e220010 	lw	v0,16(s1)
800076c0:	10400007 	beqz	v0,800076e0 <_ungetc_r+0x1b0>
800076c4:	8e260000 	lw	a2,0(s1)
800076c8:	0046c82b 	sltu	t9,v0,a2
800076cc:	53200005 	beqzl	t9,800076e4 <_ungetc_r+0x1b4>
800076d0:	8e2a0004 	lw	t2,4(s1)
800076d4:	90c3ffff 	lbu	v1,-1(a2)
800076d8:	5072000f 	beql	v1,s2,80007718 <_ungetc_r+0x1e8>
800076dc:	8e240004 	lw	a0,4(s1)
800076e0:	8e2a0004 	lw	t2,4(s1)
800076e4:	24050003 	li	a1,3
800076e8:	26290040 	addiu	t1,s1,64
800076ec:	26280042 	addiu	t0,s1,66
800076f0:	240b0001 	li	t3,1
800076f4:	ae250034 	sw	a1,52(s1)
800076f8:	ae2b0004 	sw	t3,4(s1)
800076fc:	ae2a003c 	sw	t2,60(s1)
80007700:	ae260038 	sw	a2,56(s1)
80007704:	ae290030 	sw	t1,48(s1)
80007708:	ae280000 	sw	t0,0(s1)
8000770c:	a2320042 	sb	s2,66(s1)
80007710:	08001d91 	j	80007644 <_ungetc_r+0x114>
80007714:	02402821 	move	a1,s2
80007718:	24c7ffff 	addiu	a3,a2,-1
8000771c:	02402821 	move	a1,s2
80007720:	24860001 	addiu	a2,a0,1
80007724:	ae260004 	sw	a2,4(s1)
80007728:	08001d91 	j	80007644 <_ungetc_r+0x114>
8000772c:	ae270000 	sw	a3,0(s1)
80007730:	0c002cfc 	jal	8000b3f0 <fflush>
80007734:	02202021 	move	a0,s1
80007738:	1440ffc2 	bnez	v0,80007644 <_ungetc_r+0x114>
8000773c:	2405ffff 	li	a1,-1
80007740:	9628000c 	lhu	t0,12(s1)
80007744:	ae200008 	sw	zero,8(s1)
80007748:	ae200018 	sw	zero,24(s1)
8000774c:	3104fff7 	andi	a0,t0,0xfff7
80007750:	08001d6a 	j	800075a8 <_ungetc_r+0x78>
80007754:	a624000c 	sh	a0,12(s1)
80007758:	0c0015df 	jal	8000577c <__sinit>
8000775c:	00000000 	nop
80007760:	08001d60 	j	80007580 <_ungetc_r+0x50>
80007764:	9625000c 	lhu	a1,12(s1)

80007768 <__submore>:
80007768:	27bdffd8 	addiu	sp,sp,-40
8000776c:	afb3001c 	sw	s3,28(sp)
80007770:	afbf0024 	sw	ra,36(sp)
80007774:	afb40020 	sw	s4,32(sp)
80007778:	afb20018 	sw	s2,24(sp)
8000777c:	afb10014 	sw	s1,20(sp)
80007780:	afb00010 	sw	s0,16(sp)
80007784:	00a09821 	move	s3,a1
80007788:	8ca50030 	lw	a1,48(a1)
8000778c:	26630040 	addiu	v1,s3,64
80007790:	10a30019 	beq	a1,v1,800077f8 <__submore+0x90>
80007794:	00000000 	nop
80007798:	8e720034 	lw	s2,52(s3)
8000779c:	0012a040 	sll	s4,s2,0x1
800077a0:	0c003318 	jal	8000cc60 <_realloc_r>
800077a4:	02803021 	move	a2,s4
800077a8:	00408821 	move	s1,v0
800077ac:	1220000a 	beqz	s1,800077d8 <__submore+0x70>
800077b0:	2402ffff 	li	v0,-1
800077b4:	02328021 	addu	s0,s1,s2
800077b8:	02403021 	move	a2,s2
800077bc:	02002021 	move	a0,s0
800077c0:	0c0017e0 	jal	80005f80 <memcpy>
800077c4:	02202821 	move	a1,s1
800077c8:	ae740034 	sw	s4,52(s3)
800077cc:	ae700000 	sw	s0,0(s3)
800077d0:	ae710030 	sw	s1,48(s3)
800077d4:	00001021 	move	v0,zero
800077d8:	8fbf0024 	lw	ra,36(sp)
800077dc:	8fb40020 	lw	s4,32(sp)
800077e0:	8fb3001c 	lw	s3,28(sp)
800077e4:	8fb20018 	lw	s2,24(sp)
800077e8:	8fb10014 	lw	s1,20(sp)
800077ec:	8fb00010 	lw	s0,16(sp)
800077f0:	03e00008 	jr	ra
800077f4:	27bd0028 	addiu	sp,sp,40
800077f8:	0c0001cc 	jal	80000730 <_malloc_r>
800077fc:	24050400 	li	a1,1024
80007800:	00408821 	move	s1,v0
80007804:	1220fff4 	beqz	s1,800077d8 <__submore+0x70>
80007808:	2402ffff 	li	v0,-1
8000780c:	24030400 	li	v1,1024
80007810:	ae710030 	sw	s1,48(s3)
80007814:	ae630034 	sw	v1,52(s3)
80007818:	24120002 	li	s2,2
8000781c:	263103fd 	addiu	s1,s1,1021
80007820:	02532021 	addu	a0,s2,s3
80007824:	90850040 	lbu	a1,64(a0)
80007828:	02321021 	addu	v0,s1,s2
8000782c:	2652ffff 	addiu	s2,s2,-1
80007830:	0641fffb 	bgez	s2,80007820 <__submore+0xb8>
80007834:	a0450000 	sb	a1,0(v0)
80007838:	00001021 	move	v0,zero
8000783c:	08001df6 	j	800077d8 <__submore+0x70>
80007840:	ae710000 	sw	s1,0(s3)

80007844 <ungetc>:
80007844:	3c028001 	lui	v0,0x8001
80007848:	00803821 	move	a3,a0
8000784c:	8c44e348 	lw	a0,-7352(v0)
80007850:	27bdffe8 	addiu	sp,sp,-24
80007854:	00a03021 	move	a2,a1
80007858:	afbf0010 	sw	ra,16(sp)
8000785c:	0c001d4c 	jal	80007530 <_ungetc_r>
80007860:	00e02821 	move	a1,a3
80007864:	8fbf0010 	lw	ra,16(sp)
80007868:	03e00008 	jr	ra
8000786c:	27bd0018 	addiu	sp,sp,24

80007870 <_vfprintf_r>:
80007870:	27bdf950 	addiu	sp,sp,-1712
80007874:	afb00688 	sw	s0,1672(sp)
80007878:	afa406b0 	sw	a0,1712(sp)
8000787c:	afa506b4 	sw	a1,1716(sp)
80007880:	afbf06ac 	sw	ra,1708(sp)
80007884:	afbe06a8 	sw	s8,1704(sp)
80007888:	afb706a4 	sw	s7,1700(sp)
8000788c:	afb606a0 	sw	s6,1696(sp)
80007890:	afb5069c 	sw	s5,1692(sp)
80007894:	afb40698 	sw	s4,1688(sp)
80007898:	afb30694 	sw	s3,1684(sp)
8000789c:	afb20690 	sw	s2,1680(sp)
800078a0:	afb1068c 	sw	s1,1676(sp)
800078a4:	00c08021 	move	s0,a2
800078a8:	0c001791 	jal	80005e44 <localeconv>
800078ac:	afa706bc 	sw	a3,1724(sp)
800078b0:	8c430000 	lw	v1,0(v0)
800078b4:	00002021 	move	a0,zero
800078b8:	00002821 	move	a1,zero
800078bc:	afa40668 	sw	a0,1640(sp)
800078c0:	afa5066c 	sw	a1,1644(sp)
800078c4:	afa30660 	sw	v1,1632(sp)
800078c8:	8fa306b0 	lw	v1,1712(sp)
800078cc:	afa00670 	sw	zero,1648(sp)
800078d0:	afa00678 	sw	zero,1656(sp)
800078d4:	10600004 	beqz	v1,800078e8 <_vfprintf_r+0x78>
800078d8:	afa0067c 	sw	zero,1660(sp)
800078dc:	8c640038 	lw	a0,56(v1)
800078e0:	108006cd 	beqz	a0,80009418 <_vfprintf_r+0x1ba8>
800078e4:	00000000 	nop
800078e8:	8fa406b4 	lw	a0,1716(sp)
800078ec:	9488000c 	lhu	t0,12(a0)
800078f0:	31050008 	andi	a1,t0,0x8
800078f4:	10a00004 	beqz	a1,80007908 <_vfprintf_r+0x98>
800078f8:	00000000 	nop
800078fc:	8c860010 	lw	a2,16(a0)
80007900:	14c00008 	bnez	a2,80007924 <_vfprintf_r+0xb4>
80007904:	3109001a 	andi	t1,t0,0x1a
80007908:	0c002784 	jal	80009e10 <__swsetup>
8000790c:	8fa406b4 	lw	a0,1716(sp)
80007910:	144001b2 	bnez	v0,80007fdc <_vfprintf_r+0x76c>
80007914:	2403ffff 	li	v1,-1
80007918:	8fa206b4 	lw	v0,1716(sp)
8000791c:	9448000c 	lhu	t0,12(v0)
80007920:	3109001a 	andi	t1,t0,0x1a
80007924:	2407000a 	li	a3,10
80007928:	11270695 	beq	t1,a3,80009380 <_vfprintf_r+0x1b10>
8000792c:	8fa306b4 	lw	v1,1716(sp)
80007930:	27b20048 	addiu	s2,sp,72
80007934:	0200a021 	move	s4,s0
80007938:	afb20038 	sw	s2,56(sp)
8000793c:	afa00040 	sw	zero,64(sp)
80007940:	afa0003c 	sw	zero,60(sp)
80007944:	afa00658 	sw	zero,1624(sp)
80007948:	82830000 	lb	v1,0(s4)
8000794c:	1060000b 	beqz	v1,8000797c <_vfprintf_r+0x10c>
80007950:	02809821 	move	s3,s4
80007954:	24040025 	li	a0,37
80007958:	10640009 	beq	v1,a0,80007980 <_vfprintf_r+0x110>
8000795c:	02938823 	subu	s1,s4,s3
80007960:	24030025 	li	v1,37
80007964:	26940001 	addiu	s4,s4,1
80007968:	82820000 	lb	v0,0(s4)
8000796c:	10400004 	beqz	v0,80007980 <_vfprintf_r+0x110>
80007970:	02938823 	subu	s1,s4,s3
80007974:	5443fffc 	bnel	v0,v1,80007968 <_vfprintf_r+0xf8>
80007978:	26940001 	addiu	s4,s4,1
8000797c:	02938823 	subu	s1,s4,s3
80007980:	52200015 	beqzl	s1,800079d8 <_vfprintf_r+0x168>
80007984:	828c0000 	lb	t4,0(s4)
80007988:	ae510004 	sw	s1,4(s2)
8000798c:	8fa3003c 	lw	v1,60(sp)
80007990:	8fa70040 	lw	a3,64(sp)
80007994:	ae530000 	sw	s3,0(s2)
80007998:	24660001 	addiu	a2,v1,1
8000799c:	28c50008 	slti	a1,a2,8
800079a0:	00f11821 	addu	v1,a3,s1
800079a4:	afa30040 	sw	v1,64(sp)
800079a8:	afa6003c 	sw	a2,60(sp)
800079ac:	14a00006 	bnez	a1,800079c8 <_vfprintf_r+0x158>
800079b0:	26520008 	addiu	s2,s2,8
800079b4:	1460066d 	bnez	v1,8000936c <_vfprintf_r+0x1afc>
800079b8:	00001021 	move	v0,zero
800079bc:	1440017c 	bnez	v0,80007fb0 <_vfprintf_r+0x740>
800079c0:	afa0003c 	sw	zero,60(sp)
800079c4:	27b20048 	addiu	s2,sp,72
800079c8:	8faa0658 	lw	t2,1624(sp)
800079cc:	01514821 	addu	t1,t2,s1
800079d0:	afa90658 	sw	t1,1624(sp)
800079d4:	828c0000 	lb	t4,0(s4)
800079d8:	11800655 	beqz	t4,80009330 <_vfprintf_r+0x1ac0>
800079dc:	26940001 	addiu	s4,s4,1
800079e0:	92840000 	lbu	a0,0(s4)
800079e4:	2415ffff 	li	s5,-1
800079e8:	afa00654 	sw	zero,1620(sp)
800079ec:	afa00674 	sw	zero,1652(sp)
800079f0:	afa0065c 	sw	zero,1628(sp)
800079f4:	a3a00028 	sb	zero,40(sp)
800079f8:	00046e00 	sll	t5,a0,0x18
800079fc:	000dbe03 	sra	s7,t5,0x18
80007a00:	26940001 	addiu	s4,s4,1
80007a04:	26e3ffe0 	addiu	v1,s7,-32
80007a08:	2c6e0059 	sltiu	t6,v1,89
80007a0c:	11c00642 	beqz	t6,80009318 <_vfprintf_r+0x1aa8>
80007a10:	3c118001 	lui	s1,0x8001
80007a14:	00035880 	sll	t3,v1,0x2
80007a18:	2622f2fc 	addiu	v0,s1,-3332
80007a1c:	01624021 	addu	t0,t3,v0
80007a20:	8d0f0000 	lw	t7,0(t0)
80007a24:	01e00008 	jr	t7
80007a28:	00000000 	nop
80007a2c:	83b30028 	lb	s3,40(sp)
80007a30:	52600003 	beqzl	s3,80007a40 <_vfprintf_r+0x1d0>
80007a34:	92840000 	lbu	a0,0(s4)
80007a38:	08001e7e 	j	800079f8 <_vfprintf_r+0x188>
80007a3c:	92840000 	lbu	a0,0(s4)
80007a40:	24050020 	li	a1,32
80007a44:	08001e7e 	j	800079f8 <_vfprintf_r+0x188>
80007a48:	a3a50028 	sb	a1,40(sp)
80007a4c:	8fb00654 	lw	s0,1620(sp)
80007a50:	92840000 	lbu	a0,0(s4)
80007a54:	36030001 	ori	v1,s0,0x1
80007a58:	08001e7e 	j	800079f8 <_vfprintf_r+0x188>
80007a5c:	afa30654 	sw	v1,1620(sp)
80007a60:	8fa506bc 	lw	a1,1724(sp)
80007a64:	241efffc 	li	s8,-4
80007a68:	24b90003 	addiu	t9,a1,3
80007a6c:	033eb824 	and	s7,t9,s8
80007a70:	8ee40000 	lw	a0,0(s7)
80007a74:	26f60004 	addiu	s6,s7,4
80007a78:	afb706bc 	sw	s7,1724(sp)
80007a7c:	afa4065c 	sw	a0,1628(sp)
80007a80:	0481ffed 	bgez	a0,80007a38 <_vfprintf_r+0x1c8>
80007a84:	afb606bc 	sw	s6,1724(sp)
80007a88:	00043023 	negu	a2,a0
80007a8c:	afa6065c 	sw	a2,1628(sp)
80007a90:	8fa70654 	lw	a3,1620(sp)
80007a94:	92840000 	lbu	a0,0(s4)
80007a98:	34e50004 	ori	a1,a3,0x4
80007a9c:	08001e7e 	j	800079f8 <_vfprintf_r+0x188>
80007aa0:	afa50654 	sw	a1,1620(sp)
80007aa4:	92840000 	lbu	a0,0(s4)
80007aa8:	08001e91 	j	80007a44 <_vfprintf_r+0x1d4>
80007aac:	2405002b 	li	a1,43
80007ab0:	82970000 	lb	s7,0(s4)
80007ab4:	2415002a 	li	s5,42
80007ab8:	12f50015 	beq	s7,s5,80007b10 <_vfprintf_r+0x2a0>
80007abc:	26940001 	addiu	s4,s4,1
80007ac0:	26efffd0 	addiu	t7,s7,-48
80007ac4:	2dee000a 	sltiu	t6,t7,10
80007ac8:	11c0000b 	beqz	t6,80007af8 <_vfprintf_r+0x288>
80007acc:	00008021 	move	s0,zero
80007ad0:	0010c080 	sll	t8,s0,0x2
80007ad4:	0310b021 	addu	s6,t8,s0
80007ad8:	00169840 	sll	s3,s6,0x1
80007adc:	02778821 	addu	s1,s3,s7
80007ae0:	82970000 	lb	s7,0(s4)
80007ae4:	2630ffd0 	addiu	s0,s1,-48
80007ae8:	26ebffd0 	addiu	t3,s7,-48
80007aec:	2d68000a 	sltiu	t0,t3,10
80007af0:	1500fff7 	bnez	t0,80007ad0 <_vfprintf_r+0x260>
80007af4:	26940001 	addiu	s4,s4,1
80007af8:	0200a821 	move	s5,s0
80007afc:	2a10ffff 	slti	s0,s0,-1
80007b00:	5600ffc0 	bnezl	s0,80007a04 <_vfprintf_r+0x194>
80007b04:	2415ffff 	li	s5,-1
80007b08:	08001e82 	j	80007a08 <_vfprintf_r+0x198>
80007b0c:	26e3ffe0 	addiu	v1,s7,-32
80007b10:	8fad06bc 	lw	t5,1724(sp)
80007b14:	240cfffc 	li	t4,-4
80007b18:	25aa0003 	addiu	t2,t5,3
80007b1c:	014c4824 	and	t1,t2,t4
80007b20:	8d350000 	lw	s5,0(t1)
80007b24:	25240004 	addiu	a0,t1,4
80007b28:	afa906bc 	sw	t1,1724(sp)
80007b2c:	06a1ffc2 	bgez	s5,80007a38 <_vfprintf_r+0x1c8>
80007b30:	afa406bc 	sw	a0,1724(sp)
80007b34:	92840000 	lbu	a0,0(s4)
80007b38:	08001e7e 	j	800079f8 <_vfprintf_r+0x188>
80007b3c:	2415ffff 	li	s5,-1
80007b40:	8fa20654 	lw	v0,1620(sp)
80007b44:	92840000 	lbu	a0,0(s4)
80007b48:	08001ea7 	j	80007a9c <_vfprintf_r+0x22c>
80007b4c:	34450080 	ori	a1,v0,0x80
80007b50:	00008021 	move	s0,zero
80007b54:	00102080 	sll	a0,s0,0x2
80007b58:	00903821 	addu	a3,a0,s0
80007b5c:	00073040 	sll	a2,a3,0x1
80007b60:	00d72821 	addu	a1,a2,s7
80007b64:	82970000 	lb	s7,0(s4)
80007b68:	24b0ffd0 	addiu	s0,a1,-48
80007b6c:	26940001 	addiu	s4,s4,1
80007b70:	26feffd0 	addiu	s8,s7,-48
80007b74:	2fd9000a 	sltiu	t9,s8,10
80007b78:	1320ffa2 	beqz	t9,80007a04 <_vfprintf_r+0x194>
80007b7c:	afb0065c 	sw	s0,1628(sp)
80007b80:	08001ed6 	j	80007b58 <_vfprintf_r+0x2e8>
80007b84:	00102080 	sll	a0,s0,0x2
80007b88:	8fae0654 	lw	t6,1620(sp)
80007b8c:	35cd0010 	ori	t5,t6,0x10
80007b90:	afad0654 	sw	t5,1620(sp)
80007b94:	8fa80654 	lw	t0,1620(sp)
80007b98:	310f0010 	andi	t7,t0,0x10
80007b9c:	15e0040e 	bnez	t7,80008bd8 <_vfprintf_r+0x1368>
80007ba0:	8fa206bc 	lw	v0,1724(sp)
80007ba4:	8fb10654 	lw	s1,1620(sp)
80007ba8:	322b0040 	andi	t3,s1,0x40
80007bac:	1160040b 	beqz	t3,80008bdc <_vfprintf_r+0x136c>
80007bb0:	2413fffc 	li	s3,-4
80007bb4:	8fb906bc 	lw	t9,1724(sp)
80007bb8:	2410fffc 	li	s0,-4
80007bbc:	27360003 	addiu	s6,t9,3
80007bc0:	02d01024 	and	v0,s6,s0
80007bc4:	84440000 	lh	a0,0(v0)
80007bc8:	afa206bc 	sw	v0,1724(sp)
80007bcc:	24460004 	addiu	a2,v0,4
80007bd0:	048003fd 	bltz	a0,80008bc8 <_vfprintf_r+0x1358>
80007bd4:	afa606bc 	sw	a2,1724(sp)
80007bd8:	24030001 	li	v1,1
80007bdc:	06a00005 	bltz	s5,80007bf4 <_vfprintf_r+0x384>
80007be0:	afb50674 	sw	s5,1652(sp)
80007be4:	8fa90654 	lw	t1,1620(sp)
80007be8:	2405ff7f 	li	a1,-129
80007bec:	0125a824 	and	s5,t1,a1
80007bf0:	afb50654 	sw	s5,1620(sp)
80007bf4:	14800004 	bnez	a0,80007c08 <_vfprintf_r+0x398>
80007bf8:	27b301e4 	addiu	s3,sp,484
80007bfc:	8faa0674 	lw	t2,1652(sp)
80007c00:	114003e7 	beqz	t2,80008ba0 <_vfprintf_r+0x1330>
80007c04:	00000000 	nop
80007c08:	240c0001 	li	t4,1
80007c0c:	106c03d1 	beq	v1,t4,80008b54 <_vfprintf_r+0x12e4>
80007c10:	287e0002 	slti	s8,v1,2
80007c14:	17c003bd 	bnez	s8,80008b0c <_vfprintf_r+0x129c>
80007c18:	240d0002 	li	t5,2
80007c1c:	106d03b1 	beq	v1,t5,80008ae4 <_vfprintf_r+0x1274>
80007c20:	8faa0678 	lw	t2,1656(sp)
80007c24:	3c048001 	lui	a0,0x8001
80007c28:	2493f2a0 	addiu	s3,a0,-3424
80007c2c:	0c00104c 	jal	80004130 <strlen>
80007c30:	02602021 	move	a0,s3
80007c34:	0040b021 	move	s6,v0
80007c38:	8fa70674 	lw	a3,1652(sp)
80007c3c:	83a60028 	lb	a2,40(sp)
80007c40:	02c0f021 	move	s8,s6
80007c44:	02c7702a 	slt	t6,s6,a3
80007c48:	00eef00b 	movn	s8,a3,t6
80007c4c:	10c003a0 	beqz	a2,80008ad0 <_vfprintf_r+0x1260>
80007c50:	93a50028 	lbu	a1,40(sp)
80007c54:	27de0001 	addiu	s8,s8,1
80007c58:	8fa20654 	lw	v0,1620(sp)
80007c5c:	30430084 	andi	v1,v0,0x84
80007c60:	14600031 	bnez	v1,80007d28 <_vfprintf_r+0x4b8>
80007c64:	afa30680 	sw	v1,1664(sp)
80007c68:	8fa8065c 	lw	t0,1628(sp)
80007c6c:	011e8023 	subu	s0,t0,s8
80007c70:	1a00002e 	blez	s0,80007d2c <_vfprintf_r+0x4bc>
80007c74:	00057600 	sll	t6,a1,0x18
80007c78:	2a110011 	slti	s1,s0,17
80007c7c:	16200017 	bnez	s1,80007cdc <_vfprintf_r+0x46c>
80007c80:	3c188001 	lui	t8,0x8001
80007c84:	2715f280 	addiu	s5,t8,-3456
80007c88:	24110010 	li	s1,16
80007c8c:	ae510004 	sw	s1,4(s2)
80007c90:	8faa003c 	lw	t2,60(sp)
80007c94:	8fa50040 	lw	a1,64(sp)
80007c98:	ae550000 	sw	s5,0(s2)
80007c9c:	25490001 	addiu	t1,t2,1
80007ca0:	24a30010 	addiu	v1,a1,16
80007ca4:	29390008 	slti	t9,t1,8
80007ca8:	afa30040 	sw	v1,64(sp)
80007cac:	afa9003c 	sw	t1,60(sp)
80007cb0:	17200006 	bnez	t9,80007ccc <_vfprintf_r+0x45c>
80007cb4:	26520008 	addiu	s2,s2,8
80007cb8:	14600380 	bnez	v1,80008abc <_vfprintf_r+0x124c>
80007cbc:	00001021 	move	v0,zero
80007cc0:	144000bb 	bnez	v0,80007fb0 <_vfprintf_r+0x740>
80007cc4:	afa0003c 	sw	zero,60(sp)
80007cc8:	27b20048 	addiu	s2,sp,72
80007ccc:	2610fff0 	addiu	s0,s0,-16
80007cd0:	2a040011 	slti	a0,s0,17
80007cd4:	5080ffee 	beqzl	a0,80007c90 <_vfprintf_r+0x420>
80007cd8:	ae510004 	sw	s1,4(s2)
80007cdc:	ae500004 	sw	s0,4(s2)
80007ce0:	8fa7003c 	lw	a3,60(sp)
80007ce4:	8fa60040 	lw	a2,64(sp)
80007ce8:	3c0d8001 	lui	t5,0x8001
80007cec:	24f50001 	addiu	s5,a3,1
80007cf0:	00d02821 	addu	a1,a2,s0
80007cf4:	25acf280 	addiu	t4,t5,-3456
80007cf8:	2ab00008 	slti	s0,s5,8
80007cfc:	ae4c0000 	sw	t4,0(s2)
80007d00:	afa50040 	sw	a1,64(sp)
80007d04:	afb5003c 	sw	s5,60(sp)
80007d08:	1600036a 	bnez	s0,80008ab4 <_vfprintf_r+0x1244>
80007d0c:	26520008 	addiu	s2,s2,8
80007d10:	14a00363 	bnez	a1,80008aa0 <_vfprintf_r+0x1230>
80007d14:	00001021 	move	v0,zero
80007d18:	144000a5 	bnez	v0,80007fb0 <_vfprintf_r+0x740>
80007d1c:	afa0003c 	sw	zero,60(sp)
80007d20:	93a50028 	lbu	a1,40(sp)
80007d24:	27b20048 	addiu	s2,sp,72
80007d28:	00057600 	sll	t6,a1,0x18
80007d2c:	11c0033e 	beqz	t6,80008a28 <_vfprintf_r+0x11b8>
80007d30:	8fb90654 	lw	t9,1620(sp)
80007d34:	24030001 	li	v1,1
80007d38:	ae430004 	sw	v1,4(s2)
80007d3c:	8fa2003c 	lw	v0,60(sp)
80007d40:	8fb10040 	lw	s1,64(sp)
80007d44:	27a80028 	addiu	t0,sp,40
80007d48:	244b0001 	addiu	t3,v0,1
80007d4c:	26250001 	addiu	a1,s1,1
80007d50:	296f0008 	slti	t7,t3,8
80007d54:	ae480000 	sw	t0,0(s2)
80007d58:	afa50040 	sw	a1,64(sp)
80007d5c:	afab003c 	sw	t3,60(sp)
80007d60:	15e00006 	bnez	t7,80007d7c <_vfprintf_r+0x50c>
80007d64:	26520008 	addiu	s2,s2,8
80007d68:	14a0032a 	bnez	a1,80008a14 <_vfprintf_r+0x11a4>
80007d6c:	00001021 	move	v0,zero
80007d70:	afa0003c 	sw	zero,60(sp)
80007d74:	1440008e 	bnez	v0,80007fb0 <_vfprintf_r+0x740>
80007d78:	27b20048 	addiu	s2,sp,72
80007d7c:	8fa60680 	lw	a2,1664(sp)
80007d80:	240d0080 	li	t5,128
80007d84:	10cd02eb 	beq	a2,t5,80008934 <_vfprintf_r+0x10c4>
80007d88:	8fa7065c 	lw	a3,1628(sp)
80007d8c:	8fa50674 	lw	a1,1652(sp)
80007d90:	00b68023 	subu	s0,a1,s6
80007d94:	1a00002b 	blez	s0,80007e44 <_vfprintf_r+0x5d4>
80007d98:	2a0c0011 	slti	t4,s0,17
80007d9c:	15800017 	bnez	t4,80007dfc <_vfprintf_r+0x58c>
80007da0:	3c0d8001 	lui	t5,0x8001
80007da4:	25b5f290 	addiu	s5,t5,-3440
80007da8:	24110010 	li	s1,16
80007dac:	ae510004 	sw	s1,4(s2)
80007db0:	8faf003c 	lw	t7,60(sp)
80007db4:	8fae0040 	lw	t6,64(sp)
80007db8:	ae550000 	sw	s5,0(s2)
80007dbc:	25e70001 	addiu	a3,t7,1
80007dc0:	25c30010 	addiu	v1,t6,16
80007dc4:	28e60008 	slti	a2,a3,8
80007dc8:	afa30040 	sw	v1,64(sp)
80007dcc:	afa7003c 	sw	a3,60(sp)
80007dd0:	14c00006 	bnez	a2,80007dec <_vfprintf_r+0x57c>
80007dd4:	26520008 	addiu	s2,s2,8
80007dd8:	146002d1 	bnez	v1,80008920 <_vfprintf_r+0x10b0>
80007ddc:	00001021 	move	v0,zero
80007de0:	14400073 	bnez	v0,80007fb0 <_vfprintf_r+0x740>
80007de4:	afa0003c 	sw	zero,60(sp)
80007de8:	27b20048 	addiu	s2,sp,72
80007dec:	2610fff0 	addiu	s0,s0,-16
80007df0:	2a0b0011 	slti	t3,s0,17
80007df4:	5160ffee 	beqzl	t3,80007db0 <_vfprintf_r+0x540>
80007df8:	ae510004 	sw	s1,4(s2)
80007dfc:	ae500004 	sw	s0,4(s2)
80007e00:	8fa9003c 	lw	t1,60(sp)
80007e04:	8fb10040 	lw	s1,64(sp)
80007e08:	3c198001 	lui	t9,0x8001
80007e0c:	25280001 	addiu	t0,t1,1
80007e10:	02302821 	addu	a1,s1,s0
80007e14:	2738f290 	addiu	t8,t9,-3440
80007e18:	29100008 	slti	s0,t0,8
80007e1c:	ae580000 	sw	t8,0(s2)
80007e20:	afa50040 	sw	a1,64(sp)
80007e24:	afa8003c 	sw	t0,60(sp)
80007e28:	16000006 	bnez	s0,80007e44 <_vfprintf_r+0x5d4>
80007e2c:	26520008 	addiu	s2,s2,8
80007e30:	14a002b6 	bnez	a1,8000890c <_vfprintf_r+0x109c>
80007e34:	00001021 	move	v0,zero
80007e38:	1440005d 	bnez	v0,80007fb0 <_vfprintf_r+0x740>
80007e3c:	afa0003c 	sw	zero,60(sp)
80007e40:	27b20048 	addiu	s2,sp,72
80007e44:	8fa40654 	lw	a0,1620(sp)
80007e48:	308a0100 	andi	t2,a0,0x100
80007e4c:	5540007e 	bnezl	t2,80008048 <_vfprintf_r+0x7d8>
80007e50:	2af60066 	slti	s6,s7,102
80007e54:	ae560004 	sw	s6,4(s2)
80007e58:	8fa3003c 	lw	v1,60(sp)
80007e5c:	8fb50040 	lw	s5,64(sp)
80007e60:	ae530000 	sw	s3,0(s2)
80007e64:	24730001 	addiu	s3,v1,1
80007e68:	2a770008 	slti	s7,s3,8
80007e6c:	02b61821 	addu	v1,s5,s6
80007e70:	afa30040 	sw	v1,64(sp)
80007e74:	afb3003c 	sw	s3,60(sp)
80007e78:	16e00007 	bnez	s7,80007e98 <_vfprintf_r+0x628>
80007e7c:	26520008 	addiu	s2,s2,8
80007e80:	1460006d 	bnez	v1,80008038 <_vfprintf_r+0x7c8>
80007e84:	8fa406b4 	lw	a0,1716(sp)
80007e88:	00001021 	move	v0,zero
80007e8c:	afa0003c 	sw	zero,60(sp)
80007e90:	14400047 	bnez	v0,80007fb0 <_vfprintf_r+0x740>
80007e94:	27b20048 	addiu	s2,sp,72
80007e98:	8fa60654 	lw	a2,1620(sp)
80007e9c:	30cd0004 	andi	t5,a2,0x4
80007ea0:	11a0002e 	beqz	t5,80007f5c <_vfprintf_r+0x6ec>
80007ea4:	8fb5065c 	lw	s5,1628(sp)
80007ea8:	8fa5065c 	lw	a1,1628(sp)
80007eac:	00be8023 	subu	s0,a1,s8
80007eb0:	1a00002a 	blez	s0,80007f5c <_vfprintf_r+0x6ec>
80007eb4:	2a070011 	slti	a3,s0,17
80007eb8:	14e00017 	bnez	a3,80007f18 <_vfprintf_r+0x6a8>
80007ebc:	3c0e8001 	lui	t6,0x8001
80007ec0:	25d3f280 	addiu	s3,t6,-3456
80007ec4:	24110010 	li	s1,16
80007ec8:	ae510004 	sw	s1,4(s2)
80007ecc:	8fb9003c 	lw	t9,60(sp)
80007ed0:	8fb80040 	lw	t8,64(sp)
80007ed4:	ae530000 	sw	s3,0(s2)
80007ed8:	272b0001 	addiu	t3,t9,1
80007edc:	27030010 	addiu	v1,t8,16
80007ee0:	296f0008 	slti	t7,t3,8
80007ee4:	afa30040 	sw	v1,64(sp)
80007ee8:	afab003c 	sw	t3,60(sp)
80007eec:	15e00006 	bnez	t7,80007f08 <_vfprintf_r+0x698>
80007ef0:	26520008 	addiu	s2,s2,8
80007ef4:	1460004b 	bnez	v1,80008024 <_vfprintf_r+0x7b4>
80007ef8:	00001021 	move	v0,zero
80007efc:	1440002c 	bnez	v0,80007fb0 <_vfprintf_r+0x740>
80007f00:	afa0003c 	sw	zero,60(sp)
80007f04:	27b20048 	addiu	s2,sp,72
80007f08:	2610fff0 	addiu	s0,s0,-16
80007f0c:	2a090011 	slti	t1,s0,17
80007f10:	5120ffee 	beqzl	t1,80007ecc <_vfprintf_r+0x65c>
80007f14:	ae510004 	sw	s1,4(s2)
80007f18:	ae500004 	sw	s0,4(s2)
80007f1c:	8fa2003c 	lw	v0,60(sp)
80007f20:	8fb70040 	lw	s7,64(sp)
80007f24:	3c0a8001 	lui	t2,0x8001
80007f28:	24510001 	addiu	s1,v0,1
80007f2c:	02f02821 	addu	a1,s7,s0
80007f30:	2548f280 	addiu	t0,t2,-3456
80007f34:	2a300008 	slti	s0,s1,8
80007f38:	ae480000 	sw	t0,0(s2)
80007f3c:	afa50040 	sw	a1,64(sp)
80007f40:	16000005 	bnez	s0,80007f58 <_vfprintf_r+0x6e8>
80007f44:	afb1003c 	sw	s1,60(sp)
80007f48:	14a00031 	bnez	a1,80008010 <_vfprintf_r+0x7a0>
80007f4c:	00001021 	move	v0,zero
80007f50:	14400017 	bnez	v0,80007fb0 <_vfprintf_r+0x740>
80007f54:	afa0003c 	sw	zero,60(sp)
80007f58:	8fb5065c 	lw	s5,1628(sp)
80007f5c:	8fb30658 	lw	s3,1624(sp)
80007f60:	8fb20040 	lw	s2,64(sp)
80007f64:	03d5182a 	slt	v1,s8,s5
80007f68:	03c3a80a 	movz	s5,s8,v1
80007f6c:	0275f021 	addu	s8,s3,s5
80007f70:	16400009 	bnez	s2,80007f98 <_vfprintf_r+0x728>
80007f74:	afbe0658 	sw	s8,1624(sp)
80007f78:	8fa5067c 	lw	a1,1660(sp)
80007f7c:	afa0003c 	sw	zero,60(sp)
80007f80:	10a0fe71 	beqz	a1,80007948 <_vfprintf_r+0xd8>
80007f84:	27b20048 	addiu	s2,sp,72
80007f88:	0c0003d4 	jal	80000f50 <_free_r>
80007f8c:	8fa406b0 	lw	a0,1712(sp)
80007f90:	08001e52 	j	80007948 <_vfprintf_r+0xd8>
80007f94:	afa0067c 	sw	zero,1660(sp)
80007f98:	8fa406b4 	lw	a0,1716(sp)
80007f9c:	0c002d3c 	jal	8000b4f0 <__sfvwrite>
80007fa0:	27a50038 	addiu	a1,sp,56
80007fa4:	afa00040 	sw	zero,64(sp)
80007fa8:	1040fff3 	beqz	v0,80007f78 <_vfprintf_r+0x708>
80007fac:	afa0003c 	sw	zero,60(sp)
80007fb0:	8fa2067c 	lw	v0,1660(sp)
80007fb4:	10400003 	beqz	v0,80007fc4 <_vfprintf_r+0x754>
80007fb8:	8fa406b0 	lw	a0,1712(sp)
80007fbc:	0c0003d4 	jal	80000f50 <_free_r>
80007fc0:	00402821 	move	a1,v0
80007fc4:	8fad06b4 	lw	t5,1716(sp)
80007fc8:	8fb60658 	lw	s6,1624(sp)
80007fcc:	2403ffff 	li	v1,-1
80007fd0:	95ac000c 	lhu	t4,12(t5)
80007fd4:	31840040 	andi	a0,t4,0x40
80007fd8:	02c4180a 	movz	v1,s6,a0
80007fdc:	8fbf06ac 	lw	ra,1708(sp)
80007fe0:	8fbe06a8 	lw	s8,1704(sp)
80007fe4:	8fb706a4 	lw	s7,1700(sp)
80007fe8:	8fb606a0 	lw	s6,1696(sp)
80007fec:	8fb5069c 	lw	s5,1692(sp)
80007ff0:	8fb40698 	lw	s4,1688(sp)
80007ff4:	8fb30694 	lw	s3,1684(sp)
80007ff8:	8fb20690 	lw	s2,1680(sp)
80007ffc:	8fb1068c 	lw	s1,1676(sp)
80008000:	8fb00688 	lw	s0,1672(sp)
80008004:	00601021 	move	v0,v1
80008008:	03e00008 	jr	ra
8000800c:	27bd06b0 	addiu	sp,sp,1712
80008010:	8fa406b4 	lw	a0,1716(sp)
80008014:	0c002d3c 	jal	8000b4f0 <__sfvwrite>
80008018:	27a50038 	addiu	a1,sp,56
8000801c:	08001fd4 	j	80007f50 <_vfprintf_r+0x6e0>
80008020:	afa00040 	sw	zero,64(sp)
80008024:	8fa406b4 	lw	a0,1716(sp)
80008028:	0c002d3c 	jal	8000b4f0 <__sfvwrite>
8000802c:	27a50038 	addiu	a1,sp,56
80008030:	08001fbf 	j	80007efc <_vfprintf_r+0x68c>
80008034:	afa00040 	sw	zero,64(sp)
80008038:	0c002d3c 	jal	8000b4f0 <__sfvwrite>
8000803c:	27a50038 	addiu	a1,sp,56
80008040:	08001fa3 	j	80007e8c <_vfprintf_r+0x61c>
80008044:	afa00040 	sw	zero,64(sp)
80008048:	16c0018f 	bnez	s6,80008688 <_vfprintf_r+0xe18>
8000804c:	8fac064c 	lw	t4,1612(sp)
80008050:	44803000 	mtc1	zero,$f6
80008054:	44803800 	mtc1	zero,$f7
80008058:	d7a80668 	ldc1	$f8,1640(sp)
8000805c:	46264232 	c.eq.d	$fcc2,$f8,$f6
80008060:	4508006b 	bc1f	$fcc2,80008210 <_vfprintf_r+0x9a0>
80008064:	8fa50648 	lw	a1,1608(sp)
80008068:	24050001 	li	a1,1
8000806c:	ae450004 	sw	a1,4(s2)
80008070:	8fa2003c 	lw	v0,60(sp)
80008074:	8fae0040 	lw	t6,64(sp)
80008078:	3c078001 	lui	a3,0x8001
8000807c:	244d0001 	addiu	t5,v0,1
80008080:	25c50001 	addiu	a1,t6,1
80008084:	24e6f2bc 	addiu	a2,a3,-3396
80008088:	29ac0008 	slti	t4,t5,8
8000808c:	ae460000 	sw	a2,0(s2)
80008090:	afa50040 	sw	a1,64(sp)
80008094:	afad003c 	sw	t5,60(sp)
80008098:	15800006 	bnez	t4,800080b4 <_vfprintf_r+0x844>
8000809c:	26520008 	addiu	s2,s2,8
800080a0:	14a00056 	bnez	a1,800081fc <_vfprintf_r+0x98c>
800080a4:	00001021 	move	v0,zero
800080a8:	1440ffc1 	bnez	v0,80007fb0 <_vfprintf_r+0x740>
800080ac:	afa0003c 	sw	zero,60(sp)
800080b0:	27b20048 	addiu	s2,sp,72
800080b4:	8fab0648 	lw	t3,1608(sp)
800080b8:	8fb0064c 	lw	s0,1612(sp)
800080bc:	0170782a 	slt	t7,t3,s0
800080c0:	15e00006 	bnez	t7,800080dc <_vfprintf_r+0x86c>
800080c4:	24040001 	li	a0,1
800080c8:	8fb80654 	lw	t8,1620(sp)
800080cc:	33080001 	andi	t0,t8,0x1
800080d0:	1100ff72 	beqz	t0,80007e9c <_vfprintf_r+0x62c>
800080d4:	8fa60654 	lw	a2,1620(sp)
800080d8:	24040001 	li	a0,1
800080dc:	ae440004 	sw	a0,4(s2)
800080e0:	8faa003c 	lw	t2,60(sp)
800080e4:	8fa90040 	lw	t1,64(sp)
800080e8:	8fb70660 	lw	s7,1632(sp)
800080ec:	25510001 	addiu	s1,t2,1
800080f0:	25220001 	addiu	v0,t1,1
800080f4:	2a390008 	slti	t9,s1,8
800080f8:	ae570000 	sw	s7,0(s2)
800080fc:	afa20040 	sw	v0,64(sp)
80008100:	afb1003c 	sw	s1,60(sp)
80008104:	17200007 	bnez	t9,80008124 <_vfprintf_r+0x8b4>
80008108:	26520008 	addiu	s2,s2,8
8000810c:	14400037 	bnez	v0,800081ec <_vfprintf_r+0x97c>
80008110:	8fa406b4 	lw	a0,1716(sp)
80008114:	00001021 	move	v0,zero
80008118:	1440ffa5 	bnez	v0,80007fb0 <_vfprintf_r+0x740>
8000811c:	afa0003c 	sw	zero,60(sp)
80008120:	27b20048 	addiu	s2,sp,72
80008124:	8fb3064c 	lw	s3,1612(sp)
80008128:	2670ffff 	addiu	s0,s3,-1
8000812c:	1a00ff5a 	blez	s0,80007e98 <_vfprintf_r+0x628>
80008130:	2a150011 	slti	s5,s0,17
80008134:	16a00017 	bnez	s5,80008194 <_vfprintf_r+0x924>
80008138:	3c038001 	lui	v1,0x8001
8000813c:	2473f290 	addiu	s3,v1,-3440
80008140:	24110010 	li	s1,16
80008144:	ae510004 	sw	s1,4(s2)
80008148:	8fa6003c 	lw	a2,60(sp)
8000814c:	8fad0040 	lw	t5,64(sp)
80008150:	ae530000 	sw	s3,0(s2)
80008154:	24cc0001 	addiu	t4,a2,1
80008158:	25a30010 	addiu	v1,t5,16
8000815c:	29960008 	slti	s6,t4,8
80008160:	afa30040 	sw	v1,64(sp)
80008164:	afac003c 	sw	t4,60(sp)
80008168:	16c00006 	bnez	s6,80008184 <_vfprintf_r+0x914>
8000816c:	26520008 	addiu	s2,s2,8
80008170:	14600019 	bnez	v1,800081d8 <_vfprintf_r+0x968>
80008174:	00001021 	move	v0,zero
80008178:	1440ff8d 	bnez	v0,80007fb0 <_vfprintf_r+0x740>
8000817c:	afa0003c 	sw	zero,60(sp)
80008180:	27b20048 	addiu	s2,sp,72
80008184:	2610fff0 	addiu	s0,s0,-16
80008188:	2a070011 	slti	a3,s0,17
8000818c:	50e0ffee 	beqzl	a3,80008148 <_vfprintf_r+0x8d8>
80008190:	ae510004 	sw	s1,4(s2)
80008194:	ae500004 	sw	s0,4(s2)
80008198:	8fa2003c 	lw	v0,60(sp)
8000819c:	8faf0040 	lw	t7,64(sp)
800081a0:	3c0e8001 	lui	t6,0x8001
800081a4:	24430001 	addiu	v1,v0,1
800081a8:	01f02821 	addu	a1,t7,s0
800081ac:	28640008 	slti	a0,v1,8
800081b0:	25c2f290 	addiu	v0,t6,-3440
800081b4:	ae420000 	sw	v0,0(s2)
800081b8:	afa50040 	sw	a1,64(sp)
800081bc:	afa3003c 	sw	v1,60(sp)
800081c0:	1480ff35 	bnez	a0,80007e98 <_vfprintf_r+0x628>
800081c4:	26520008 	addiu	s2,s2,8
800081c8:	50a0ff30 	beqzl	a1,80007e8c <_vfprintf_r+0x61c>
800081cc:	00001021 	move	v0,zero
800081d0:	0800200e 	j	80008038 <_vfprintf_r+0x7c8>
800081d4:	8fa406b4 	lw	a0,1716(sp)
800081d8:	8fa406b4 	lw	a0,1716(sp)
800081dc:	0c002d3c 	jal	8000b4f0 <__sfvwrite>
800081e0:	27a50038 	addiu	a1,sp,56
800081e4:	0800205e 	j	80008178 <_vfprintf_r+0x908>
800081e8:	afa00040 	sw	zero,64(sp)
800081ec:	0c002d3c 	jal	8000b4f0 <__sfvwrite>
800081f0:	27a50038 	addiu	a1,sp,56
800081f4:	08002046 	j	80008118 <_vfprintf_r+0x8a8>
800081f8:	afa00040 	sw	zero,64(sp)
800081fc:	8fa406b4 	lw	a0,1716(sp)
80008200:	0c002d3c 	jal	8000b4f0 <__sfvwrite>
80008204:	27a50038 	addiu	a1,sp,56
80008208:	0800202a 	j	800080a8 <_vfprintf_r+0x838>
8000820c:	afa00040 	sw	zero,64(sp)
80008210:	18a000a2 	blez	a1,8000849c <_vfprintf_r+0xc2c>
80008214:	8fa3064c 	lw	v1,1612(sp)
80008218:	00a3b02a 	slt	s6,a1,v1
8000821c:	56c0005e 	bnezl	s6,80008398 <_vfprintf_r+0xb28>
80008220:	ae450004 	sw	a1,4(s2)
80008224:	ae430004 	sw	v1,4(s2)
80008228:	00602821 	move	a1,v1
8000822c:	8fa3003c 	lw	v1,60(sp)
80008230:	8fa60040 	lw	a2,64(sp)
80008234:	ae530000 	sw	s3,0(s2)
80008238:	246d0001 	addiu	t5,v1,1
8000823c:	29ac0008 	slti	t4,t5,8
80008240:	00c51821 	addu	v1,a2,a1
80008244:	afa30040 	sw	v1,64(sp)
80008248:	afad003c 	sw	t5,60(sp)
8000824c:	15800007 	bnez	t4,8000826c <_vfprintf_r+0x9fc>
80008250:	26520008 	addiu	s2,s2,8
80008254:	1460004b 	bnez	v1,80008384 <_vfprintf_r+0xb14>
80008258:	00001021 	move	v0,zero
8000825c:	1440ff54 	bnez	v0,80007fb0 <_vfprintf_r+0x740>
80008260:	afa0003c 	sw	zero,60(sp)
80008264:	8fa5064c 	lw	a1,1612(sp)
80008268:	27b20048 	addiu	s2,sp,72
8000826c:	8fa70648 	lw	a3,1608(sp)
80008270:	00e58023 	subu	s0,a3,a1
80008274:	1a00002b 	blez	s0,80008324 <_vfprintf_r+0xab4>
80008278:	2a0e0011 	slti	t6,s0,17
8000827c:	15c00017 	bnez	t6,800082dc <_vfprintf_r+0xa6c>
80008280:	3c0f8001 	lui	t7,0x8001
80008284:	25f1f290 	addiu	s1,t7,-3440
80008288:	24130010 	li	s3,16
8000828c:	ae530004 	sw	s3,4(s2)
80008290:	8fb9003c 	lw	t9,60(sp)
80008294:	8fb80040 	lw	t8,64(sp)
80008298:	ae510000 	sw	s1,0(s2)
8000829c:	27280001 	addiu	t0,t9,1
800082a0:	27030010 	addiu	v1,t8,16
800082a4:	290b0008 	slti	t3,t0,8
800082a8:	afa30040 	sw	v1,64(sp)
800082ac:	afa8003c 	sw	t0,60(sp)
800082b0:	15600006 	bnez	t3,800082cc <_vfprintf_r+0xa5c>
800082b4:	26520008 	addiu	s2,s2,8
800082b8:	1460002d 	bnez	v1,80008370 <_vfprintf_r+0xb00>
800082bc:	00001021 	move	v0,zero
800082c0:	1440ff3b 	bnez	v0,80007fb0 <_vfprintf_r+0x740>
800082c4:	afa0003c 	sw	zero,60(sp)
800082c8:	27b20048 	addiu	s2,sp,72
800082cc:	2610fff0 	addiu	s0,s0,-16
800082d0:	2a090011 	slti	t1,s0,17
800082d4:	5120ffee 	beqzl	t1,80008290 <_vfprintf_r+0xa20>
800082d8:	ae530004 	sw	s3,4(s2)
800082dc:	ae500004 	sw	s0,4(s2)
800082e0:	8fa2003c 	lw	v0,60(sp)
800082e4:	8fb70040 	lw	s7,64(sp)
800082e8:	3c138001 	lui	s3,0x8001
800082ec:	24510001 	addiu	s1,v0,1
800082f0:	02f02821 	addu	a1,s7,s0
800082f4:	266af290 	addiu	t2,s3,-3440
800082f8:	2a300008 	slti	s0,s1,8
800082fc:	ae4a0000 	sw	t2,0(s2)
80008300:	afa50040 	sw	a1,64(sp)
80008304:	afb1003c 	sw	s1,60(sp)
80008308:	16000006 	bnez	s0,80008324 <_vfprintf_r+0xab4>
8000830c:	26520008 	addiu	s2,s2,8
80008310:	14a00012 	bnez	a1,8000835c <_vfprintf_r+0xaec>
80008314:	00001021 	move	v0,zero
80008318:	1440ff25 	bnez	v0,80007fb0 <_vfprintf_r+0x740>
8000831c:	afa0003c 	sw	zero,60(sp)
80008320:	27b20048 	addiu	s2,sp,72
80008324:	8fb50654 	lw	s5,1620(sp)
80008328:	32a40001 	andi	a0,s5,0x1
8000832c:	1080fedb 	beqz	a0,80007e9c <_vfprintf_r+0x62c>
80008330:	8fa60654 	lw	a2,1620(sp)
80008334:	240d0001 	li	t5,1
80008338:	ae4d0004 	sw	t5,4(s2)
8000833c:	8fa5003c 	lw	a1,60(sp)
80008340:	8fac0040 	lw	t4,64(sp)
80008344:	3c168001 	lui	s6,0x8001
80008348:	24a30001 	addiu	v1,a1,1
8000834c:	28640008 	slti	a0,v1,8
80008350:	25850001 	addiu	a1,t4,1
80008354:	0800206d 	j	800081b4 <_vfprintf_r+0x944>
80008358:	26c2f2c0 	addiu	v0,s6,-3392
8000835c:	8fa406b4 	lw	a0,1716(sp)
80008360:	0c002d3c 	jal	8000b4f0 <__sfvwrite>
80008364:	27a50038 	addiu	a1,sp,56
80008368:	080020c6 	j	80008318 <_vfprintf_r+0xaa8>
8000836c:	afa00040 	sw	zero,64(sp)
80008370:	8fa406b4 	lw	a0,1716(sp)
80008374:	0c002d3c 	jal	8000b4f0 <__sfvwrite>
80008378:	27a50038 	addiu	a1,sp,56
8000837c:	080020b0 	j	800082c0 <_vfprintf_r+0xa50>
80008380:	afa00040 	sw	zero,64(sp)
80008384:	8fa406b4 	lw	a0,1716(sp)
80008388:	0c002d3c 	jal	8000b4f0 <__sfvwrite>
8000838c:	27a50038 	addiu	a1,sp,56
80008390:	08002097 	j	8000825c <_vfprintf_r+0x9ec>
80008394:	afa00040 	sw	zero,64(sp)
80008398:	8fa3003c 	lw	v1,60(sp)
8000839c:	8fae0040 	lw	t6,64(sp)
800083a0:	ae530000 	sw	s3,0(s2)
800083a4:	24670001 	addiu	a3,v1,1
800083a8:	28e60008 	slti	a2,a3,8
800083ac:	01c51821 	addu	v1,t6,a1
800083b0:	00a04021 	move	t0,a1
800083b4:	afa30040 	sw	v1,64(sp)
800083b8:	afa7003c 	sw	a3,60(sp)
800083bc:	14c00007 	bnez	a2,800083dc <_vfprintf_r+0xb6c>
800083c0:	26520008 	addiu	s2,s2,8
800083c4:	14600030 	bnez	v1,80008488 <_vfprintf_r+0xc18>
800083c8:	00001021 	move	v0,zero
800083cc:	1440fef8 	bnez	v0,80007fb0 <_vfprintf_r+0x740>
800083d0:	afa0003c 	sw	zero,60(sp)
800083d4:	8fa80648 	lw	t0,1608(sp)
800083d8:	27b20048 	addiu	s2,sp,72
800083dc:	24110001 	li	s1,1
800083e0:	ae510004 	sw	s1,4(s2)
800083e4:	8fb0003c 	lw	s0,60(sp)
800083e8:	8fa90040 	lw	t1,64(sp)
800083ec:	3c198001 	lui	t9,0x8001
800083f0:	260b0001 	addiu	t3,s0,1
800083f4:	25250001 	addiu	a1,t1,1
800083f8:	2738f2c0 	addiu	t8,t9,-3392
800083fc:	296f0008 	slti	t7,t3,8
80008400:	ae580000 	sw	t8,0(s2)
80008404:	02689821 	addu	s3,s3,t0
80008408:	afa50040 	sw	a1,64(sp)
8000840c:	afab003c 	sw	t3,60(sp)
80008410:	15e00006 	bnez	t7,8000842c <_vfprintf_r+0xbbc>
80008414:	26520008 	addiu	s2,s2,8
80008418:	14a00016 	bnez	a1,80008474 <_vfprintf_r+0xc04>
8000841c:	00001021 	move	v0,zero
80008420:	1440fee3 	bnez	v0,80007fb0 <_vfprintf_r+0x740>
80008424:	afa0003c 	sw	zero,60(sp)
80008428:	27b20048 	addiu	s2,sp,72
8000842c:	8fb5064c 	lw	s5,1612(sp)
80008430:	8fa40648 	lw	a0,1608(sp)
80008434:	ae530000 	sw	s3,0(s2)
80008438:	02a4b823 	subu	s7,s5,a0
8000843c:	ae570004 	sw	s7,4(s2)
80008440:	8fa2003c 	lw	v0,60(sp)
80008444:	8fb30040 	lw	s3,64(sp)
80008448:	26520008 	addiu	s2,s2,8
8000844c:	244a0001 	addiu	t2,v0,1
80008450:	29480008 	slti	t0,t2,8
80008454:	02771021 	addu	v0,s3,s7
80008458:	afa20040 	sw	v0,64(sp)
8000845c:	1500fe8e 	bnez	t0,80007e98 <_vfprintf_r+0x628>
80008460:	afaa003c 	sw	t2,60(sp)
80008464:	5040fe89 	beqzl	v0,80007e8c <_vfprintf_r+0x61c>
80008468:	00001021 	move	v0,zero
8000846c:	0800200e 	j	80008038 <_vfprintf_r+0x7c8>
80008470:	8fa406b4 	lw	a0,1716(sp)
80008474:	8fa406b4 	lw	a0,1716(sp)
80008478:	0c002d3c 	jal	8000b4f0 <__sfvwrite>
8000847c:	27a50038 	addiu	a1,sp,56
80008480:	08002108 	j	80008420 <_vfprintf_r+0xbb0>
80008484:	afa00040 	sw	zero,64(sp)
80008488:	8fa406b4 	lw	a0,1716(sp)
8000848c:	0c002d3c 	jal	8000b4f0 <__sfvwrite>
80008490:	27a50038 	addiu	a1,sp,56
80008494:	080020f3 	j	800083cc <_vfprintf_r+0xb5c>
80008498:	afa00040 	sw	zero,64(sp)
8000849c:	24110001 	li	s1,1
800084a0:	ae510004 	sw	s1,4(s2)
800084a4:	8fa5003c 	lw	a1,60(sp)
800084a8:	8fb90040 	lw	t9,64(sp)
800084ac:	3c188001 	lui	t8,0x8001
800084b0:	24b00001 	addiu	s0,a1,1
800084b4:	2708f2bc 	addiu	t0,t8,-3396
800084b8:	27250001 	addiu	a1,t9,1
800084bc:	2a0b0008 	slti	t3,s0,8
800084c0:	ae480000 	sw	t0,0(s2)
800084c4:	afa50040 	sw	a1,64(sp)
800084c8:	afb0003c 	sw	s0,60(sp)
800084cc:	15600006 	bnez	t3,800084e8 <_vfprintf_r+0xc78>
800084d0:	26520008 	addiu	s2,s2,8
800084d4:	14a00067 	bnez	a1,80008674 <_vfprintf_r+0xe04>
800084d8:	00001021 	move	v0,zero
800084dc:	1440feb4 	bnez	v0,80007fb0 <_vfprintf_r+0x740>
800084e0:	afa0003c 	sw	zero,60(sp)
800084e4:	27b20048 	addiu	s2,sp,72
800084e8:	8fa90648 	lw	t1,1608(sp)
800084ec:	15200005 	bnez	t1,80008504 <_vfprintf_r+0xc94>
800084f0:	240c0001 	li	t4,1
800084f4:	8faa064c 	lw	t2,1612(sp)
800084f8:	1140fe68 	beqz	t2,80007e9c <_vfprintf_r+0x62c>
800084fc:	8fa60654 	lw	a2,1620(sp)
80008500:	240c0001 	li	t4,1
80008504:	ae4c0004 	sw	t4,4(s2)
80008508:	8fb6003c 	lw	s6,60(sp)
8000850c:	8fb50040 	lw	s5,64(sp)
80008510:	8fa30660 	lw	v1,1632(sp)
80008514:	26c40001 	addiu	a0,s6,1
80008518:	26a20001 	addiu	v0,s5,1
8000851c:	28970008 	slti	s7,a0,8
80008520:	ae430000 	sw	v1,0(s2)
80008524:	afa20040 	sw	v0,64(sp)
80008528:	afa4003c 	sw	a0,60(sp)
8000852c:	16e00007 	bnez	s7,8000854c <_vfprintf_r+0xcdc>
80008530:	26520008 	addiu	s2,s2,8
80008534:	1440004b 	bnez	v0,80008664 <_vfprintf_r+0xdf4>
80008538:	8fa406b4 	lw	a0,1716(sp)
8000853c:	00001021 	move	v0,zero
80008540:	1440fe9b 	bnez	v0,80007fb0 <_vfprintf_r+0x740>
80008544:	afa0003c 	sw	zero,60(sp)
80008548:	27b20048 	addiu	s2,sp,72
8000854c:	8fad0648 	lw	t5,1608(sp)
80008550:	000d8023 	negu	s0,t5
80008554:	1a00002b 	blez	s0,80008604 <_vfprintf_r+0xd94>
80008558:	2a060011 	slti	a2,s0,17
8000855c:	14c00017 	bnez	a2,800085bc <_vfprintf_r+0xd4c>
80008560:	3c078001 	lui	a3,0x8001
80008564:	24f1f290 	addiu	s1,a3,-3440
80008568:	24150010 	li	s5,16
8000856c:	ae550004 	sw	s5,4(s2)
80008570:	8fa8003c 	lw	t0,60(sp)
80008574:	8fab0040 	lw	t3,64(sp)
80008578:	ae510000 	sw	s1,0(s2)
8000857c:	250f0001 	addiu	t7,t0,1
80008580:	25630010 	addiu	v1,t3,16
80008584:	29ee0008 	slti	t6,t7,8
80008588:	afa30040 	sw	v1,64(sp)
8000858c:	afaf003c 	sw	t7,60(sp)
80008590:	15c00006 	bnez	t6,800085ac <_vfprintf_r+0xd3c>
80008594:	26520008 	addiu	s2,s2,8
80008598:	1460002d 	bnez	v1,80008650 <_vfprintf_r+0xde0>
8000859c:	00001021 	move	v0,zero
800085a0:	1440fe83 	bnez	v0,80007fb0 <_vfprintf_r+0x740>
800085a4:	afa0003c 	sw	zero,60(sp)
800085a8:	27b20048 	addiu	s2,sp,72
800085ac:	2610fff0 	addiu	s0,s0,-16
800085b0:	2a180011 	slti	t8,s0,17
800085b4:	5300ffee 	beqzl	t8,80008570 <_vfprintf_r+0xd00>
800085b8:	ae550004 	sw	s5,4(s2)
800085bc:	ae500004 	sw	s0,4(s2)
800085c0:	8fa2003c 	lw	v0,60(sp)
800085c4:	8faa0040 	lw	t2,64(sp)
800085c8:	3c098001 	lui	t1,0x8001
800085cc:	24590001 	addiu	t9,v0,1
800085d0:	01502821 	addu	a1,t2,s0
800085d4:	2531f290 	addiu	s1,t1,-3440
800085d8:	2b300008 	slti	s0,t9,8
800085dc:	ae510000 	sw	s1,0(s2)
800085e0:	afa50040 	sw	a1,64(sp)
800085e4:	afb9003c 	sw	t9,60(sp)
800085e8:	16000006 	bnez	s0,80008604 <_vfprintf_r+0xd94>
800085ec:	26520008 	addiu	s2,s2,8
800085f0:	14a00012 	bnez	a1,8000863c <_vfprintf_r+0xdcc>
800085f4:	00001021 	move	v0,zero
800085f8:	1440fe6d 	bnez	v0,80007fb0 <_vfprintf_r+0x740>
800085fc:	afa0003c 	sw	zero,60(sp)
80008600:	27b20048 	addiu	s2,sp,72
80008604:	8fb5064c 	lw	s5,1612(sp)
80008608:	ae530000 	sw	s3,0(s2)
8000860c:	ae550004 	sw	s5,4(s2)
80008610:	8fa5003c 	lw	a1,60(sp)
80008614:	8fa40040 	lw	a0,64(sp)
80008618:	26520008 	addiu	s2,s2,8
8000861c:	24b70001 	addiu	s7,a1,1
80008620:	00951021 	addu	v0,a0,s5
80008624:	2af30008 	slti	s3,s7,8
80008628:	afa20040 	sw	v0,64(sp)
8000862c:	1660fe1a 	bnez	s3,80007e98 <_vfprintf_r+0x628>
80008630:	afb7003c 	sw	s7,60(sp)
80008634:	08002119 	j	80008464 <_vfprintf_r+0xbf4>
80008638:	00000000 	nop
8000863c:	8fa406b4 	lw	a0,1716(sp)
80008640:	0c002d3c 	jal	8000b4f0 <__sfvwrite>
80008644:	27a50038 	addiu	a1,sp,56
80008648:	0800217e 	j	800085f8 <_vfprintf_r+0xd88>
8000864c:	afa00040 	sw	zero,64(sp)
80008650:	8fa406b4 	lw	a0,1716(sp)
80008654:	0c002d3c 	jal	8000b4f0 <__sfvwrite>
80008658:	27a50038 	addiu	a1,sp,56
8000865c:	08002168 	j	800085a0 <_vfprintf_r+0xd30>
80008660:	afa00040 	sw	zero,64(sp)
80008664:	0c002d3c 	jal	8000b4f0 <__sfvwrite>
80008668:	27a50038 	addiu	a1,sp,56
8000866c:	08002150 	j	80008540 <_vfprintf_r+0xcd0>
80008670:	afa00040 	sw	zero,64(sp)
80008674:	8fa406b4 	lw	a0,1716(sp)
80008678:	0c002d3c 	jal	8000b4f0 <__sfvwrite>
8000867c:	27a50038 	addiu	a1,sp,56
80008680:	08002137 	j	800084dc <_vfprintf_r+0xc6c>
80008684:	afa00040 	sw	zero,64(sp)
80008688:	29960002 	slti	s6,t4,2
8000868c:	16c00085 	bnez	s6,800088a4 <_vfprintf_r+0x1034>
80008690:	8fad0654 	lw	t5,1620(sp)
80008694:	92790000 	lbu	t9,0(s3)
80008698:	2418002e 	li	t8,46
8000869c:	24030002 	li	v1,2
800086a0:	a3b901e8 	sb	t9,488(sp)
800086a4:	a3b801e9 	sb	t8,489(sp)
800086a8:	ae430004 	sw	v1,4(s2)
800086ac:	8fab003c 	lw	t3,60(sp)
800086b0:	8faf0040 	lw	t7,64(sp)
800086b4:	27ae01e8 	addiu	t6,sp,488
800086b8:	25670001 	addiu	a3,t3,1
800086bc:	25e50002 	addiu	a1,t7,2
800086c0:	28e60008 	slti	a2,a3,8
800086c4:	ae4e0000 	sw	t6,0(s2)
800086c8:	afa50040 	sw	a1,64(sp)
800086cc:	afa7003c 	sw	a3,60(sp)
800086d0:	26730001 	addiu	s3,s3,1
800086d4:	14c00006 	bnez	a2,800086f0 <_vfprintf_r+0xe80>
800086d8:	26520008 	addiu	s2,s2,8
800086dc:	14a0006c 	bnez	a1,80008890 <_vfprintf_r+0x1020>
800086e0:	00001021 	move	v0,zero
800086e4:	1440fe32 	bnez	v0,80007fb0 <_vfprintf_r+0x740>
800086e8:	afa0003c 	sw	zero,60(sp)
800086ec:	27b20048 	addiu	s2,sp,72
800086f0:	44805000 	mtc1	zero,$f10
800086f4:	44805800 	mtc1	zero,$f11
800086f8:	d7ac0668 	ldc1	$f12,1640(sp)
800086fc:	462a6332 	c.eq.d	$fcc3,$f12,$f10
80008700:	450d0032 	bc1t	$fcc3,800087cc <_vfprintf_r+0xf5c>
80008704:	8fb5064c 	lw	s5,1612(sp)
80008708:	8fb7064c 	lw	s7,1612(sp)
8000870c:	ae530000 	sw	s3,0(s2)
80008710:	26f3ffff 	addiu	s3,s7,-1
80008714:	ae530004 	sw	s3,4(s2)
80008718:	8faa0040 	lw	t2,64(sp)
8000871c:	8fa8003c 	lw	t0,60(sp)
80008720:	26520008 	addiu	s2,s2,8
80008724:	01578821 	addu	s1,t2,s7
80008728:	25100001 	addiu	s0,t0,1
8000872c:	2622ffff 	addiu	v0,s1,-1
80008730:	2a090008 	slti	t1,s0,8
80008734:	afa20040 	sw	v0,64(sp)
80008738:	15200007 	bnez	t1,80008758 <_vfprintf_r+0xee8>
8000873c:	afb0003c 	sw	s0,60(sp)
80008740:	1440001e 	bnez	v0,800087bc <_vfprintf_r+0xf4c>
80008744:	8fa406b4 	lw	a0,1716(sp)
80008748:	00001021 	move	v0,zero
8000874c:	afa0003c 	sw	zero,60(sp)
80008750:	1440fe17 	bnez	v0,80007fb0 <_vfprintf_r+0x740>
80008754:	27b20048 	addiu	s2,sp,72
80008758:	8fac0670 	lw	t4,1648(sp)
8000875c:	8fb50670 	lw	s5,1648(sp)
80008760:	27b30030 	addiu	s3,sp,48
80008764:	ae4c0004 	sw	t4,4(s2)
80008768:	8fb6003c 	lw	s6,60(sp)
8000876c:	8fa40040 	lw	a0,64(sp)
80008770:	ae530000 	sw	s3,0(s2)
80008774:	26d70001 	addiu	s7,s6,1
80008778:	00952821 	addu	a1,a0,s5
8000877c:	2aea0008 	slti	t2,s7,8
80008780:	afa50040 	sw	a1,64(sp)
80008784:	afb7003c 	sw	s7,60(sp)
80008788:	1540fdc3 	bnez	t2,80007e98 <_vfprintf_r+0x628>
8000878c:	26520008 	addiu	s2,s2,8
80008790:	14a00005 	bnez	a1,800087a8 <_vfprintf_r+0xf38>
80008794:	00001021 	move	v0,zero
80008798:	1440fe05 	bnez	v0,80007fb0 <_vfprintf_r+0x740>
8000879c:	afa0003c 	sw	zero,60(sp)
800087a0:	08001fa6 	j	80007e98 <_vfprintf_r+0x628>
800087a4:	27b20048 	addiu	s2,sp,72
800087a8:	8fa406b4 	lw	a0,1716(sp)
800087ac:	0c002d3c 	jal	8000b4f0 <__sfvwrite>
800087b0:	27a50038 	addiu	a1,sp,56
800087b4:	080021e6 	j	80008798 <_vfprintf_r+0xf28>
800087b8:	afa00040 	sw	zero,64(sp)
800087bc:	0c002d3c 	jal	8000b4f0 <__sfvwrite>
800087c0:	27a50038 	addiu	a1,sp,56
800087c4:	080021d3 	j	8000874c <_vfprintf_r+0xedc>
800087c8:	afa00040 	sw	zero,64(sp)
800087cc:	26b0ffff 	addiu	s0,s5,-1
800087d0:	1a00ffe1 	blez	s0,80008758 <_vfprintf_r+0xee8>
800087d4:	2a040011 	slti	a0,s0,17
800087d8:	14800017 	bnez	a0,80008838 <_vfprintf_r+0xfc8>
800087dc:	3c168001 	lui	s6,0x8001
800087e0:	26d3f290 	addiu	s3,s6,-3440
800087e4:	24110010 	li	s1,16
800087e8:	ae510004 	sw	s1,4(s2)
800087ec:	8fa6003c 	lw	a2,60(sp)
800087f0:	8fad0040 	lw	t5,64(sp)
800087f4:	ae530000 	sw	s3,0(s2)
800087f8:	24c50001 	addiu	a1,a2,1
800087fc:	25a30010 	addiu	v1,t5,16
80008800:	28ac0008 	slti	t4,a1,8
80008804:	afa30040 	sw	v1,64(sp)
80008808:	afa5003c 	sw	a1,60(sp)
8000880c:	15800006 	bnez	t4,80008828 <_vfprintf_r+0xfb8>
80008810:	26520008 	addiu	s2,s2,8
80008814:	14600019 	bnez	v1,8000887c <_vfprintf_r+0x100c>
80008818:	00001021 	move	v0,zero
8000881c:	1440fde4 	bnez	v0,80007fb0 <_vfprintf_r+0x740>
80008820:	afa0003c 	sw	zero,60(sp)
80008824:	27b20048 	addiu	s2,sp,72
80008828:	2610fff0 	addiu	s0,s0,-16
8000882c:	2a070011 	slti	a3,s0,17
80008830:	50e0ffee 	beqzl	a3,800087ec <_vfprintf_r+0xf7c>
80008834:	ae510004 	sw	s1,4(s2)
80008838:	ae500004 	sw	s0,4(s2)
8000883c:	8fa2003c 	lw	v0,60(sp)
80008840:	8fb90040 	lw	t9,64(sp)
80008844:	3c188001 	lui	t8,0x8001
80008848:	244f0001 	addiu	t7,v0,1
8000884c:	03302821 	addu	a1,t9,s0
80008850:	270bf290 	addiu	t3,t8,-3440
80008854:	29ee0008 	slti	t6,t7,8
80008858:	ae4b0000 	sw	t3,0(s2)
8000885c:	afa50040 	sw	a1,64(sp)
80008860:	afaf003c 	sw	t7,60(sp)
80008864:	15c0ffbc 	bnez	t6,80008758 <_vfprintf_r+0xee8>
80008868:	26520008 	addiu	s2,s2,8
8000886c:	50a0ffb7 	beqzl	a1,8000874c <_vfprintf_r+0xedc>
80008870:	00001021 	move	v0,zero
80008874:	080021ef 	j	800087bc <_vfprintf_r+0xf4c>
80008878:	8fa406b4 	lw	a0,1716(sp)
8000887c:	8fa406b4 	lw	a0,1716(sp)
80008880:	0c002d3c 	jal	8000b4f0 <__sfvwrite>
80008884:	27a50038 	addiu	a1,sp,56
80008888:	08002207 	j	8000881c <_vfprintf_r+0xfac>
8000888c:	afa00040 	sw	zero,64(sp)
80008890:	8fa406b4 	lw	a0,1716(sp)
80008894:	0c002d3c 	jal	8000b4f0 <__sfvwrite>
80008898:	27a50038 	addiu	a1,sp,56
8000889c:	080021b9 	j	800086e4 <_vfprintf_r+0xe74>
800088a0:	afa00040 	sw	zero,64(sp)
800088a4:	31a50001 	andi	a1,t5,0x1
800088a8:	54a0ff7b 	bnezl	a1,80008698 <_vfprintf_r+0xe28>
800088ac:	92790000 	lbu	t9,0(s3)
800088b0:	24030001 	li	v1,1
800088b4:	ae430004 	sw	v1,4(s2)
800088b8:	8fa8003c 	lw	t0,60(sp)
800088bc:	8fb10040 	lw	s1,64(sp)
800088c0:	ae530000 	sw	s3,0(s2)
800088c4:	25100001 	addiu	s0,t0,1
800088c8:	26220001 	addiu	v0,s1,1
800088cc:	2a090008 	slti	t1,s0,8
800088d0:	afa20040 	sw	v0,64(sp)
800088d4:	afb0003c 	sw	s0,60(sp)
800088d8:	1520ff9f 	bnez	t1,80008758 <_vfprintf_r+0xee8>
800088dc:	26520008 	addiu	s2,s2,8
800088e0:	14400006 	bnez	v0,800088fc <_vfprintf_r+0x108c>
800088e4:	8fa406b4 	lw	a0,1716(sp)
800088e8:	00001021 	move	v0,zero
800088ec:	1440fdb0 	bnez	v0,80007fb0 <_vfprintf_r+0x740>
800088f0:	afa0003c 	sw	zero,60(sp)
800088f4:	080021d6 	j	80008758 <_vfprintf_r+0xee8>
800088f8:	27b20048 	addiu	s2,sp,72
800088fc:	0c002d3c 	jal	8000b4f0 <__sfvwrite>
80008900:	27a50038 	addiu	a1,sp,56
80008904:	0800223b 	j	800088ec <_vfprintf_r+0x107c>
80008908:	afa00040 	sw	zero,64(sp)
8000890c:	8fa406b4 	lw	a0,1716(sp)
80008910:	0c002d3c 	jal	8000b4f0 <__sfvwrite>
80008914:	27a50038 	addiu	a1,sp,56
80008918:	08001f8e 	j	80007e38 <_vfprintf_r+0x5c8>
8000891c:	afa00040 	sw	zero,64(sp)
80008920:	8fa406b4 	lw	a0,1716(sp)
80008924:	0c002d3c 	jal	8000b4f0 <__sfvwrite>
80008928:	27a50038 	addiu	a1,sp,56
8000892c:	08001f78 	j	80007de0 <_vfprintf_r+0x570>
80008930:	afa00040 	sw	zero,64(sp)
80008934:	00fe8023 	subu	s0,a3,s8
80008938:	1a00fd14 	blez	s0,80007d8c <_vfprintf_r+0x51c>
8000893c:	2a0e0011 	slti	t6,s0,17
80008940:	15c00017 	bnez	t6,800089a0 <_vfprintf_r+0x1130>
80008944:	3c0f8001 	lui	t7,0x8001
80008948:	25f5f290 	addiu	s5,t7,-3440
8000894c:	24110010 	li	s1,16
80008950:	ae510004 	sw	s1,4(s2)
80008954:	8fa3003c 	lw	v1,60(sp)
80008958:	8fb80040 	lw	t8,64(sp)
8000895c:	ae550000 	sw	s5,0(s2)
80008960:	24680001 	addiu	t0,v1,1
80008964:	290b0008 	slti	t3,t0,8
80008968:	27030010 	addiu	v1,t8,16
8000896c:	afa30040 	sw	v1,64(sp)
80008970:	afa8003c 	sw	t0,60(sp)
80008974:	15600006 	bnez	t3,80008990 <_vfprintf_r+0x1120>
80008978:	26520008 	addiu	s2,s2,8
8000897c:	14600020 	bnez	v1,80008a00 <_vfprintf_r+0x1190>
80008980:	00001021 	move	v0,zero
80008984:	1440fd8a 	bnez	v0,80007fb0 <_vfprintf_r+0x740>
80008988:	afa0003c 	sw	zero,60(sp)
8000898c:	27b20048 	addiu	s2,sp,72
80008990:	2610fff0 	addiu	s0,s0,-16
80008994:	2a190011 	slti	t9,s0,17
80008998:	5320ffee 	beqzl	t9,80008954 <_vfprintf_r+0x10e4>
8000899c:	ae510004 	sw	s1,4(s2)
800089a0:	ae500004 	sw	s0,4(s2)
800089a4:	8fa2003c 	lw	v0,60(sp)
800089a8:	8fb50040 	lw	s5,64(sp)
800089ac:	3c048001 	lui	a0,0x8001
800089b0:	24490001 	addiu	t1,v0,1
800089b4:	02b02821 	addu	a1,s5,s0
800089b8:	248af290 	addiu	t2,a0,-3440
800089bc:	29310008 	slti	s1,t1,8
800089c0:	ae4a0000 	sw	t2,0(s2)
800089c4:	afa50040 	sw	a1,64(sp)
800089c8:	afa9003c 	sw	t1,60(sp)
800089cc:	1620fcef 	bnez	s1,80007d8c <_vfprintf_r+0x51c>
800089d0:	26520008 	addiu	s2,s2,8
800089d4:	14a00005 	bnez	a1,800089ec <_vfprintf_r+0x117c>
800089d8:	00001021 	move	v0,zero
800089dc:	1440fd74 	bnez	v0,80007fb0 <_vfprintf_r+0x740>
800089e0:	afa0003c 	sw	zero,60(sp)
800089e4:	08001f63 	j	80007d8c <_vfprintf_r+0x51c>
800089e8:	27b20048 	addiu	s2,sp,72
800089ec:	8fa406b4 	lw	a0,1716(sp)
800089f0:	0c002d3c 	jal	8000b4f0 <__sfvwrite>
800089f4:	27a50038 	addiu	a1,sp,56
800089f8:	08002277 	j	800089dc <_vfprintf_r+0x116c>
800089fc:	afa00040 	sw	zero,64(sp)
80008a00:	8fa406b4 	lw	a0,1716(sp)
80008a04:	0c002d3c 	jal	8000b4f0 <__sfvwrite>
80008a08:	27a50038 	addiu	a1,sp,56
80008a0c:	08002261 	j	80008984 <_vfprintf_r+0x1114>
80008a10:	afa00040 	sw	zero,64(sp)
80008a14:	8fa406b4 	lw	a0,1716(sp)
80008a18:	0c002d3c 	jal	8000b4f0 <__sfvwrite>
80008a1c:	27a50038 	addiu	a1,sp,56
80008a20:	08001f5c 	j	80007d70 <_vfprintf_r+0x500>
80008a24:	afa00040 	sw	zero,64(sp)
80008a28:	33380002 	andi	t8,t9,0x2
80008a2c:	1300fcd4 	beqz	t8,80007d80 <_vfprintf_r+0x510>
80008a30:	8fa60680 	lw	a2,1664(sp)
80008a34:	240c0030 	li	t4,48
80008a38:	24150002 	li	s5,2
80008a3c:	a3ac01e8 	sb	t4,488(sp)
80008a40:	a3b701e9 	sb	s7,489(sp)
80008a44:	ae550004 	sw	s5,4(s2)
80008a48:	8fa5003c 	lw	a1,60(sp)
80008a4c:	8fb00040 	lw	s0,64(sp)
80008a50:	27a401e8 	addiu	a0,sp,488
80008a54:	24aa0001 	addiu	t2,a1,1
80008a58:	29490008 	slti	t1,t2,8
80008a5c:	26050002 	addiu	a1,s0,2
80008a60:	ae440000 	sw	a0,0(s2)
80008a64:	afa50040 	sw	a1,64(sp)
80008a68:	afaa003c 	sw	t2,60(sp)
80008a6c:	1520fcc3 	bnez	t1,80007d7c <_vfprintf_r+0x50c>
80008a70:	26520008 	addiu	s2,s2,8
80008a74:	14a00005 	bnez	a1,80008a8c <_vfprintf_r+0x121c>
80008a78:	00001021 	move	v0,zero
80008a7c:	1440fd4c 	bnez	v0,80007fb0 <_vfprintf_r+0x740>
80008a80:	afa0003c 	sw	zero,60(sp)
80008a84:	08001f5f 	j	80007d7c <_vfprintf_r+0x50c>
80008a88:	27b20048 	addiu	s2,sp,72
80008a8c:	8fa406b4 	lw	a0,1716(sp)
80008a90:	0c002d3c 	jal	8000b4f0 <__sfvwrite>
80008a94:	27a50038 	addiu	a1,sp,56
80008a98:	0800229f 	j	80008a7c <_vfprintf_r+0x120c>
80008a9c:	afa00040 	sw	zero,64(sp)
80008aa0:	8fa406b4 	lw	a0,1716(sp)
80008aa4:	0c002d3c 	jal	8000b4f0 <__sfvwrite>
80008aa8:	27a50038 	addiu	a1,sp,56
80008aac:	08001f46 	j	80007d18 <_vfprintf_r+0x4a8>
80008ab0:	afa00040 	sw	zero,64(sp)
80008ab4:	08001f4a 	j	80007d28 <_vfprintf_r+0x4b8>
80008ab8:	93a50028 	lbu	a1,40(sp)
80008abc:	8fa406b4 	lw	a0,1716(sp)
80008ac0:	0c002d3c 	jal	8000b4f0 <__sfvwrite>
80008ac4:	27a50038 	addiu	a1,sp,56
80008ac8:	08001f30 	j	80007cc0 <_vfprintf_r+0x450>
80008acc:	afa00040 	sw	zero,64(sp)
80008ad0:	8fab0654 	lw	t3,1620(sp)
80008ad4:	316f0002 	andi	t7,t3,0x2
80008ad8:	08001f16 	j	80007c58 <_vfprintf_r+0x3e8>
80008adc:	01fef021 	addu	s8,t7,s8
80008ae0:	8faa0678 	lw	t2,1656(sp)
80008ae4:	3085000f 	andi	a1,a0,0xf
80008ae8:	2673ffff 	addiu	s3,s3,-1
80008aec:	01454821 	addu	t1,t2,a1
80008af0:	91350000 	lbu	s5,0(t1)
80008af4:	00042102 	srl	a0,a0,0x4
80008af8:	1480fff9 	bnez	a0,80008ae0 <_vfprintf_r+0x1270>
80008afc:	a2750000 	sb	s5,0(s3)
80008b00:	03b36823 	subu	t5,sp,s3
80008b04:	08001f0e 	j	80007c38 <_vfprintf_r+0x3c8>
80008b08:	25b601e4 	addiu	s6,t5,484
80008b0c:	5460fc46 	bnezl	v1,80007c28 <_vfprintf_r+0x3b8>
80008b10:	3c048001 	lui	a0,0x8001
80008b14:	30860007 	andi	a2,a0,0x7
80008b18:	24c30030 	addiu	v1,a2,48
80008b1c:	2673ffff 	addiu	s3,s3,-1
80008b20:	000420c2 	srl	a0,a0,0x3
80008b24:	1480fffb 	bnez	a0,80008b14 <_vfprintf_r+0x12a4>
80008b28:	a2630000 	sb	v1,0(s3)
80008b2c:	8fae0654 	lw	t6,1620(sp)
80008b30:	31c70001 	andi	a3,t6,0x1
80008b34:	10e0fff3 	beqz	a3,80008b04 <_vfprintf_r+0x1294>
80008b38:	03b36823 	subu	t5,sp,s3
80008b3c:	24020030 	li	v0,48
80008b40:	5062fc3d 	beql	v1,v0,80007c38 <_vfprintf_r+0x3c8>
80008b44:	25b601e4 	addiu	s6,t5,484
80008b48:	2673ffff 	addiu	s3,s3,-1
80008b4c:	080022c0 	j	80008b00 <_vfprintf_r+0x1290>
80008b50:	a2620000 	sb	v0,0(s3)
80008b54:	2c83000a 	sltiu	v1,a0,10
80008b58:	1460000f 	bnez	v1,80008b98 <_vfprintf_r+0x1328>
80008b5c:	3c0fcccc 	lui	t7,0xcccc
80008b60:	35e5cccd 	ori	a1,t7,0xcccd
80008b64:	00850019 	multu	a0,a1
80008b68:	2673ffff 	addiu	s3,s3,-1
80008b6c:	0000c810 	mfhi	t9
80008b70:	001988c2 	srl	s1,t9,0x3
80008b74:	00118080 	sll	s0,s1,0x2
80008b78:	0211b021 	addu	s6,s0,s1
80008b7c:	0016c040 	sll	t8,s6,0x1
80008b80:	00984023 	subu	t0,a0,t8
80008b84:	25020030 	addiu	v0,t0,48
80008b88:	2e2b000a 	sltiu	t3,s1,10
80008b8c:	02202021 	move	a0,s1
80008b90:	1160fff4 	beqz	t3,80008b64 <_vfprintf_r+0x12f4>
80008b94:	a2620000 	sb	v0,0(s3)
80008b98:	080022d2 	j	80008b48 <_vfprintf_r+0x12d8>
80008b9c:	24820030 	addiu	v0,a0,48
80008ba0:	1460ffd8 	bnez	v1,80008b04 <_vfprintf_r+0x1294>
80008ba4:	03b36823 	subu	t5,sp,s3
80008ba8:	8fbe0654 	lw	s8,1620(sp)
80008bac:	33cc0001 	andi	t4,s8,0x1
80008bb0:	5180fc21 	beqzl	t4,80007c38 <_vfprintf_r+0x3c8>
80008bb4:	25b601e4 	addiu	s6,t5,484
80008bb8:	24130030 	li	s3,48
80008bbc:	a3b301e3 	sb	s3,483(sp)
80008bc0:	080022c0 	j	80008b00 <_vfprintf_r+0x1290>
80008bc4:	27b301e3 	addiu	s3,sp,483
80008bc8:	2407002d 	li	a3,45
80008bcc:	a3a70028 	sb	a3,40(sp)
80008bd0:	08001ef6 	j	80007bd8 <_vfprintf_r+0x368>
80008bd4:	00042023 	negu	a0,a0
80008bd8:	2413fffc 	li	s3,-4
80008bdc:	24450003 	addiu	a1,v0,3
80008be0:	00b31024 	and	v0,a1,s3
80008be4:	8c440000 	lw	a0,0(v0)
80008be8:	08001ef3 	j	80007bcc <_vfprintf_r+0x35c>
80008bec:	afa206bc 	sw	v0,1724(sp)
80008bf0:	8fb70654 	lw	s7,1620(sp)
80008bf4:	92840000 	lbu	a0,0(s4)
80008bf8:	36e20008 	ori	v0,s7,0x8
80008bfc:	08001e7e 	j	800079f8 <_vfprintf_r+0x188>
80008c00:	afa20654 	sw	v0,1620(sp)
80008c04:	8fa30654 	lw	v1,1620(sp)
80008c08:	34670010 	ori	a3,v1,0x10
80008c0c:	afa70654 	sw	a3,1620(sp)
80008c10:	8fb30654 	lw	s3,1620(sp)
80008c14:	326d0010 	andi	t5,s3,0x10
80008c18:	15a00010 	bnez	t5,80008c5c <_vfprintf_r+0x13ec>
80008c1c:	8fbe06bc 	lw	s8,1724(sp)
80008c20:	8faf0654 	lw	t7,1620(sp)
80008c24:	31ee0040 	andi	t6,t7,0x40
80008c28:	11c0000d 	beqz	t6,80008c60 <_vfprintf_r+0x13f0>
80008c2c:	2419fffc 	li	t9,-4
80008c30:	8fb806bc 	lw	t8,1724(sp)
80008c34:	2411fffc 	li	s1,-4
80008c38:	27080003 	addiu	t0,t8,3
80008c3c:	01111024 	and	v0,t0,s1
80008c40:	94440000 	lhu	a0,0(v0)
80008c44:	afa206bc 	sw	v0,1724(sp)
80008c48:	24450004 	addiu	a1,v0,4
80008c4c:	00001821 	move	v1,zero
80008c50:	afa506bc 	sw	a1,1724(sp)
80008c54:	08001ef7 	j	80007bdc <_vfprintf_r+0x36c>
80008c58:	a3a00028 	sb	zero,40(sp)
80008c5c:	2419fffc 	li	t9,-4
80008c60:	27d00003 	addiu	s0,s8,3
80008c64:	02191024 	and	v0,s0,t9
80008c68:	8c440000 	lw	a0,0(v0)
80008c6c:	08002312 	j	80008c48 <_vfprintf_r+0x13d8>
80008c70:	afa206bc 	sw	v0,1724(sp)
80008c74:	8fa20654 	lw	v0,1620(sp)
80008c78:	34530010 	ori	s3,v0,0x10
80008c7c:	afb30654 	sw	s3,1620(sp)
80008c80:	8faf0654 	lw	t7,1620(sp)
80008c84:	31ee0010 	andi	t6,t7,0x10
80008c88:	15c0000f 	bnez	t6,80008cc8 <_vfprintf_r+0x1458>
80008c8c:	8faa06bc 	lw	t2,1724(sp)
80008c90:	8fa80654 	lw	t0,1620(sp)
80008c94:	310b0040 	andi	t3,t0,0x40
80008c98:	1160000c 	beqz	t3,80008ccc <_vfprintf_r+0x145c>
80008c9c:	2409fffc 	li	t1,-4
80008ca0:	8fb006bc 	lw	s0,1724(sp)
80008ca4:	2416fffc 	li	s6,-4
80008ca8:	26180003 	addiu	t8,s0,3
80008cac:	03161024 	and	v0,t8,s6
80008cb0:	94440000 	lhu	a0,0(v0)
80008cb4:	afa206bc 	sw	v0,1724(sp)
80008cb8:	244c0004 	addiu	t4,v0,4
80008cbc:	24030001 	li	v1,1
80008cc0:	08002315 	j	80008c54 <_vfprintf_r+0x13e4>
80008cc4:	afac06bc 	sw	t4,1724(sp)
80008cc8:	2409fffc 	li	t1,-4
80008ccc:	25450003 	addiu	a1,t2,3
80008cd0:	00a91024 	and	v0,a1,t1
80008cd4:	8c440000 	lw	a0,0(v0)
80008cd8:	0800232e 	j	80008cb8 <_vfprintf_r+0x1448>
80008cdc:	afa206bc 	sw	v0,1724(sp)
80008ce0:	3c1e8001 	lui	s8,0x8001
80008ce4:	27c2f2c4 	addiu	v0,s8,-3388
80008ce8:	8fa60654 	lw	a2,1620(sp)
80008cec:	30cd0010 	andi	t5,a2,0x10
80008cf0:	15a00015 	bnez	t5,80008d48 <_vfprintf_r+0x14d8>
80008cf4:	afa20678 	sw	v0,1656(sp)
80008cf8:	8fb30654 	lw	s3,1620(sp)
80008cfc:	32670040 	andi	a3,s3,0x40
80008d00:	10e00012 	beqz	a3,80008d4c <_vfprintf_r+0x14dc>
80008d04:	8fb806bc 	lw	t8,1724(sp)
80008d08:	8fa206bc 	lw	v0,1724(sp)
80008d0c:	240ffffc 	li	t7,-4
80008d10:	24440003 	addiu	a0,v0,3
80008d14:	008f1024 	and	v0,a0,t7
80008d18:	94440000 	lhu	a0,0(v0)
80008d1c:	afa206bc 	sw	v0,1724(sp)
80008d20:	8fa50654 	lw	a1,1620(sp)
80008d24:	24500004 	addiu	s0,v0,4
80008d28:	afb006bc 	sw	s0,1724(sp)
80008d2c:	30b60001 	andi	s6,a1,0x1
80008d30:	12c0ffc8 	beqz	s6,80008c54 <_vfprintf_r+0x13e4>
80008d34:	24030002 	li	v1,2
80008d38:	34b90002 	ori	t9,a1,0x2
80008d3c:	0324280b 	movn	a1,t9,a0
80008d40:	08002315 	j	80008c54 <_vfprintf_r+0x13e4>
80008d44:	afa50654 	sw	a1,1620(sp)
80008d48:	8fb806bc 	lw	t8,1724(sp)
80008d4c:	2411fffc 	li	s1,-4
80008d50:	27080003 	addiu	t0,t8,3
80008d54:	01111024 	and	v0,t0,s1
80008d58:	8c440000 	lw	a0,0(v0)
80008d5c:	08002348 	j	80008d20 <_vfprintf_r+0x14b0>
80008d60:	afa206bc 	sw	v0,1724(sp)
80008d64:	24150043 	li	s5,67
80008d68:	12f50005 	beq	s7,s5,80008d80 <_vfprintf_r+0x1510>
80008d6c:	27b30088 	addiu	s3,sp,136
80008d70:	8fa80654 	lw	t0,1620(sp)
80008d74:	310f0010 	andi	t7,t0,0x10
80008d78:	11e0001d 	beqz	t7,80008df0 <_vfprintf_r+0x1580>
80008d7c:	8fa306bc 	lw	v1,1724(sp)
80008d80:	27b601f0 	addiu	s6,sp,496
80008d84:	02c02021 	move	a0,s6
80008d88:	00002821 	move	a1,zero
80008d8c:	0c0008d0 	jal	80002340 <memset>
80008d90:	24060008 	li	a2,8
80008d94:	8fa206bc 	lw	v0,1724(sp)
80008d98:	2405fffc 	li	a1,-4
80008d9c:	8fa406b0 	lw	a0,1712(sp)
80008da0:	245e0003 	addiu	s8,v0,3
80008da4:	03c5c824 	and	t9,s8,a1
80008da8:	8f260000 	lw	a2,0(t9)
80008dac:	02c03821 	move	a3,s6
80008db0:	02602821 	move	a1,s3
80008db4:	0c0025b0 	jal	800096c0 <_wcrtomb_r>
80008db8:	afb906bc 	sw	t9,1724(sp)
80008dbc:	8fb806bc 	lw	t8,1724(sp)
80008dc0:	240bffff 	li	t3,-1
80008dc4:	0040b021 	move	s6,v0
80008dc8:	27110004 	addiu	s1,t8,4
80008dcc:	104b0003 	beq	v0,t3,80008ddc <_vfprintf_r+0x156c>
80008dd0:	afb106bc 	sw	s1,1724(sp)
80008dd4:	08001f0e 	j	80007c38 <_vfprintf_r+0x3c8>
80008dd8:	a3a00028 	sb	zero,40(sp)
80008ddc:	8fb206b4 	lw	s2,1716(sp)
80008de0:	9653000c 	lhu	s3,12(s2)
80008de4:	36740040 	ori	s4,s3,0x40
80008de8:	08001fec 	j	80007fb0 <_vfprintf_r+0x740>
80008dec:	a654000c 	sh	s4,12(s2)
80008df0:	2404fffc 	li	a0,-4
80008df4:	24160001 	li	s6,1
80008df8:	246c0003 	addiu	t4,v1,3
80008dfc:	01844824 	and	t1,t4,a0
80008e00:	91260000 	lbu	a2,0(t1)
80008e04:	25270004 	addiu	a3,t1,4
80008e08:	afa906bc 	sw	t1,1724(sp)
80008e0c:	a3a60088 	sb	a2,136(sp)
80008e10:	08002375 	j	80008dd4 <_vfprintf_r+0x1564>
80008e14:	afa706bc 	sw	a3,1724(sp)
80008e18:	2409ffff 	li	t1,-1
80008e1c:	12a90093 	beq	s5,t1,8000906c <_vfprintf_r+0x17fc>
80008e20:	240a0067 	li	t2,103
80008e24:	12ea008e 	beq	s7,t2,80009060 <_vfprintf_r+0x17f0>
80008e28:	240c0047 	li	t4,71
80008e2c:	12ec008d 	beq	s7,t4,80009064 <_vfprintf_r+0x17f4>
80008e30:	24040001 	li	a0,1
80008e34:	8fad0654 	lw	t5,1620(sp)
80008e38:	31a30008 	andi	v1,t5,0x8
80008e3c:	10600086 	beqz	v1,80009058 <_vfprintf_r+0x17e8>
80008e40:	8faf06bc 	lw	t7,1724(sp)
80008e44:	8fae06bc 	lw	t6,1724(sp)
80008e48:	25c20007 	addiu	v0,t6,7
80008e4c:	2410fff8 	li	s0,-8
80008e50:	0050b024 	and	s6,v0,s0
80008e54:	8ed80000 	lw	t8,0(s6)
80008e58:	8ed90004 	lw	t9,4(s6)
80008e5c:	26c80008 	addiu	t0,s6,8
80008e60:	afb606bc 	sw	s6,1724(sp)
80008e64:	afb80668 	sw	t8,1640(sp)
80008e68:	afb9066c 	sw	t9,1644(sp)
80008e6c:	d7ac0668 	ldc1	$f12,1640(sp)
80008e70:	0c003478 	jal	8000d1e0 <isinf>
80008e74:	afa806bc 	sw	t0,1724(sp)
80008e78:	1040000c 	beqz	v0,80008eac <_vfprintf_r+0x163c>
80008e7c:	00000000 	nop
80008e80:	44802000 	mtc1	zero,$f4
80008e84:	44802800 	mtc1	zero,$f5
80008e88:	d7a00668 	ldc1	$f0,1640(sp)
80008e8c:	4624013c 	c.lt.d	$fcc1,$f0,$f4
80008e90:	45040003 	bc1f	$fcc1,80008ea0 <_vfprintf_r+0x1630>
80008e94:	3c198001 	lui	t9,0x8001
80008e98:	2415002d 	li	s5,45
80008e9c:	a3b50028 	sb	s5,40(sp)
80008ea0:	2733f2d8 	addiu	s3,t9,-3368
80008ea4:	08001f0e 	j	80007c38 <_vfprintf_r+0x3c8>
80008ea8:	24160003 	li	s6,3
80008eac:	d7ac0668 	ldc1	$f12,1640(sp)
80008eb0:	0c001898 	jal	80006260 <isnan>
80008eb4:	00000000 	nop
80008eb8:	10400003 	beqz	v0,80008ec8 <_vfprintf_r+0x1658>
80008ebc:	3c1e8001 	lui	s8,0x8001
80008ec0:	080023a9 	j	80008ea4 <_vfprintf_r+0x1634>
80008ec4:	27d3f2dc 	addiu	s3,s8,-3364
80008ec8:	8fa40654 	lw	a0,1620(sp)
80008ecc:	d7a20668 	ldc1	$f2,1640(sp)
80008ed0:	27aa0029 	addiu	t2,sp,41
80008ed4:	348c0100 	ori	t4,a0,0x100
80008ed8:	afac0654 	sw	t4,1620(sp)
80008edc:	8fb30654 	lw	s3,1620(sp)
80008ee0:	8fa406b0 	lw	a0,1712(sp)
80008ee4:	44061000 	mfc1	a2,$f2
80008ee8:	44071800 	mfc1	a3,$f3
80008eec:	27a20648 	addiu	v0,sp,1608
80008ef0:	27a9064c 	addiu	t1,sp,1612
80008ef4:	afb30014 	sw	s3,20(sp)
80008ef8:	afaa0018 	sw	t2,24(sp)
80008efc:	afa2001c 	sw	v0,28(sp)
80008f00:	afa90024 	sw	t1,36(sp)
80008f04:	afb50010 	sw	s5,16(sp)
80008f08:	0c00250a 	jal	80009428 <cvt>
80008f0c:	afb70020 	sw	s7,32(sp)
80008f10:	24050067 	li	a1,103
80008f14:	12e50043 	beq	s7,a1,80009024 <_vfprintf_r+0x17b4>
80008f18:	00409821 	move	s3,v0
80008f1c:	24060047 	li	a2,71
80008f20:	12e60040 	beq	s7,a2,80009024 <_vfprintf_r+0x17b4>
80008f24:	8fa80648 	lw	t0,1608(sp)
80008f28:	2aeb0066 	slti	t3,s7,102
80008f2c:	15600029 	bnez	t3,80008fd4 <_vfprintf_r+0x1764>
80008f30:	24190066 	li	t9,102
80008f34:	12f90014 	beq	s7,t9,80008f88 <_vfprintf_r+0x1718>
80008f38:	8fa4064c 	lw	a0,1612(sp)
80008f3c:	0104602a 	slt	t4,t0,a0
80008f40:	1580000b 	bnez	t4,80008f70 <_vfprintf_r+0x1700>
80008f44:	8fa60654 	lw	a2,1620(sp)
80008f48:	30c40001 	andi	a0,a2,0x1
80008f4c:	10800002 	beqz	a0,80008f58 <_vfprintf_r+0x16e8>
80008f50:	0100b021 	move	s6,t0
80008f54:	25160001 	addiu	s6,t0,1
80008f58:	83a30029 	lb	v1,41(sp)
80008f5c:	1060fb37 	beqz	v1,80007c3c <_vfprintf_r+0x3cc>
80008f60:	8fa70674 	lw	a3,1652(sp)
80008f64:	240d002d 	li	t5,45
80008f68:	08001f0e 	j	80007c38 <_vfprintf_r+0x3c8>
80008f6c:	a3ad0028 	sb	t5,40(sp)
80008f70:	19000003 	blez	t0,80008f80 <_vfprintf_r+0x1710>
80008f74:	00883823 	subu	a3,a0,t0
80008f78:	080023d6 	j	80008f58 <_vfprintf_r+0x16e8>
80008f7c:	24960001 	addiu	s6,a0,1
80008f80:	080023d6 	j	80008f58 <_vfprintf_r+0x16e8>
80008f84:	24f60002 	addiu	s6,a3,2
80008f88:	1900000a 	blez	t0,80008fb4 <_vfprintf_r+0x1744>
80008f8c:	00000000 	nop
80008f90:	16a00005 	bnez	s5,80008fa8 <_vfprintf_r+0x1738>
80008f94:	0100b021 	move	s6,t0
80008f98:	8fa50654 	lw	a1,1620(sp)
80008f9c:	30be0001 	andi	s8,a1,0x1
80008fa0:	13c0ffee 	beqz	s8,80008f5c <_vfprintf_r+0x16ec>
80008fa4:	83a30029 	lb	v1,41(sp)
80008fa8:	01154821 	addu	t1,t0,s5
80008fac:	080023d6 	j	80008f58 <_vfprintf_r+0x16e8>
80008fb0:	25360001 	addiu	s6,t1,1
80008fb4:	16a0ffe8 	bnez	s5,80008f58 <_vfprintf_r+0x16e8>
80008fb8:	26b60002 	addiu	s6,s5,2
80008fbc:	8fa20654 	lw	v0,1620(sp)
80008fc0:	304a0001 	andi	t2,v0,0x1
80008fc4:	1140ffe4 	beqz	t2,80008f58 <_vfprintf_r+0x16e8>
80008fc8:	24160001 	li	s6,1
80008fcc:	080023d6 	j	80008f58 <_vfprintf_r+0x16e8>
80008fd0:	26b60002 	addiu	s6,s5,2
80008fd4:	2516ffff 	addiu	s6,t0,-1
80008fd8:	02c02821 	move	a1,s6
80008fdc:	27a40030 	addiu	a0,sp,48
80008fe0:	02e03021 	move	a2,s7
80008fe4:	0c00256c 	jal	800095b0 <exponent>
80008fe8:	afb60648 	sw	s6,1608(sp)
80008fec:	afa20670 	sw	v0,1648(sp)
80008ff0:	8fb1064c 	lw	s1,1612(sp)
80008ff4:	8fb80670 	lw	t8,1648(sp)
80008ff8:	2a280002 	slti	t0,s1,2
80008ffc:	15000003 	bnez	t0,8000900c <_vfprintf_r+0x179c>
80009000:	0311b021 	addu	s6,t8,s1
80009004:	080023d6 	j	80008f58 <_vfprintf_r+0x16e8>
80009008:	26d60001 	addiu	s6,s6,1
8000900c:	8fb50654 	lw	s5,1620(sp)
80009010:	32b00001 	andi	s0,s5,0x1
80009014:	1200ffd1 	beqz	s0,80008f5c <_vfprintf_r+0x16ec>
80009018:	83a30029 	lb	v1,41(sp)
8000901c:	080023d7 	j	80008f5c <_vfprintf_r+0x16ec>
80009020:	26d60001 	addiu	s6,s6,1
80009024:	8fa80648 	lw	t0,1608(sp)
80009028:	2907fffd 	slti	a3,t0,-3
8000902c:	14e00005 	bnez	a3,80009044 <_vfprintf_r+0x17d4>
80009030:	240f0065 	li	t7,101
80009034:	02a8182a 	slt	v1,s5,t0
80009038:	5060ffbb 	beqzl	v1,80008f28 <_vfprintf_r+0x16b8>
8000903c:	24170067 	li	s7,103
80009040:	240f0065 	li	t7,101
80009044:	3aee0067 	xori	t6,s7,0x67
80009048:	240d0045 	li	t5,69
8000904c:	01e0b821 	move	s7,t7
80009050:	080023ca 	j	80008f28 <_vfprintf_r+0x16b8>
80009054:	01aeb80b 	movn	s7,t5,t6
80009058:	08002393 	j	80008e4c <_vfprintf_r+0x15dc>
8000905c:	25e20007 	addiu	v0,t7,7
80009060:	24040001 	li	a0,1
80009064:	0800238d 	j	80008e34 <_vfprintf_r+0x15c4>
80009068:	0095a80a 	movz	s5,a0,s5
8000906c:	0800238d 	j	80008e34 <_vfprintf_r+0x15c4>
80009070:	24150006 	li	s5,6
80009074:	8fa90654 	lw	t1,1620(sp)
80009078:	92840000 	lbu	a0,0(s4)
8000907c:	08001e96 	j	80007a58 <_vfprintf_r+0x1e8>
80009080:	35230040 	ori	v1,t1,0x40
80009084:	828c0000 	lb	t4,0(s4)
80009088:	240a006c 	li	t2,108
8000908c:	118a0004 	beq	t4,t2,800090a0 <_vfprintf_r+0x1830>
80009090:	92840000 	lbu	a0,0(s4)
80009094:	8fad0654 	lw	t5,1620(sp)
80009098:	080022ff 	j	80008bfc <_vfprintf_r+0x138c>
8000909c:	35a20010 	ori	v0,t5,0x10
800090a0:	26940001 	addiu	s4,s4,1
800090a4:	8fa30654 	lw	v1,1620(sp)
800090a8:	92840000 	lbu	a0,0(s4)
800090ac:	08001ea7 	j	80007a9c <_vfprintf_r+0x22c>
800090b0:	34650010 	ori	a1,v1,0x10
800090b4:	8fb30654 	lw	s3,1620(sp)
800090b8:	32770010 	andi	s7,s3,0x10
800090bc:	16e00004 	bnez	s7,800090d0 <_vfprintf_r+0x1860>
800090c0:	8faf0654 	lw	t7,1620(sp)
800090c4:	31ee0040 	andi	t6,t7,0x40
800090c8:	15c0000c 	bnez	t6,800090fc <_vfprintf_r+0x188c>
800090cc:	8fb906bc 	lw	t9,1724(sp)
800090d0:	8fa606bc 	lw	a2,1724(sp)
800090d4:	2404fffc 	li	a0,-4
800090d8:	8fa50658 	lw	a1,1624(sp)
800090dc:	24cc0003 	addiu	t4,a2,3
800090e0:	01845024 	and	t2,t4,a0
800090e4:	8d5e0000 	lw	s8,0(t2)
800090e8:	25490004 	addiu	t1,t2,4
800090ec:	afaa06bc 	sw	t2,1724(sp)
800090f0:	afc50000 	sw	a1,0(s8)
800090f4:	08001e52 	j	80007948 <_vfprintf_r+0xd8>
800090f8:	afa906bc 	sw	t1,1724(sp)
800090fc:	2415fffc 	li	s5,-4
80009100:	8fa80658 	lw	t0,1624(sp)
80009104:	27300003 	addiu	s0,t9,3
80009108:	0215c024 	and	t8,s0,s5
8000910c:	8f0b0000 	lw	t3,0(t8)
80009110:	27110004 	addiu	s1,t8,4
80009114:	afb806bc 	sw	t8,1724(sp)
80009118:	a5680000 	sh	t0,0(t3)
8000911c:	08001e52 	j	80007948 <_vfprintf_r+0xd8>
80009120:	afb106bc 	sw	s1,1724(sp)
80009124:	8fa206bc 	lw	v0,1724(sp)
80009128:	2404fffc 	li	a0,-4
8000912c:	8fa90654 	lw	t1,1620(sp)
80009130:	24530003 	addiu	s3,v0,3
80009134:	02646824 	and	t5,s3,a0
80009138:	8da40000 	lw	a0,0(t5)
8000913c:	3c038001 	lui	v1,0x8001
80009140:	35370002 	ori	s7,t1,0x2
80009144:	2467f2e0 	addiu	a3,v1,-3360
80009148:	25aa0004 	addiu	t2,t5,4
8000914c:	afb70654 	sw	s7,1620(sp)
80009150:	24030002 	li	v1,2
80009154:	24170078 	li	s7,120
80009158:	afad06bc 	sw	t5,1724(sp)
8000915c:	afa70678 	sw	a3,1656(sp)
80009160:	08002315 	j	80008c54 <_vfprintf_r+0x13e4>
80009164:	afaa06bc 	sw	t2,1724(sp)
80009168:	8fae0654 	lw	t6,1620(sp)
8000916c:	92840000 	lbu	a0,0(s4)
80009170:	08001e96 	j	80007a58 <_vfprintf_r+0x1e8>
80009174:	35c30010 	ori	v1,t6,0x10
80009178:	8fb806bc 	lw	t8,1724(sp)
8000917c:	2411fffc 	li	s1,-4
80009180:	a3a00028 	sb	zero,40(sp)
80009184:	27080003 	addiu	t0,t8,3
80009188:	01115824 	and	t3,t0,s1
8000918c:	8d730000 	lw	s3,0(t3)
80009190:	256e0004 	addiu	t6,t3,4
80009194:	afab06bc 	sw	t3,1724(sp)
80009198:	1260005b 	beqz	s3,80009308 <_vfprintf_r+0x1a98>
8000919c:	afae06bc 	sw	t6,1724(sp)
800091a0:	24160053 	li	s6,83
800091a4:	12f60004 	beq	s7,s6,800091b8 <_vfprintf_r+0x1948>
800091a8:	8fb90654 	lw	t9,1620(sp)
800091ac:	33300010 	andi	s0,t9,0x10
800091b0:	12000048 	beqz	s0,800092d4 <_vfprintf_r+0x1a64>
800091b4:	00000000 	nop
800091b8:	27a401f8 	addiu	a0,sp,504
800091bc:	00002821 	move	a1,zero
800091c0:	24060008 	li	a2,8
800091c4:	afb30650 	sw	s3,1616(sp)
800091c8:	00008821 	move	s1,zero
800091cc:	0c0008d0 	jal	80002340 <memset>
800091d0:	0000b021 	move	s6,zero
800091d4:	06a00034 	bltz	s5,800092a8 <_vfprintf_r+0x1a38>
800091d8:	241effff 	li	s8,-1
800091dc:	8faa0650 	lw	t2,1616(sp)
800091e0:	00114880 	sll	t1,s1,0x2
800091e4:	012a2821 	addu	a1,t1,t2
800091e8:	8ca60000 	lw	a2,0(a1)
800091ec:	10c0000c 	beqz	a2,80009220 <_vfprintf_r+0x19b0>
800091f0:	8fa406b0 	lw	a0,1712(sp)
800091f4:	27a50088 	addiu	a1,sp,136
800091f8:	0c0025b0 	jal	800096c0 <_wcrtomb_r>
800091fc:	27a701f8 	addiu	a3,sp,504
80009200:	105e001f 	beq	v0,s8,80009280 <_vfprintf_r+0x1a10>
80009204:	00561821 	addu	v1,v0,s6
80009208:	02a3602a 	slt	t4,s5,v1
8000920c:	15800004 	bnez	t4,80009220 <_vfprintf_r+0x19b0>
80009210:	00000000 	nop
80009214:	0060b021 	move	s6,v1
80009218:	1475fff0 	bne	v1,s5,800091dc <_vfprintf_r+0x196c>
8000921c:	26310001 	addiu	s1,s1,1
80009220:	12c0fa86 	beqz	s6,80007c3c <_vfprintf_r+0x3cc>
80009224:	8fa70674 	lw	a3,1652(sp)
80009228:	8fa406b0 	lw	a0,1712(sp)
8000922c:	0c0001cc 	jal	80000730 <_malloc_r>
80009230:	26c50001 	addiu	a1,s6,1
80009234:	10400017 	beqz	v0,80009294 <_vfprintf_r+0x1a24>
80009238:	afa2067c 	sw	v0,1660(sp)
8000923c:	27a401f8 	addiu	a0,sp,504
80009240:	00002821 	move	a1,zero
80009244:	0c0008d0 	jal	80002340 <memset>
80009248:	24060008 	li	a2,8
8000924c:	8fa406b0 	lw	a0,1712(sp)
80009250:	8fa5067c 	lw	a1,1660(sp)
80009254:	27ad01f8 	addiu	t5,sp,504
80009258:	27a60650 	addiu	a2,sp,1616
8000925c:	02c03821 	move	a3,s6
80009260:	0c0025ec 	jal	800097b0 <_wcsrtombs_r>
80009264:	afad0010 	sw	t5,16(sp)
80009268:	14560005 	bne	v0,s6,80009280 <_vfprintf_r+0x1a10>
8000926c:	8fa7067c 	lw	a3,1660(sp)
80009270:	00f63021 	addu	a2,a3,s6
80009274:	00e09821 	move	s3,a3
80009278:	08001f0e 	j	80007c38 <_vfprintf_r+0x3c8>
8000927c:	a0c00000 	sb	zero,0(a2)
80009280:	8fb806b4 	lw	t8,1716(sp)
80009284:	971e000c 	lhu	s8,12(t8)
80009288:	37d90040 	ori	t9,s8,0x40
8000928c:	08001fec 	j	80007fb0 <_vfprintf_r+0x740>
80009290:	a719000c 	sh	t9,12(t8)
80009294:	8fb006b4 	lw	s0,1716(sp)
80009298:	9617000c 	lhu	s7,12(s0)
8000929c:	36f60040 	ori	s6,s7,0x40
800092a0:	08001fec 	j	80007fb0 <_vfprintf_r+0x740>
800092a4:	a616000c 	sh	s6,12(s0)
800092a8:	8fa406b0 	lw	a0,1712(sp)
800092ac:	27a301f8 	addiu	v1,sp,504
800092b0:	00002821 	move	a1,zero
800092b4:	27a60650 	addiu	a2,sp,1616
800092b8:	00003821 	move	a3,zero
800092bc:	0c0025ec 	jal	800097b0 <_wcsrtombs_r>
800092c0:	afa30010 	sw	v1,16(sp)
800092c4:	105efec5 	beq	v0,s8,80008ddc <_vfprintf_r+0x156c>
800092c8:	0040b021 	move	s6,v0
800092cc:	08002488 	j	80009220 <_vfprintf_r+0x19b0>
800092d0:	afb30650 	sw	s3,1616(sp)
800092d4:	06a0fa55 	bltz	s5,80007c2c <_vfprintf_r+0x3bc>
800092d8:	02602021 	move	a0,s3
800092dc:	00002821 	move	a1,zero
800092e0:	0c002eac 	jal	8000bab0 <memchr>
800092e4:	02a03021 	move	a2,s5
800092e8:	1040fa53 	beqz	v0,80007c38 <_vfprintf_r+0x3c8>
800092ec:	02a0b021 	move	s6,s5
800092f0:	0053b023 	subu	s6,v0,s3
800092f4:	02b6202a 	slt	a0,s5,s6
800092f8:	1080fa50 	beqz	a0,80007c3c <_vfprintf_r+0x3cc>
800092fc:	8fa70674 	lw	a3,1652(sp)
80009300:	08001f0f 	j	80007c3c <_vfprintf_r+0x3cc>
80009304:	02a0b021 	move	s6,s5
80009308:	3c158001 	lui	s5,0x8001
8000930c:	26b3f2f4 	addiu	s3,s5,-3340
80009310:	08001f0e 	j	80007c38 <_vfprintf_r+0x3c8>
80009314:	24160006 	li	s6,6
80009318:	12e00005 	beqz	s7,80009330 <_vfprintf_r+0x1ac0>
8000931c:	27b30088 	addiu	s3,sp,136
80009320:	a3b70088 	sb	s7,136(sp)
80009324:	a3a00028 	sb	zero,40(sp)
80009328:	08001f0e 	j	80007c38 <_vfprintf_r+0x3c8>
8000932c:	24160001 	li	s6,1
80009330:	8fb40040 	lw	s4,64(sp)
80009334:	16800003 	bnez	s4,80009344 <_vfprintf_r+0x1ad4>
80009338:	8fa406b4 	lw	a0,1716(sp)
8000933c:	08001fec 	j	80007fb0 <_vfprintf_r+0x740>
80009340:	afa0003c 	sw	zero,60(sp)
80009344:	0c002d3c 	jal	8000b4f0 <__sfvwrite>
80009348:	27a50038 	addiu	a1,sp,56
8000934c:	afa00040 	sw	zero,64(sp)
80009350:	1440fb17 	bnez	v0,80007fb0 <_vfprintf_r+0x740>
80009354:	afa0003c 	sw	zero,60(sp)
80009358:	08001fed 	j	80007fb4 <_vfprintf_r+0x744>
8000935c:	8fa2067c 	lw	v0,1660(sp)
80009360:	3c038001 	lui	v1,0x8001
80009364:	0800233a 	j	80008ce8 <_vfprintf_r+0x1478>
80009368:	2462f2e0 	addiu	v0,v1,-3360
8000936c:	8fa406b4 	lw	a0,1716(sp)
80009370:	0c002d3c 	jal	8000b4f0 <__sfvwrite>
80009374:	27a50038 	addiu	a1,sp,56
80009378:	08001e6f 	j	800079bc <_vfprintf_r+0x14c>
8000937c:	afa00040 	sw	zero,64(sp)
80009380:	846a000e 	lh	t2,14(v1)
80009384:	0540f96a 	bltz	t2,80007930 <_vfprintf_r+0xc0>
80009388:	946b000e 	lhu	t3,14(v1)
8000938c:	8c6f001c 	lw	t7,28(v1)
80009390:	8c6e0024 	lw	t6,36(v1)
80009394:	8fa406b0 	lw	a0,1712(sp)
80009398:	8fa706bc 	lw	a3,1724(sp)
8000939c:	27b101f0 	addiu	s1,sp,496
800093a0:	27ad0248 	addiu	t5,sp,584
800093a4:	240c0400 	li	t4,1024
800093a8:	3112fffd 	andi	s2,t0,0xfffd
800093ac:	02003021 	move	a2,s0
800093b0:	02202821 	move	a1,s1
800093b4:	a7b201fc 	sh	s2,508(sp)
800093b8:	a7ab01fe 	sh	t3,510(sp)
800093bc:	afaf020c 	sw	t7,524(sp)
800093c0:	afae0214 	sw	t6,532(sp)
800093c4:	afad0200 	sw	t5,512(sp)
800093c8:	afac0204 	sw	t4,516(sp)
800093cc:	afad01f0 	sw	t5,496(sp)
800093d0:	afac01f8 	sw	t4,504(sp)
800093d4:	0c001e1c 	jal	80007870 <_vfprintf_r>
800093d8:	afa00208 	sw	zero,520(sp)
800093dc:	04400005 	bltz	v0,800093f4 <_vfprintf_r+0x1b84>
800093e0:	00408021 	move	s0,v0
800093e4:	0c002cfc 	jal	8000b3f0 <fflush>
800093e8:	02202021 	move	a0,s1
800093ec:	2408ffff 	li	t0,-1
800093f0:	0102800b 	movn	s0,t0,v0
800093f4:	97b101fc 	lhu	s1,508(sp)
800093f8:	322b0040 	andi	t3,s1,0x40
800093fc:	1160faf7 	beqz	t3,80007fdc <_vfprintf_r+0x76c>
80009400:	02001821 	move	v1,s0
80009404:	8fb306b4 	lw	s3,1716(sp)
80009408:	9675000c 	lhu	s5,12(s3)
8000940c:	36b40040 	ori	s4,s5,0x40
80009410:	08001ff7 	j	80007fdc <_vfprintf_r+0x76c>
80009414:	a674000c 	sh	s4,12(s3)
80009418:	0c0015df 	jal	8000577c <__sinit>
8000941c:	00602021 	move	a0,v1
80009420:	08001e3b 	j	800078ec <_vfprintf_r+0x7c>
80009424:	8fa406b4 	lw	a0,1716(sp)

80009428 <cvt>:
80009428:	27bdffb8 	addiu	sp,sp,-72
8000942c:	afb10034 	sw	s1,52(sp)
80009430:	8fb10068 	lw	s1,104(sp)
80009434:	24030066 	li	v1,102
80009438:	afb20038 	sw	s2,56(sp)
8000943c:	afb00030 	sw	s0,48(sp)
80009440:	f7b40040 	sdc1	$f20,64(sp)
80009444:	afbf003c 	sw	ra,60(sp)
80009448:	4486a000 	mtc1	a2,$f20
8000944c:	4487a800 	mtc1	a3,$f21
80009450:	8fb00058 	lw	s0,88(sp)
80009454:	8fa60060 	lw	a2,96(sp)
80009458:	8fb20064 	lw	s2,100(sp)
8000945c:	12230007 	beq	s1,v1,8000947c <cvt+0x54>
80009460:	24050003 	li	a1,3
80009464:	24030065 	li	v1,101
80009468:	1223004f 	beq	s1,v1,800095a8 <cvt+0x180>
8000946c:	24050045 	li	a1,69
80009470:	52250001 	beql	s1,a1,80009478 <cvt+0x50>
80009474:	26100001 	addiu	s0,s0,1
80009478:	24050002 	li	a1,2
8000947c:	4402a000 	mfc1	v0,$f20
80009480:	4403a800 	mfc1	v1,$f21
80009484:	04630004 	bgezl	v1,80009498 <cvt+0x70>
80009488:	a0c00000 	sb	zero,0(a2)
8000948c:	4620a507 	neg.d	$f20,$f20
80009490:	2407002d 	li	a3,45
80009494:	a0c70000 	sb	a3,0(a2)
80009498:	4406a000 	mfc1	a2,$f20
8000949c:	4407a800 	mfc1	a3,$f21
800094a0:	27a80028 	addiu	t0,sp,40
800094a4:	27a2002c 	addiu	v0,sp,44
800094a8:	afa50010 	sw	a1,16(sp)
800094ac:	afa8001c 	sw	t0,28(sp)
800094b0:	afa20020 	sw	v0,32(sp)
800094b4:	afb00014 	sw	s0,20(sp)
800094b8:	0c0027e4 	jal	80009f90 <_dtoa_r>
800094bc:	afb20018 	sw	s2,24(sp)
800094c0:	24040067 	li	a0,103
800094c4:	12240032 	beq	s1,a0,80009590 <cvt+0x168>
800094c8:	00403821 	move	a3,v0
800094cc:	24060047 	li	a2,71
800094d0:	12260030 	beq	s1,a2,80009594 <cvt+0x16c>
800094d4:	8faa005c 	lw	t2,92(sp)
800094d8:	240b0066 	li	t3,102
800094dc:	122b001c 	beq	s1,t3,80009550 <cvt+0x128>
800094e0:	00f02821 	addu	a1,a3,s0
800094e4:	44802000 	mtc1	zero,$f4
800094e8:	44802800 	mtc1	zero,$f5
800094ec:	4624a232 	c.eq.d	$fcc2,$f20,$f4
800094f0:	450b0001 	bc1tl	$fcc2,800094f8 <cvt+0xd0>
800094f4:	afa5002c 	sw	a1,44(sp)
800094f8:	8fa3002c 	lw	v1,44(sp)
800094fc:	0065882b 	sltu	s1,v1,a1
80009500:	12200008 	beqz	s1,80009524 <cvt+0xfc>
80009504:	00602021 	move	a0,v1
80009508:	24060030 	li	a2,48
8000950c:	24830001 	addiu	v1,a0,1
80009510:	0065902b 	sltu	s2,v1,a1
80009514:	a0860000 	sb	a2,0(a0)
80009518:	afa3002c 	sw	v1,44(sp)
8000951c:	1640fffb 	bnez	s2,8000950c <cvt+0xe4>
80009520:	00602021 	move	a0,v1
80009524:	8fb8006c 	lw	t8,108(sp)
80009528:	8fbf003c 	lw	ra,60(sp)
8000952c:	8fb20038 	lw	s2,56(sp)
80009530:	8fb10034 	lw	s1,52(sp)
80009534:	8fb00030 	lw	s0,48(sp)
80009538:	d7b40040 	ldc1	$f20,64(sp)
8000953c:	0067c823 	subu	t9,v1,a3
80009540:	00e01021 	move	v0,a3
80009544:	af190000 	sw	t9,0(t8)
80009548:	03e00008 	jr	ra
8000954c:	27bd0048 	addiu	sp,sp,72
80009550:	80ed0000 	lb	t5,0(a3)
80009554:	240c0030 	li	t4,48
80009558:	11ac0004 	beq	t5,t4,8000956c <cvt+0x144>
8000955c:	00000000 	nop
80009560:	8e500000 	lw	s0,0(s2)
80009564:	08002539 	j	800094e4 <cvt+0xbc>
80009568:	00b02821 	addu	a1,a1,s0
8000956c:	44801000 	mtc1	zero,$f2
80009570:	44801800 	mtc1	zero,$f3
80009574:	4622a132 	c.eq.d	$fcc1,$f20,$f2
80009578:	4507fffa 	bc1tl	$fcc1,80009564 <cvt+0x13c>
8000957c:	8e500000 	lw	s0,0(s2)
80009580:	240f0001 	li	t7,1
80009584:	01f07023 	subu	t6,t7,s0
80009588:	08002558 	j	80009560 <cvt+0x138>
8000958c:	ae4e0000 	sw	t6,0(s2)
80009590:	8faa005c 	lw	t2,92(sp)
80009594:	31490001 	andi	t1,t2,0x1
80009598:	1520ffd0 	bnez	t1,800094dc <cvt+0xb4>
8000959c:	240b0066 	li	t3,102
800095a0:	08002549 	j	80009524 <cvt+0xfc>
800095a4:	8fa3002c 	lw	v1,44(sp)
800095a8:	0800251e 	j	80009478 <cvt+0x50>
800095ac:	26100001 	addiu	s0,s0,1

800095b0 <exponent>:
800095b0:	27bdffd8 	addiu	sp,sp,-40
800095b4:	00804821 	move	t1,a0
800095b8:	04a0002e 	bltz	a1,80009674 <exponent+0xc4>
800095bc:	a0860000 	sb	a2,0(a0)
800095c0:	2403002b 	li	v1,43
800095c4:	a0830001 	sb	v1,1(a0)
800095c8:	24870002 	addiu	a3,a0,2
800095cc:	27a60028 	addiu	a2,sp,40
800095d0:	28a4000a 	slti	a0,a1,10
800095d4:	14800020 	bnez	a0,80009658 <exponent+0xa8>
800095d8:	00c05021 	move	t2,a2
800095dc:	3c026666 	lui	v0,0x6666
800095e0:	34486667 	ori	t0,v0,0x6667
800095e4:	00a80018 	mult	a1,t0
800095e8:	00055fc3 	sra	t3,a1,0x1f
800095ec:	24c6ffff 	addiu	a2,a2,-1
800095f0:	00002010 	mfhi	a0
800095f4:	00041083 	sra	v0,a0,0x2
800095f8:	004b7023 	subu	t6,v0,t3
800095fc:	000ec880 	sll	t9,t6,0x2
80009600:	032ec021 	addu	t8,t9,t6
80009604:	00187840 	sll	t7,t8,0x1
80009608:	00af6823 	subu	t5,a1,t7
8000960c:	25ac0030 	addiu	t4,t5,48
80009610:	29cb000a 	slti	t3,t6,10
80009614:	01c02821 	move	a1,t6
80009618:	1160fff2 	beqz	t3,800095e4 <exponent+0x34>
8000961c:	a0cc0000 	sb	t4,0(a2)
80009620:	24c6ffff 	addiu	a2,a2,-1
80009624:	25c80030 	addiu	t0,t6,48
80009628:	00ca282b 	sltu	a1,a2,t2
8000962c:	10a00007 	beqz	a1,8000964c <exponent+0x9c>
80009630:	a0c80000 	sb	t0,0(a2)
80009634:	90c30000 	lbu	v1,0(a2)
80009638:	24c60001 	addiu	a2,a2,1
8000963c:	00ca602b 	sltu	t4,a2,t2
80009640:	a0e30000 	sb	v1,0(a3)
80009644:	1580fffb 	bnez	t4,80009634 <exponent+0x84>
80009648:	24e70001 	addiu	a3,a3,1
8000964c:	00e91023 	subu	v0,a3,t1
80009650:	03e00008 	jr	ra
80009654:	27bd0028 	addiu	sp,sp,40
80009658:	24e60001 	addiu	a2,a3,1
8000965c:	240d0030 	li	t5,48
80009660:	24aa0030 	addiu	t2,a1,48
80009664:	a0ed0000 	sb	t5,0(a3)
80009668:	a0ca0000 	sb	t2,0(a2)
8000966c:	08002593 	j	8000964c <exponent+0x9c>
80009670:	24c70001 	addiu	a3,a2,1
80009674:	2403002d 	li	v1,45
80009678:	00052823 	negu	a1,a1
8000967c:	24870002 	addiu	a3,a0,2
80009680:	08002573 	j	800095cc <exponent+0x1c>
80009684:	a0830001 	sb	v1,1(a0)

80009688 <vfprintf>:
80009688:	3c078001 	lui	a3,0x8001
8000968c:	00801821 	move	v1,a0
80009690:	8ce4e348 	lw	a0,-7352(a3)
80009694:	00a01021 	move	v0,a1
80009698:	27bdffe8 	addiu	sp,sp,-24
8000969c:	00c03821 	move	a3,a2
800096a0:	00602821 	move	a1,v1
800096a4:	afbf0010 	sw	ra,16(sp)
800096a8:	0c001e1c 	jal	80007870 <_vfprintf_r>
800096ac:	00403021 	move	a2,v0
800096b0:	8fbf0010 	lw	ra,16(sp)
800096b4:	03e00008 	jr	ra
800096b8:	27bd0018 	addiu	sp,sp,24
800096bc:	00000000 	nop

800096c0 <_wcrtomb_r>:
800096c0:	27bdffd0 	addiu	sp,sp,-48
800096c4:	afb10024 	sw	s1,36(sp)
800096c8:	afb00020 	sw	s0,32(sp)
800096cc:	afbf0028 	sw	ra,40(sp)
800096d0:	00808821 	move	s1,a0
800096d4:	10a00011 	beqz	a1,8000971c <_wcrtomb_r+0x5c>
800096d8:	00e08021 	move	s0,a3
800096dc:	0c002654 	jal	80009950 <_wctomb_r>
800096e0:	00000000 	nop
800096e4:	2405ffff 	li	a1,-1
800096e8:	10450008 	beq	v0,a1,8000970c <_wcrtomb_r+0x4c>
800096ec:	2404ffff 	li	a0,-1
800096f0:	00402021 	move	a0,v0
800096f4:	8fbf0028 	lw	ra,40(sp)
800096f8:	8fb10024 	lw	s1,36(sp)
800096fc:	8fb00020 	lw	s0,32(sp)
80009700:	00801021 	move	v0,a0
80009704:	03e00008 	jr	ra
80009708:	27bd0030 	addiu	sp,sp,48
8000970c:	2403008a 	li	v1,138
80009710:	ae000000 	sw	zero,0(s0)
80009714:	080025bd 	j	800096f4 <_wcrtomb_r+0x34>
80009718:	ae230000 	sw	v1,0(s1)
8000971c:	27a50010 	addiu	a1,sp,16
80009720:	080025b7 	j	800096dc <_wcrtomb_r+0x1c>
80009724:	00003021 	move	a2,zero

80009728 <wcrtomb>:
80009728:	27bdffd0 	addiu	sp,sp,-48
8000972c:	00801821 	move	v1,a0
80009730:	3c048001 	lui	a0,0x8001
80009734:	afb00020 	sw	s0,32(sp)
80009738:	8c90e348 	lw	s0,-7352(a0)
8000973c:	afb10024 	sw	s1,36(sp)
80009740:	00c03821 	move	a3,a2
80009744:	00c08821 	move	s1,a2
80009748:	00a01021 	move	v0,a1
8000974c:	afbf0028 	sw	ra,40(sp)
80009750:	00003021 	move	a2,zero
80009754:	27a50010 	addiu	a1,sp,16
80009758:	10600005 	beqz	v1,80009770 <wcrtomb+0x48>
8000975c:	02002021 	move	a0,s0
80009760:	00602821 	move	a1,v1
80009764:	00403021 	move	a2,v0
80009768:	02002021 	move	a0,s0
8000976c:	02203821 	move	a3,s1
80009770:	0c002654 	jal	80009950 <_wctomb_r>
80009774:	00000000 	nop
80009778:	2405ffff 	li	a1,-1
8000977c:	10450008 	beq	v0,a1,800097a0 <wcrtomb+0x78>
80009780:	2404ffff 	li	a0,-1
80009784:	00402021 	move	a0,v0
80009788:	8fbf0028 	lw	ra,40(sp)
8000978c:	8fb10024 	lw	s1,36(sp)
80009790:	8fb00020 	lw	s0,32(sp)
80009794:	00801021 	move	v0,a0
80009798:	03e00008 	jr	ra
8000979c:	27bd0030 	addiu	sp,sp,48
800097a0:	2403008a 	li	v1,138
800097a4:	ae200000 	sw	zero,0(s1)
800097a8:	080025e2 	j	80009788 <wcrtomb+0x60>
800097ac:	ae030000 	sw	v1,0(s0)

800097b0 <_wcsrtombs_r>:
800097b0:	27bdffb8 	addiu	sp,sp,-72
800097b4:	afb00020 	sw	s0,32(sp)
800097b8:	2403ffff 	li	v1,-1
800097bc:	00e08021 	move	s0,a3
800097c0:	afbe0040 	sw	s8,64(sp)
800097c4:	afb7003c 	sw	s7,60(sp)
800097c8:	afb60038 	sw	s6,56(sp)
800097cc:	afb40030 	sw	s4,48(sp)
800097d0:	afb10024 	sw	s1,36(sp)
800097d4:	afbf0044 	sw	ra,68(sp)
800097d8:	afb50034 	sw	s5,52(sp)
800097dc:	afb3002c 	sw	s3,44(sp)
800097e0:	afb20028 	sw	s2,40(sp)
800097e4:	0065800a 	movz	s0,v1,a1
800097e8:	00a0b821 	move	s7,a1
800097ec:	00c0f021 	move	s8,a2
800097f0:	afa40048 	sw	a0,72(sp)
800097f4:	8fb40058 	lw	s4,88(sp)
800097f8:	00a08821 	move	s1,a1
800097fc:	8cd50000 	lw	s5,0(a2)
80009800:	12000027 	beqz	s0,800098a0 <_wcsrtombs_r+0xf0>
80009804:	0000b021 	move	s6,zero
80009808:	8fa40048 	lw	a0,72(sp)
8000980c:	8ea60000 	lw	a2,0(s5)
80009810:	27a50010 	addiu	a1,sp,16
80009814:	02803821 	move	a3,s4
80009818:	8e920000 	lw	s2,0(s4)
8000981c:	0c0025b0 	jal	800096c0 <_wcrtomb_r>
80009820:	8e930004 	lw	s3,4(s4)
80009824:	2403ffff 	li	v1,-1
80009828:	10430033 	beq	v0,v1,800098f8 <_wcsrtombs_r+0x148>
8000982c:	00402021 	move	a0,v0
80009830:	02023823 	subu	a3,s0,v0
80009834:	00f6302b 	sltu	a2,a3,s6
80009838:	54c0002c 	bnezl	a2,800098ec <_wcsrtombs_r+0x13c>
8000983c:	ae920000 	sw	s2,0(s4)
80009840:	0050402b 	sltu	t0,v0,s0
80009844:	51000029 	beqzl	t0,800098ec <_wcsrtombs_r+0x13c>
80009848:	ae920000 	sw	s2,0(s4)
8000984c:	12e0000e 	beqz	s7,80009888 <_wcsrtombs_r+0xd8>
80009850:	02c2b021 	addu	s6,s6,v0
80009854:	18400009 	blez	v0,8000987c <_wcsrtombs_r+0xcc>
80009858:	00002821 	move	a1,zero
8000985c:	27a60010 	addiu	a2,sp,16
80009860:	00c55821 	addu	t3,a2,a1
80009864:	916a0000 	lbu	t2,0(t3)
80009868:	24a50001 	addiu	a1,a1,1
8000986c:	00a4482a 	slt	t1,a1,a0
80009870:	a22a0000 	sb	t2,0(s1)
80009874:	1520fffa 	bnez	t1,80009860 <_wcsrtombs_r+0xb0>
80009878:	26310001 	addiu	s1,s1,1
8000987c:	8fcd0000 	lw	t5,0(s8)
80009880:	25ac0004 	addiu	t4,t5,4
80009884:	afcc0000 	sw	t4,0(s8)
80009888:	8eae0000 	lw	t6,0(s5)
8000988c:	11c00012 	beqz	t6,800098d8 <_wcsrtombs_r+0x128>
80009890:	26b50004 	addiu	s5,s5,4
80009894:	02d0782b 	sltu	t7,s6,s0
80009898:	55e0ffdc 	bnezl	t7,8000980c <_wcsrtombs_r+0x5c>
8000989c:	8fa40048 	lw	a0,72(sp)
800098a0:	02c01821 	move	v1,s6
800098a4:	8fbf0044 	lw	ra,68(sp)
800098a8:	8fbe0040 	lw	s8,64(sp)
800098ac:	8fb7003c 	lw	s7,60(sp)
800098b0:	8fb60038 	lw	s6,56(sp)
800098b4:	8fb50034 	lw	s5,52(sp)
800098b8:	8fb40030 	lw	s4,48(sp)
800098bc:	8fb3002c 	lw	s3,44(sp)
800098c0:	8fb20028 	lw	s2,40(sp)
800098c4:	8fb10024 	lw	s1,36(sp)
800098c8:	8fb00020 	lw	s0,32(sp)
800098cc:	00601021 	move	v0,v1
800098d0:	03e00008 	jr	ra
800098d4:	27bd0048 	addiu	sp,sp,72
800098d8:	56e00001 	bnezl	s7,800098e0 <_wcsrtombs_r+0x130>
800098dc:	afc00000 	sw	zero,0(s8)
800098e0:	26c3ffff 	addiu	v1,s6,-1
800098e4:	08002629 	j	800098a4 <_wcsrtombs_r+0xf4>
800098e8:	ae800000 	sw	zero,0(s4)
800098ec:	ae930004 	sw	s3,4(s4)
800098f0:	08002625 	j	80009894 <_wcsrtombs_r+0xe4>
800098f4:	00008021 	move	s0,zero
800098f8:	8fa50048 	lw	a1,72(sp)
800098fc:	2404008a 	li	a0,138
80009900:	2403ffff 	li	v1,-1
80009904:	08002639 	j	800098e4 <_wcsrtombs_r+0x134>
80009908:	aca40000 	sw	a0,0(a1)

8000990c <wcsrtombs>:
8000990c:	3c098001 	lui	t1,0x8001
80009910:	00801821 	move	v1,a0
80009914:	8d24e348 	lw	a0,-7352(t1)
80009918:	00c04021 	move	t0,a2
8000991c:	00a01021 	move	v0,a1
80009920:	27bdffe0 	addiu	sp,sp,-32
80009924:	00e05021 	move	t2,a3
80009928:	00602821 	move	a1,v1
8000992c:	00403021 	move	a2,v0
80009930:	01003821 	move	a3,t0
80009934:	afbf0018 	sw	ra,24(sp)
80009938:	0c0025ec 	jal	800097b0 <_wcsrtombs_r>
8000993c:	afaa0010 	sw	t2,16(sp)
80009940:	8fbf0018 	lw	ra,24(sp)
80009944:	03e00008 	jr	ra
80009948:	27bd0020 	addiu	sp,sp,32
8000994c:	00000000 	nop

80009950 <_wctomb_r>:
80009950:	27bdffd8 	addiu	sp,sp,-40
80009954:	3c038001 	lui	v1,0x8001
80009958:	afb00010 	sw	s0,16(sp)
8000995c:	2470e944 	addiu	s0,v1,-5820
80009960:	02002021 	move	a0,s0
80009964:	afb3001c 	sw	s3,28(sp)
80009968:	afb20018 	sw	s2,24(sp)
8000996c:	afb10014 	sw	s1,20(sp)
80009970:	afbf0020 	sw	ra,32(sp)
80009974:	00a08821 	move	s1,a1
80009978:	00c09021 	move	s2,a2
8000997c:	0c00104c 	jal	80004130 <strlen>
80009980:	00e09821 	move	s3,a3
80009984:	2c430002 	sltiu	v1,v0,2
80009988:	1060000d 	beqz	v1,800099c0 <_wctomb_r+0x70>
8000998c:	3c028001 	lui	v0,0x8001
80009990:	12200003 	beqz	s1,800099a0 <_wctomb_r+0x50>
80009994:	00003821 	move	a3,zero
80009998:	a2320000 	sb	s2,0(s1)
8000999c:	24070001 	li	a3,1
800099a0:	8fbf0020 	lw	ra,32(sp)
800099a4:	8fb3001c 	lw	s3,28(sp)
800099a8:	8fb20018 	lw	s2,24(sp)
800099ac:	8fb10014 	lw	s1,20(sp)
800099b0:	8fb00010 	lw	s0,16(sp)
800099b4:	00e01021 	move	v0,a3
800099b8:	03e00008 	jr	ra
800099bc:	27bd0028 	addiu	sp,sp,40
800099c0:	2445f460 	addiu	a1,v0,-2976
800099c4:	0c001008 	jal	80004020 <strcmp>
800099c8:	02002021 	move	a0,s0
800099cc:	1440008c 	bnez	v0,80009c00 <_wctomb_r+0x2b0>
800099d0:	3c038001 	lui	v1,0x8001
800099d4:	1220fff2 	beqz	s1,800099a0 <_wctomb_r+0x50>
800099d8:	00003821 	move	a3,zero
800099dc:	2a440080 	slti	a0,s2,128
800099e0:	10800004 	beqz	a0,800099f4 <_wctomb_r+0xa4>
800099e4:	2646ff80 	addiu	a2,s2,-128
800099e8:	24070001 	li	a3,1
800099ec:	08002668 	j	800099a0 <_wctomb_r+0x50>
800099f0:	a2320000 	sb	s2,0(s1)
800099f4:	2cc50780 	sltiu	a1,a2,1920
800099f8:	10a0000c 	beqz	a1,80009a2c <_wctomb_r+0xdc>
800099fc:	264ff800 	addiu	t7,s2,-2048
80009a00:	324c07c0 	andi	t4,s2,0x7c0
80009a04:	3247003f 	andi	a3,s2,0x3f
80009a08:	000c5183 	sra	t2,t4,0x6
80009a0c:	240bffc0 	li	t3,-64
80009a10:	2409ff80 	li	t1,-128
80009a14:	00e94025 	or	t0,a3,t1
80009a18:	014b2025 	or	a0,t2,t3
80009a1c:	24070002 	li	a3,2
80009a20:	a2280001 	sb	t0,1(s1)
80009a24:	08002668 	j	800099a0 <_wctomb_r+0x50>
80009a28:	a2240000 	sb	a0,0(s1)
80009a2c:	340ef7ff 	li	t6,0xf7ff
80009a30:	01cf682b 	sltu	t5,t6,t7
80009a34:	55a00016 	bnezl	t5,80009a90 <_wctomb_r+0x140>
80009a38:	3c0d001e 	lui	t5,0x1e
80009a3c:	3c19ffff 	lui	t9,0xffff
80009a40:	37382800 	ori	t8,t9,0x2800
80009a44:	02589821 	addu	s3,s2,t8
80009a48:	2e700800 	sltiu	s0,s3,2048
80009a4c:	1600ffd4 	bnez	s0,800099a0 <_wctomb_r+0x50>
80009a50:	2407ffff 	li	a3,-1
80009a54:	3242f000 	andi	v0,s2,0xf000
80009a58:	00022303 	sra	a0,v0,0xc
80009a5c:	32470fc0 	andi	a3,s2,0xfc0
80009a60:	2409ffe0 	li	t1,-32
80009a64:	00894025 	or	t0,a0,t1
80009a68:	00073183 	sra	a2,a3,0x6
80009a6c:	3245003f 	andi	a1,s2,0x3f
80009a70:	2412ff80 	li	s2,-128
80009a74:	a2280000 	sb	t0,0(s1)
80009a78:	00b21025 	or	v0,a1,s2
80009a7c:	00d22025 	or	a0,a2,s2
80009a80:	26310001 	addiu	s1,s1,1
80009a84:	24070003 	li	a3,3
80009a88:	08002689 	j	80009a24 <_wctomb_r+0xd4>
80009a8c:	a2220001 	sb	v0,1(s1)
80009a90:	3c03ffff 	lui	v1,0xffff
80009a94:	02436021 	addu	t4,s2,v1
80009a98:	35abffff 	ori	t3,t5,0xffff
80009a9c:	016c502b 	sltu	t2,t3,t4
80009aa0:	15400016 	bnez	t2,80009afc <_wctomb_r+0x1ac>
80009aa4:	3c0f03df 	lui	t7,0x3df
80009aa8:	32470fc0 	andi	a3,s2,0xfc0
80009aac:	00121482 	srl	v0,s2,0x12
80009ab0:	00125302 	srl	t2,s2,0xc
80009ab4:	2419ff80 	li	t9,-128
80009ab8:	0007c183 	sra	t8,a3,0x6
80009abc:	26330001 	addiu	s3,s1,1
80009ac0:	30440007 	andi	a0,v0,0x7
80009ac4:	240bfff0 	li	t3,-16
80009ac8:	3145003f 	andi	a1,t2,0x3f
80009acc:	3246003f 	andi	a2,s2,0x3f
80009ad0:	266e0001 	addiu	t6,s3,1
80009ad4:	008b4825 	or	t1,a0,t3
80009ad8:	00b94025 	or	t0,a1,t9
80009adc:	00d98025 	or	s0,a2,t9
80009ae0:	03197825 	or	t7,t8,t9
80009ae4:	24070004 	li	a3,4
80009ae8:	a2290000 	sb	t1,0(s1)
80009aec:	a2680000 	sb	t0,0(s3)
80009af0:	a1d00001 	sb	s0,1(t6)
80009af4:	08002668 	j	800099a0 <_wctomb_r+0x50>
80009af8:	a1cf0000 	sb	t7,0(t6)
80009afc:	3c03ffe0 	lui	v1,0xffe0
80009b00:	02437021 	addu	t6,s2,v1
80009b04:	35edffff 	ori	t5,t7,0xffff
80009b08:	01ae602b 	sltu	t4,t5,t6
80009b0c:	1580001b 	bnez	t4,80009b7c <_wctomb_r+0x22c>
80009b10:	3c1003ff 	lui	s0,0x3ff
80009b14:	00121602 	srl	v0,s2,0x18
80009b18:	26280001 	addiu	t0,s1,1
80009b1c:	32470fc0 	andi	a3,s2,0xfc0
80009b20:	00126c82 	srl	t5,s2,0x12
80009b24:	00125b02 	srl	t3,s2,0xc
80009b28:	30440003 	andi	a0,v0,0x3
80009b2c:	240efff8 	li	t6,-8
80009b30:	2418ff80 	li	t8,-128
80009b34:	00079983 	sra	s3,a3,0x6
80009b38:	25100001 	addiu	s0,t0,1
80009b3c:	008e6025 	or	t4,a0,t6
80009b40:	31a5003f 	andi	a1,t5,0x3f
80009b44:	3169003f 	andi	t1,t3,0x3f
80009b48:	3259003f 	andi	t9,s2,0x3f
80009b4c:	a22c0000 	sb	t4,0(s1)
80009b50:	00b85025 	or	t2,a1,t8
80009b54:	01383025 	or	a2,t1,t8
80009b58:	03389025 	or	s2,t9,t8
80009b5c:	26110001 	addiu	s1,s0,1
80009b60:	02781825 	or	v1,s3,t8
80009b64:	24070005 	li	a3,5
80009b68:	a10a0000 	sb	t2,0(t0)
80009b6c:	a2060000 	sb	a2,0(s0)
80009b70:	a2320001 	sb	s2,1(s1)
80009b74:	08002668 	j	800099a0 <_wctomb_r+0x50>
80009b78:	a2230000 	sb	v1,0(s1)
80009b7c:	3603ffff 	ori	v1,s0,0xffff
80009b80:	0072782a 	slt	t7,v1,s2
80009b84:	51e0ff86 	beqzl	t7,800099a0 <_wctomb_r+0x50>
80009b88:	2407ffff 	li	a3,-1
80009b8c:	0012c782 	srl	t8,s2,0x1e
80009b90:	262b0001 	addiu	t3,s1,1
80009b94:	00128602 	srl	s0,s2,0x18
80009b98:	00127482 	srl	t6,s2,0x12
80009b9c:	00122b02 	srl	a1,s2,0xc
80009ba0:	33040001 	andi	a0,t8,0x1
80009ba4:	32470fc0 	andi	a3,s2,0xfc0
80009ba8:	2418ff80 	li	t8,-128
80009bac:	2413fffc 	li	s3,-4
80009bb0:	3202003f 	andi	v0,s0,0x3f
80009bb4:	25680001 	addiu	t0,t3,1
80009bb8:	31cc003f 	andi	t4,t6,0x3f
80009bbc:	30a9003f 	andi	t1,a1,0x3f
80009bc0:	00937825 	or	t7,a0,s3
80009bc4:	00586825 	or	t5,v0,t8
80009bc8:	00079983 	sra	s3,a3,0x6
80009bcc:	3259003f 	andi	t9,s2,0x3f
80009bd0:	01985025 	or	t2,t4,t8
80009bd4:	25120001 	addiu	s2,t0,1
80009bd8:	01383025 	or	a2,t1,t8
80009bdc:	a22f0000 	sb	t7,0(s1)
80009be0:	03381025 	or	v0,t9,t8
80009be4:	a16d0000 	sb	t5,0(t3)
80009be8:	02782025 	or	a0,s3,t8
80009bec:	a10a0000 	sb	t2,0(t0)
80009bf0:	26510001 	addiu	s1,s2,1
80009bf4:	a2460000 	sb	a2,0(s2)
80009bf8:	080026a2 	j	80009a88 <_wctomb_r+0x138>
80009bfc:	24070006 	li	a3,6
80009c00:	2465f468 	addiu	a1,v1,-2968
80009c04:	0c001008 	jal	80004020 <strcmp>
80009c08:	02002021 	move	a0,s0
80009c0c:	1440001c 	bnez	v0,80009c80 <_wctomb_r+0x330>
80009c10:	0012ca03 	sra	t9,s2,0x8
80009c14:	332300ff 	andi	v1,t9,0xff
80009c18:	324400ff 	andi	a0,s2,0xff
80009c1c:	1220ff60 	beqz	s1,800099a0 <_wctomb_r+0x50>
80009c20:	00003821 	move	a3,zero
80009c24:	1060ff5a 	beqz	v1,80009990 <_wctomb_r+0x40>
80009c28:	2468007f 	addiu	t0,v1,127
80009c2c:	310600ff 	andi	a2,t0,0xff
80009c30:	2cd2001f 	sltiu	s2,a2,31
80009c34:	16400007 	bnez	s2,80009c54 <_wctomb_r+0x304>
80009c38:	2485ffc0 	addiu	a1,a0,-64
80009c3c:	246a0020 	addiu	t2,v1,32
80009c40:	314900ff 	andi	t1,t2,0xff
80009c44:	2d270010 	sltiu	a3,t1,16
80009c48:	10e0ff55 	beqz	a3,800099a0 <_wctomb_r+0x50>
80009c4c:	2407ffff 	li	a3,-1
80009c50:	2485ffc0 	addiu	a1,a0,-64
80009c54:	2cab003f 	sltiu	t3,a1,63
80009c58:	15600007 	bnez	t3,80009c78 <_wctomb_r+0x328>
80009c5c:	24070002 	li	a3,2
80009c60:	248dff80 	addiu	t5,a0,-128
80009c64:	31ac00ff 	andi	t4,t5,0xff
80009c68:	2d82007d 	sltiu	v0,t4,125
80009c6c:	5040ff4c 	beqzl	v0,800099a0 <_wctomb_r+0x50>
80009c70:	2407ffff 	li	a3,-1
80009c74:	24070002 	li	a3,2
80009c78:	080026dd 	j	80009b74 <_wctomb_r+0x224>
80009c7c:	a2240001 	sb	a0,1(s1)
80009c80:	3c0e8001 	lui	t6,0x8001
80009c84:	25c5f470 	addiu	a1,t6,-2960
80009c88:	0c001008 	jal	80004020 <strcmp>
80009c8c:	02002021 	move	a0,s0
80009c90:	1440000f 	bnez	v0,80009cd0 <_wctomb_r+0x380>
80009c94:	00127a03 	sra	t7,s2,0x8
80009c98:	31e300ff 	andi	v1,t7,0xff
80009c9c:	324400ff 	andi	a0,s2,0xff
80009ca0:	1220ff3f 	beqz	s1,800099a0 <_wctomb_r+0x50>
80009ca4:	00003821 	move	a3,zero
80009ca8:	1060ff39 	beqz	v1,80009990 <_wctomb_r+0x40>
80009cac:	2478005f 	addiu	t8,v1,95
80009cb0:	331300ff 	andi	s3,t8,0xff
80009cb4:	2e70005e 	sltiu	s0,s3,94
80009cb8:	1200ff39 	beqz	s0,800099a0 <_wctomb_r+0x50>
80009cbc:	2407ffff 	li	a3,-1
80009cc0:	2492005f 	addiu	s2,a0,95
80009cc4:	325900ff 	andi	t9,s2,0xff
80009cc8:	0800271b 	j	80009c6c <_wctomb_r+0x31c>
80009ccc:	2f22005e 	sltiu	v0,t9,94
80009cd0:	3c028001 	lui	v0,0x8001
80009cd4:	02002021 	move	a0,s0
80009cd8:	0c001008 	jal	80004020 <strcmp>
80009cdc:	2445f478 	addiu	a1,v0,-2952
80009ce0:	1440ff2b 	bnez	v0,80009990 <_wctomb_r+0x40>
80009ce4:	00122203 	sra	a0,s2,0x8
80009ce8:	308800ff 	andi	t0,a0,0xff
80009cec:	00001821 	move	v1,zero
80009cf0:	324400ff 	andi	a0,s2,0xff
80009cf4:	1220ff2a 	beqz	s1,800099a0 <_wctomb_r+0x50>
80009cf8:	24070001 	li	a3,1
80009cfc:	5100001c 	beqzl	t0,80009d70 <_wctomb_r+0x420>
80009d00:	8e680000 	lw	t0,0(s3)
80009d04:	2507ffdf 	addiu	a3,t0,-33
80009d08:	2ce6005e 	sltiu	a2,a3,94
80009d0c:	10c0ff24 	beqz	a2,800099a0 <_wctomb_r+0x50>
80009d10:	2407ffff 	li	a3,-1
80009d14:	248affdf 	addiu	t2,a0,-33
80009d18:	2d49005e 	sltiu	t1,t2,94
80009d1c:	1120ff21 	beqz	t1,800099a4 <_wctomb_r+0x54>
80009d20:	8fbf0020 	lw	ra,32(sp)
80009d24:	8e6b0000 	lw	t3,0(s3)
80009d28:	5560000e 	bnezl	t3,80009d64 <_wctomb_r+0x414>
80009d2c:	24670002 	addiu	a3,v1,2
80009d30:	262c0001 	addiu	t4,s1,1
80009d34:	25850001 	addiu	a1,t4,1
80009d38:	24030042 	li	v1,66
80009d3c:	240f0001 	li	t7,1
80009d40:	240e001b 	li	t6,27
80009d44:	240d0024 	li	t5,36
80009d48:	ae6f0000 	sw	t7,0(s3)
80009d4c:	a22e0000 	sb	t6,0(s1)
80009d50:	a18d0000 	sb	t5,0(t4)
80009d54:	24b10001 	addiu	s1,a1,1
80009d58:	a0a30000 	sb	v1,0(a1)
80009d5c:	24030003 	li	v1,3
80009d60:	24670002 	addiu	a3,v1,2
80009d64:	a2240001 	sb	a0,1(s1)
80009d68:	08002668 	j	800099a0 <_wctomb_r+0x50>
80009d6c:	a2280000 	sb	t0,0(s1)
80009d70:	5100ff2c 	beqzl	t0,80009a24 <_wctomb_r+0xd4>
80009d74:	24670001 	addiu	a3,v1,1
80009d78:	26380001 	addiu	t8,s1,1
80009d7c:	ae600000 	sw	zero,0(s3)
80009d80:	27100001 	addiu	s0,t8,1
80009d84:	2412001b 	li	s2,27
80009d88:	24190028 	li	t9,40
80009d8c:	24130042 	li	s3,66
80009d90:	a2320000 	sb	s2,0(s1)
80009d94:	24030003 	li	v1,3
80009d98:	a3190000 	sb	t9,0(t8)
80009d9c:	26110001 	addiu	s1,s0,1
80009da0:	a2130000 	sb	s3,0(s0)
80009da4:	08002689 	j	80009a24 <_wctomb_r+0xd4>
80009da8:	24670001 	addiu	a3,v1,1
80009dac:	00000000 	nop

80009db0 <_write_r>:
80009db0:	27bdffe0 	addiu	sp,sp,-32
80009db4:	00a04021 	move	t0,a1
80009db8:	afb10014 	sw	s1,20(sp)
80009dbc:	00c02821 	move	a1,a2
80009dc0:	afb00010 	sw	s0,16(sp)
80009dc4:	00e03021 	move	a2,a3
80009dc8:	00808821 	move	s1,a0
80009dcc:	3c108001 	lui	s0,0x8001
80009dd0:	01002021 	move	a0,t0
80009dd4:	afbf0018 	sw	ra,24(sp)
80009dd8:	0c0036d8 	jal	8000db60 <write>
80009ddc:	ae00f708 	sw	zero,-2296(s0)
80009de0:	2405ffff 	li	a1,-1
80009de4:	10450006 	beq	v0,a1,80009e00 <_write_r+0x50>
80009de8:	8e03f708 	lw	v1,-2296(s0)
80009dec:	8fbf0018 	lw	ra,24(sp)
80009df0:	8fb10014 	lw	s1,20(sp)
80009df4:	8fb00010 	lw	s0,16(sp)
80009df8:	03e00008 	jr	ra
80009dfc:	27bd0020 	addiu	sp,sp,32
80009e00:	5460fffa 	bnezl	v1,80009dec <_write_r+0x3c>
80009e04:	ae230000 	sw	v1,0(s1)
80009e08:	0800277c 	j	80009df0 <_write_r+0x40>
80009e0c:	8fbf0018 	lw	ra,24(sp)

80009e10 <__swsetup>:
80009e10:	3c058001 	lui	a1,0x8001
80009e14:	8ca3e348 	lw	v1,-7352(a1)
80009e18:	27bdffe8 	addiu	sp,sp,-24
80009e1c:	afb00010 	sw	s0,16(sp)
80009e20:	afbf0014 	sw	ra,20(sp)
80009e24:	10600004 	beqz	v1,80009e38 <__swsetup+0x28>
80009e28:	00808021 	move	s0,a0
80009e2c:	8c640038 	lw	a0,56(v1)
80009e30:	10800038 	beqz	a0,80009f14 <__swsetup+0x104>
80009e34:	00000000 	nop
80009e38:	9603000c 	lhu	v1,12(s0)
80009e3c:	30650008 	andi	a1,v1,0x8
80009e40:	54a0001b 	bnezl	a1,80009eb0 <__swsetup+0xa0>
80009e44:	8e040010 	lw	a0,16(s0)
80009e48:	30660010 	andi	a2,v1,0x10
80009e4c:	10c00023 	beqz	a2,80009edc <__swsetup+0xcc>
80009e50:	2404ffff 	li	a0,-1
80009e54:	30670004 	andi	a3,v1,0x4
80009e58:	50e00013 	beqzl	a3,80009ea8 <__swsetup+0x98>
80009e5c:	8e040010 	lw	a0,16(s0)
80009e60:	8e050030 	lw	a1,48(s0)
80009e64:	50a0000a 	beqzl	a1,80009e90 <__swsetup+0x80>
80009e68:	8e040010 	lw	a0,16(s0)
80009e6c:	26080040 	addiu	t0,s0,64
80009e70:	50a80006 	beql	a1,t0,80009e8c <__swsetup+0x7c>
80009e74:	ae000030 	sw	zero,48(s0)
80009e78:	3c038001 	lui	v1,0x8001
80009e7c:	0c0003d4 	jal	80000f50 <_free_r>
80009e80:	8c64e348 	lw	a0,-7352(v1)
80009e84:	9603000c 	lhu	v1,12(s0)
80009e88:	ae000030 	sw	zero,48(s0)
80009e8c:	8e040010 	lw	a0,16(s0)
80009e90:	240affdb 	li	t2,-37
80009e94:	006a4824 	and	t1,v1,t2
80009e98:	01201821 	move	v1,t1
80009e9c:	a609000c 	sh	t1,12(s0)
80009ea0:	ae000004 	sw	zero,4(s0)
80009ea4:	ae040000 	sw	a0,0(s0)
80009ea8:	346b0008 	ori	t3,v1,0x8
80009eac:	a60b000c 	sh	t3,12(s0)
80009eb0:	10800014 	beqz	a0,80009f04 <__swsetup+0xf4>
80009eb4:	00000000 	nop
80009eb8:	9603000c 	lhu	v1,12(s0)
80009ebc:	306c0001 	andi	t4,v1,0x1
80009ec0:	1180000b 	beqz	t4,80009ef0 <__swsetup+0xe0>
80009ec4:	306f0002 	andi	t7,v1,0x2
80009ec8:	8e0e0014 	lw	t6,20(s0)
80009ecc:	ae000008 	sw	zero,8(s0)
80009ed0:	000e6823 	negu	t5,t6
80009ed4:	ae0d0018 	sw	t5,24(s0)
80009ed8:	00002021 	move	a0,zero
80009edc:	8fbf0014 	lw	ra,20(sp)
80009ee0:	8fb00010 	lw	s0,16(sp)
80009ee4:	00801021 	move	v0,a0
80009ee8:	03e00008 	jr	ra
80009eec:	27bd0018 	addiu	sp,sp,24
80009ef0:	15e00002 	bnez	t7,80009efc <__swsetup+0xec>
80009ef4:	00001821 	move	v1,zero
80009ef8:	8e030014 	lw	v1,20(s0)
80009efc:	080027b6 	j	80009ed8 <__swsetup+0xc8>
80009f00:	ae030008 	sw	v1,8(s0)
80009f04:	0c002e54 	jal	8000b950 <__smakebuf>
80009f08:	02002021 	move	a0,s0
80009f0c:	080027af 	j	80009ebc <__swsetup+0xac>
80009f10:	9603000c 	lhu	v1,12(s0)
80009f14:	0c0015df 	jal	8000577c <__sinit>
80009f18:	00602021 	move	a0,v1
80009f1c:	0800278f 	j	80009e3c <__swsetup+0x2c>
80009f20:	9603000c 	lhu	v1,12(s0)
	...

80009f30 <_close_r>:
80009f30:	27bdffe0 	addiu	sp,sp,-32
80009f34:	afb10014 	sw	s1,20(sp)
80009f38:	afb00010 	sw	s0,16(sp)
80009f3c:	00808821 	move	s1,a0
80009f40:	3c108001 	lui	s0,0x8001
80009f44:	00a02021 	move	a0,a1
80009f48:	afbf0018 	sw	ra,24(sp)
80009f4c:	0c0036f4 	jal	8000dbd0 <close>
80009f50:	ae00f708 	sw	zero,-2296(s0)
80009f54:	2405ffff 	li	a1,-1
80009f58:	10450006 	beq	v0,a1,80009f74 <_close_r+0x44>
80009f5c:	8e03f708 	lw	v1,-2296(s0)
80009f60:	8fbf0018 	lw	ra,24(sp)
80009f64:	8fb10014 	lw	s1,20(sp)
80009f68:	8fb00010 	lw	s0,16(sp)
80009f6c:	03e00008 	jr	ra
80009f70:	27bd0020 	addiu	sp,sp,32
80009f74:	5460fffa 	bnezl	v1,80009f60 <_close_r+0x30>
80009f78:	ae230000 	sw	v1,0(s1)
80009f7c:	080027d9 	j	80009f64 <_close_r+0x34>
80009f80:	8fbf0018 	lw	ra,24(sp)
	...

80009f90 <_dtoa_r>:
80009f90:	27bdff80 	addiu	sp,sp,-128
80009f94:	afb30064 	sw	s3,100(sp)
80009f98:	afb20060 	sw	s2,96(sp)
80009f9c:	afb00058 	sw	s0,88(sp)
80009fa0:	afbf007c 	sw	ra,124(sp)
80009fa4:	afbe0078 	sw	s8,120(sp)
80009fa8:	afb70074 	sw	s7,116(sp)
80009fac:	afb60070 	sw	s6,112(sp)
80009fb0:	afb5006c 	sw	s5,108(sp)
80009fb4:	afb40068 	sw	s4,104(sp)
80009fb8:	afb1005c 	sw	s1,92(sp)
80009fbc:	8c880040 	lw	t0,64(a0)
80009fc0:	afa40080 	sw	a0,128(sp)
80009fc4:	00c09021 	move	s2,a2
80009fc8:	00e09821 	move	s3,a3
80009fcc:	8fb0009c 	lw	s0,156(sp)
80009fd0:	15000419 	bnez	t0,8000b038 <_dtoa_r+0x10a8>
80009fd4:	afa00044 	sw	zero,68(sp)
80009fd8:	06630006 	bgezl	s3,80009ff4 <_dtoa_r+0x64>
80009fdc:	ae000000 	sw	zero,0(s0)
80009fe0:	3c087fff 	lui	t0,0x7fff
80009fe4:	3505ffff 	ori	a1,t0,0xffff
80009fe8:	24040001 	li	a0,1
80009fec:	00b39824 	and	s3,a1,s3
80009ff0:	ae040000 	sw	a0,0(s0)
80009ff4:	3c0b7ff0 	lui	t3,0x7ff0
80009ff8:	026b6024 	and	t4,s3,t3
80009ffc:	118b03f8 	beq	t4,t3,8000afe0 <_dtoa_r+0x1050>
8000a000:	8fad0098 	lw	t5,152(sp)
8000a004:	44802000 	mtc1	zero,$f4
8000a008:	44802800 	mtc1	zero,$f5
8000a00c:	44920000 	mtc1	s2,$f0
8000a010:	44930800 	mtc1	s3,$f1
8000a014:	46240132 	c.eq.d	$fcc1,$f0,$f4
8000a018:	45040016 	bc1f	$fcc1,8000a074 <_dtoa_r+0xe4>
8000a01c:	8fb70098 	lw	s7,152(sp)
8000a020:	8fa400a0 	lw	a0,160(sp)
8000a024:	24060001 	li	a2,1
8000a028:	3c1e8001 	lui	s8,0x8001
8000a02c:	aee60000 	sw	a2,0(s7)
8000a030:	10800003 	beqz	a0,8000a040 <_dtoa_r+0xb0>
8000a034:	27d7f480 	addiu	s7,s8,-2944
8000a038:	26e70001 	addiu	a3,s7,1
8000a03c:	ac870000 	sw	a3,0(a0)
8000a040:	02e01021 	move	v0,s7
8000a044:	8fbf007c 	lw	ra,124(sp)
8000a048:	8fbe0078 	lw	s8,120(sp)
8000a04c:	8fb70074 	lw	s7,116(sp)
8000a050:	8fb60070 	lw	s6,112(sp)
8000a054:	8fb5006c 	lw	s5,108(sp)
8000a058:	8fb40068 	lw	s4,104(sp)
8000a05c:	8fb30064 	lw	s3,100(sp)
8000a060:	8fb20060 	lw	s2,96(sp)
8000a064:	8fb1005c 	lw	s1,92(sp)
8000a068:	8fb00058 	lw	s0,88(sp)
8000a06c:	03e00008 	jr	ra
8000a070:	27bd0080 	addiu	sp,sp,128
8000a074:	8fa40080 	lw	a0,128(sp)
8000a078:	27a30018 	addiu	v1,sp,24
8000a07c:	27a2001c 	addiu	v0,sp,28
8000a080:	02403021 	move	a2,s2
8000a084:	02603821 	move	a3,s3
8000a088:	afa30010 	sw	v1,16(sp)
8000a08c:	0c0031ea 	jal	8000c7a8 <_d2b>
8000a090:	afa20014 	sw	v0,20(sp)
8000a094:	00134d02 	srl	t1,s3,0x14
8000a098:	313407ff 	andi	s4,t1,0x7ff
8000a09c:	128003b2 	beqz	s4,8000af68 <_dtoa_r+0xfd8>
8000a0a0:	0040f021 	move	s8,v0
8000a0a4:	3c04000f 	lui	a0,0xf
8000a0a8:	348bffff 	ori	t3,a0,0xffff
8000a0ac:	8fa4001c 	lw	a0,28(sp)
8000a0b0:	01735024 	and	t2,t3,s3
8000a0b4:	3c053ff0 	lui	a1,0x3ff0
8000a0b8:	02403021 	move	a2,s2
8000a0bc:	00aa3825 	or	a3,a1,t2
8000a0c0:	2694fc01 	addiu	s4,s4,-1023
8000a0c4:	afa00040 	sw	zero,64(sp)
8000a0c8:	3c013ff8 	lui	at,0x3ff8
8000a0cc:	44814800 	mtc1	at,$f9
8000a0d0:	44804000 	mtc1	zero,$f8
8000a0d4:	44860000 	mtc1	a2,$f0
8000a0d8:	44870800 	mtc1	a3,$f1
8000a0dc:	3c018001 	lui	at,0x8001
8000a0e0:	d422f498 	ldc1	$f2,-2920(at)
8000a0e4:	46280481 	sub.d	$f18,$f0,$f8
8000a0e8:	3c018001 	lui	at,0x8001
8000a0ec:	d426f4a0 	ldc1	$f6,-2912(at)
8000a0f0:	44942000 	mtc1	s4,$f4
8000a0f4:	46802121 	cvt.d.w	$f4,$f4
8000a0f8:	3c018001 	lui	at,0x8001
8000a0fc:	d430f4a8 	ldc1	$f16,-2904(at)
8000a100:	46229382 	mul.d	$f14,$f18,$f2
8000a104:	46262282 	mul.d	$f10,$f4,$f6
8000a108:	44804000 	mtc1	zero,$f8
8000a10c:	44804800 	mtc1	zero,$f9
8000a110:	46307300 	add.d	$f12,$f14,$f16
8000a114:	462a6100 	add.d	$f4,$f12,$f10
8000a118:	4628223c 	c.lt.d	$fcc2,$f4,$f8
8000a11c:	4620200d 	trunc.w.d	$f0,$f4
8000a120:	e7a00030 	swc1	$f0,48(sp)
8000a124:	45080009 	bc1f	$fcc2,8000a14c <_dtoa_r+0x1bc>
8000a128:	8fa90030 	lw	t1,48(sp)
8000a12c:	8fb90030 	lw	t9,48(sp)
8000a130:	c7aa0030 	lwc1	$f10,48(sp)
8000a134:	468052a1 	cvt.d.w	$f10,$f10
8000a138:	462a2332 	c.eq.d	$fcc3,$f4,$f10
8000a13c:	2737ffff 	addiu	s7,t9,-1
8000a140:	02ecc801 	movf	t9,s7,$fcc3
8000a144:	afb90030 	sw	t9,48(sp)
8000a148:	8fa90030 	lw	t1,48(sp)
8000a14c:	24070001 	li	a3,1
8000a150:	2d260017 	sltiu	a2,t1,23
8000a154:	10c00010 	beqz	a2,8000a198 <_dtoa_r+0x208>
8000a158:	afa70034 	sw	a3,52(sp)
8000a15c:	8fab0030 	lw	t3,48(sp)
8000a160:	3c088001 	lui	t0,0x8001
8000a164:	2503f4e0 	addiu	v1,t0,-2848
8000a168:	000b28c0 	sll	a1,t3,0x3
8000a16c:	00a35021 	addu	t2,a1,v1
8000a170:	d54e0000 	ldc1	$f14,0(t2)
8000a174:	44926000 	mtc1	s2,$f12
8000a178:	44936800 	mtc1	s3,$f13
8000a17c:	462e643c 	c.lt.d	$fcc4,$f12,$f14
8000a180:	45120005 	bc1fl	$fcc4,8000a198 <_dtoa_r+0x208>
8000a184:	afa00034 	sw	zero,52(sp)
8000a188:	8fad0030 	lw	t5,48(sp)
8000a18c:	25acffff 	addiu	t4,t5,-1
8000a190:	afac0030 	sw	t4,48(sp)
8000a194:	afa00034 	sw	zero,52(sp)
8000a198:	00947023 	subu	t6,a0,s4
8000a19c:	25d0ffff 	addiu	s0,t6,-1
8000a1a0:	0600036e 	bltz	s0,8000af5c <_dtoa_r+0xfcc>
8000a1a4:	00101023 	negu	v0,s0
8000a1a8:	02008821 	move	s1,s0
8000a1ac:	afa00020 	sw	zero,32(sp)
8000a1b0:	8fa30030 	lw	v1,48(sp)
8000a1b4:	04600362 	bltz	v1,8000af40 <_dtoa_r+0xfb0>
8000a1b8:	8fb50020 	lw	s5,32(sp)
8000a1bc:	02238821 	addu	s1,s1,v1
8000a1c0:	afa00024 	sw	zero,36(sp)
8000a1c4:	afa3003c 	sw	v1,60(sp)
8000a1c8:	8fa40090 	lw	a0,144(sp)
8000a1cc:	24150001 	li	s5,1
8000a1d0:	2c98000a 	sltiu	t8,a0,10
8000a1d4:	0018200a 	movz	a0,zero,t8
8000a1d8:	28960006 	slti	s6,a0,6
8000a1dc:	16c00004 	bnez	s6,8000a1f0 <_dtoa_r+0x260>
8000a1e0:	afa40090 	sw	a0,144(sp)
8000a1e4:	2499fffc 	addiu	t9,a0,-4
8000a1e8:	afb90090 	sw	t9,144(sp)
8000a1ec:	0000a821 	move	s5,zero
8000a1f0:	8fa90090 	lw	t1,144(sp)
8000a1f4:	2406ffff 	li	a2,-1
8000a1f8:	24070001 	li	a3,1
8000a1fc:	2d370006 	sltiu	s7,t1,6
8000a200:	afa70038 	sw	a3,56(sp)
8000a204:	afa6002c 	sw	a2,44(sp)
8000a208:	12e0000b 	beqz	s7,8000a238 <_dtoa_r+0x2a8>
8000a20c:	afa60028 	sw	a2,40(sp)
8000a210:	8fa30090 	lw	v1,144(sp)
8000a214:	3c0b8001 	lui	t3,0x8001
8000a218:	2568f4b0 	addiu	t0,t3,-2896
8000a21c:	00032880 	sll	a1,v1,0x2
8000a220:	00a85021 	addu	t2,a1,t0
8000a224:	8d540000 	lw	s4,0(t2)
8000a228:	02800008 	jr	s4
8000a22c:	00000000 	nop
8000a230:	24140012 	li	s4,18
8000a234:	afa00094 	sw	zero,148(sp)
8000a238:	8fb80080 	lw	t8,128(sp)
8000a23c:	2e960018 	sltiu	s6,s4,24
8000a240:	24100004 	li	s0,4
8000a244:	16c00009 	bnez	s6,8000a26c <_dtoa_r+0x2dc>
8000a248:	af000044 	sw	zero,68(t8)
8000a24c:	00001821 	move	v1,zero
8000a250:	00108040 	sll	s0,s0,0x1
8000a254:	26170014 	addiu	s7,s0,20
8000a258:	0297c82b 	sltu	t9,s4,s7
8000a25c:	1320fffc 	beqz	t9,8000a250 <_dtoa_r+0x2c0>
8000a260:	24630001 	addiu	v1,v1,1
8000a264:	8fa60080 	lw	a2,128(sp)
8000a268:	acc30044 	sw	v1,68(a2)
8000a26c:	8fa80080 	lw	t0,128(sp)
8000a270:	8d050044 	lw	a1,68(t0)
8000a274:	0c002f30 	jal	8000bcc0 <_Balloc>
8000a278:	01002021 	move	a0,t0
8000a27c:	afa20050 	sw	v0,80(sp)
8000a280:	8faa0028 	lw	t2,40(sp)
8000a284:	8fa90050 	lw	t1,80(sp)
8000a288:	8fb40080 	lw	s4,128(sp)
8000a28c:	2d47000f 	sltiu	a3,t2,15
8000a290:	0120b821 	move	s7,t1
8000a294:	10e00066 	beqz	a3,8000a430 <_dtoa_r+0x4a0>
8000a298:	ae890040 	sw	t1,64(s4)
8000a29c:	12a00065 	beqz	s5,8000a434 <_dtoa_r+0x4a4>
8000a2a0:	8fa30018 	lw	v1,24(sp)
8000a2a4:	8fa90030 	lw	t1,48(sp)
8000a2a8:	02403021 	move	a2,s2
8000a2ac:	02603821 	move	a3,s3
8000a2b0:	8fa80028 	lw	t0,40(sp)
8000a2b4:	192002ed 	blez	t1,8000ae6c <_dtoa_r+0xedc>
8000a2b8:	24050002 	li	a1,2
8000a2bc:	3123000f 	andi	v1,t1,0xf
8000a2c0:	3c0e8001 	lui	t6,0x8001
8000a2c4:	000360c0 	sll	t4,v1,0x3
8000a2c8:	00098103 	sra	s0,t1,0x4
8000a2cc:	25cdf4e0 	addiu	t5,t6,-2848
8000a2d0:	018d5821 	addu	t3,t4,t5
8000a2d4:	32150010 	andi	s5,s0,0x10
8000a2d8:	12a0000a 	beqz	s5,8000a304 <_dtoa_r+0x374>
8000a2dc:	d5640000 	ldc1	$f4,0(t3)
8000a2e0:	3c018001 	lui	at,0x8001
8000a2e4:	d432f5c8 	ldc1	$f18,-2616(at)
8000a2e8:	44923000 	mtc1	s2,$f6
8000a2ec:	44933800 	mtc1	s3,$f7
8000a2f0:	3210000f 	andi	s0,s0,0xf
8000a2f4:	46323403 	div.d	$f16,$f6,$f18
8000a2f8:	24050003 	li	a1,3
8000a2fc:	44128000 	mfc1	s2,$f16
8000a300:	44138800 	mfc1	s3,$f17
8000a304:	1200000a 	beqz	s0,8000a330 <_dtoa_r+0x3a0>
8000a308:	3c048001 	lui	a0,0x8001
8000a30c:	2483f5a8 	addiu	v1,a0,-2648
8000a310:	320f0001 	andi	t7,s0,0x1
8000a314:	11e00004 	beqz	t7,8000a328 <_dtoa_r+0x398>
8000a318:	00108043 	sra	s0,s0,0x1
8000a31c:	d4620000 	ldc1	$f2,0(v1)
8000a320:	24a50001 	addiu	a1,a1,1
8000a324:	46222102 	mul.d	$f4,$f4,$f2
8000a328:	1600fff9 	bnez	s0,8000a310 <_dtoa_r+0x380>
8000a32c:	24630008 	addiu	v1,v1,8
8000a330:	44925000 	mtc1	s2,$f10
8000a334:	44935800 	mtc1	s3,$f11
8000a338:	46245203 	div.d	$f8,$f10,$f4
8000a33c:	44124000 	mfc1	s2,$f8
8000a340:	44134800 	mfc1	s3,$f9
8000a344:	8fac0034 	lw	t4,52(sp)
8000a348:	11800017 	beqz	t4,8000a3a8 <_dtoa_r+0x418>
8000a34c:	00000000 	nop
8000a350:	3c013ff0 	lui	at,0x3ff0
8000a354:	44813800 	mtc1	at,$f7
8000a358:	44803000 	mtc1	zero,$f6
8000a35c:	44921000 	mtc1	s2,$f2
8000a360:	44931800 	mtc1	s3,$f3
8000a364:	4626153c 	c.lt.d	$fcc5,$f2,$f6
8000a368:	4514000f 	bc1f	$fcc5,8000a3a8 <_dtoa_r+0x418>
8000a36c:	8fad0028 	lw	t5,40(sp)
8000a370:	19a0000d 	blez	t5,8000a3a8 <_dtoa_r+0x418>
8000a374:	8fa3002c 	lw	v1,44(sp)
8000a378:	18600028 	blez	v1,8000a41c <_dtoa_r+0x48c>
8000a37c:	8fb30030 	lw	s3,48(sp)
8000a380:	3c014024 	lui	at,0x4024
8000a384:	44815800 	mtc1	at,$f11
8000a388:	44805000 	mtc1	zero,$f10
8000a38c:	afa30028 	sw	v1,40(sp)
8000a390:	46225202 	mul.d	$f8,$f10,$f2
8000a394:	2672ffff 	addiu	s2,s3,-1
8000a398:	afb20030 	sw	s2,48(sp)
8000a39c:	24a50001 	addiu	a1,a1,1
8000a3a0:	44124000 	mfc1	s2,$f8
8000a3a4:	44134800 	mfc1	s3,$f9
8000a3a8:	44920000 	mtc1	s2,$f0
8000a3ac:	44930800 	mtc1	s3,$f1
8000a3b0:	44858000 	mtc1	a1,$f16
8000a3b4:	46808421 	cvt.d.w	$f16,$f16
8000a3b8:	46208302 	mul.d	$f12,$f16,$f0
8000a3bc:	3c01401c 	lui	at,0x401c
8000a3c0:	44817800 	mtc1	at,$f15
8000a3c4:	44807000 	mtc1	zero,$f14
8000a3c8:	8fae0028 	lw	t6,40(sp)
8000a3cc:	3c03fcc0 	lui	v1,0xfcc0
8000a3d0:	462e6100 	add.d	$f4,$f12,$f14
8000a3d4:	44042000 	mfc1	a0,$f4
8000a3d8:	44052800 	mfc1	a1,$f5
8000a3dc:	15c0023a 	bnez	t6,8000acc8 <_dtoa_r+0xd38>
8000a3e0:	00652821 	addu	a1,v1,a1
8000a3e4:	3c014014 	lui	at,0x4014
8000a3e8:	44813800 	mtc1	at,$f7
8000a3ec:	44803000 	mtc1	zero,$f6
8000a3f0:	44842000 	mtc1	a0,$f4
8000a3f4:	44852800 	mtc1	a1,$f5
8000a3f8:	afa00048 	sw	zero,72(sp)
8000a3fc:	46260481 	sub.d	$f18,$f0,$f6
8000a400:	4632263c 	c.lt.d	$fcc6,$f4,$f18
8000a404:	45190071 	bc1t	$fcc6,8000a5cc <_dtoa_r+0x63c>
8000a408:	afa0004c 	sw	zero,76(sp)
8000a40c:	46202087 	neg.d	$f2,$f4
8000a410:	4622973c 	c.lt.d	$fcc7,$f18,$f2
8000a414:	451d0087 	bc1t	$fcc7,8000a634 <_dtoa_r+0x6a4>
8000a418:	8fb50094 	lw	s5,148(sp)
8000a41c:	8fb70050 	lw	s7,80(sp)
8000a420:	00c09021 	move	s2,a2
8000a424:	00e09821 	move	s3,a3
8000a428:	afa90030 	sw	t1,48(sp)
8000a42c:	afa80028 	sw	t0,40(sp)
8000a430:	8fa30018 	lw	v1,24(sp)
8000a434:	04600082 	bltz	v1,8000a640 <_dtoa_r+0x6b0>
8000a438:	8fa40030 	lw	a0,48(sp)
8000a43c:	2886000f 	slti	a2,a0,15
8000a440:	50c00080 	beqzl	a2,8000a644 <_dtoa_r+0x6b4>
8000a444:	8fa60090 	lw	a2,144(sp)
8000a448:	3c188001 	lui	t8,0x8001
8000a44c:	8fa70094 	lw	a3,148(sp)
8000a450:	000440c0 	sll	t0,a0,0x3
8000a454:	2704f4e0 	addiu	a0,t8,-2848
8000a458:	01044821 	addu	t1,t0,a0
8000a45c:	d5240000 	ldc1	$f4,0(t1)
8000a460:	04e0004c 	bltz	a3,8000a594 <_dtoa_r+0x604>
8000a464:	8fa30028 	lw	v1,40(sp)
8000a468:	24140001 	li	s4,1
8000a46c:	44920000 	mtc1	s2,$f0
8000a470:	44930800 	mtc1	s3,$f1
8000a474:	46240283 	div.d	$f10,$f0,$f4
8000a478:	4620508d 	trunc.w.d	$f2,$f10
8000a47c:	44031000 	mfc1	v1,$f2
8000a480:	44834000 	mtc1	v1,$f8
8000a484:	46804221 	cvt.d.w	$f8,$f8
8000a488:	46244482 	mul.d	$f18,$f8,$f4
8000a48c:	246a0030 	addiu	t2,v1,48
8000a490:	a2ea0000 	sb	t2,0(s7)
8000a494:	8fb90028 	lw	t9,40(sp)
8000a498:	26f70001 	addiu	s7,s7,1
8000a49c:	12990019 	beq	s4,t9,8000a504 <_dtoa_r+0x574>
8000a4a0:	46320081 	sub.d	$f2,$f0,$f18
8000a4a4:	3c014024 	lui	at,0x4024
8000a4a8:	44818800 	mtc1	at,$f17
8000a4ac:	44808000 	mtc1	zero,$f16
8000a4b0:	44806000 	mtc1	zero,$f12
8000a4b4:	44806800 	mtc1	zero,$f13
8000a4b8:	46228382 	mul.d	$f14,$f16,$f2
8000a4bc:	462c7132 	c.eq.d	$fcc1,$f14,$f12
8000a4c0:	44127000 	mfc1	s2,$f14
8000a4c4:	44137800 	mfc1	s3,$f15
8000a4c8:	4504ffe8 	bc1f	$fcc1,8000a46c <_dtoa_r+0x4dc>
8000a4cc:	26940001 	addiu	s4,s4,1
8000a4d0:	8fa40080 	lw	a0,128(sp)
8000a4d4:	0c003245 	jal	8000c914 <_Bfree>
8000a4d8:	03c02821 	move	a1,s8
8000a4dc:	8fb90030 	lw	t9,48(sp)
8000a4e0:	a2e00000 	sb	zero,0(s7)
8000a4e4:	8fbe0098 	lw	s8,152(sp)
8000a4e8:	8fa400a0 	lw	a0,160(sp)
8000a4ec:	27380001 	addiu	t8,t9,1
8000a4f0:	10800002 	beqz	a0,8000a4fc <_dtoa_r+0x56c>
8000a4f4:	afd80000 	sw	t8,0(s8)
8000a4f8:	ac970000 	sw	s7,0(a0)
8000a4fc:	08002811 	j	8000a044 <_dtoa_r+0xb4>
8000a500:	8fa20050 	lw	v0,80(sp)
8000a504:	46221000 	add.d	$f0,$f2,$f2
8000a508:	4620263c 	c.lt.d	$fcc6,$f4,$f0
8000a50c:	451b0008 	bc1tl	$fcc6,8000a530 <_dtoa_r+0x5a0>
8000a510:	26f7ffff 	addiu	s7,s7,-1
8000a514:	46202732 	c.eq.d	$fcc7,$f4,$f0
8000a518:	451cffee 	bc1f	$fcc7,8000a4d4 <_dtoa_r+0x544>
8000a51c:	8fa40080 	lw	a0,128(sp)
8000a520:	30720001 	andi	s2,v1,0x1
8000a524:	1240ffeb 	beqz	s2,8000a4d4 <_dtoa_r+0x544>
8000a528:	00000000 	nop
8000a52c:	26f7ffff 	addiu	s7,s7,-1
8000a530:	82f40000 	lb	s4,0(s7)
8000a534:	24130039 	li	s3,57
8000a538:	12930005 	beq	s4,s3,8000a550 <_dtoa_r+0x5c0>
8000a53c:	92e40000 	lbu	a0,0(s7)
8000a540:	248b0001 	addiu	t3,a0,1
8000a544:	a2eb0000 	sb	t3,0(s7)
8000a548:	08002934 	j	8000a4d0 <_dtoa_r+0x540>
8000a54c:	26f70001 	addiu	s7,s7,1
8000a550:	24030039 	li	v1,57
8000a554:	8fb50050 	lw	s5,80(sp)
8000a558:	12f50007 	beq	s7,s5,8000a578 <_dtoa_r+0x5e8>
8000a55c:	8fae0030 	lw	t6,48(sp)
8000a560:	26f7ffff 	addiu	s7,s7,-1
8000a564:	82e50000 	lb	a1,0(s7)
8000a568:	10a3fffb 	beq	a1,v1,8000a558 <_dtoa_r+0x5c8>
8000a56c:	92e40000 	lbu	a0,0(s7)
8000a570:	08002951 	j	8000a544 <_dtoa_r+0x5b4>
8000a574:	248b0001 	addiu	t3,a0,1
8000a578:	8fac0050 	lw	t4,80(sp)
8000a57c:	240d0030 	li	t5,48
8000a580:	25c20001 	addiu	v0,t6,1
8000a584:	24040030 	li	a0,48
8000a588:	afa20030 	sw	v0,48(sp)
8000a58c:	08002950 	j	8000a540 <_dtoa_r+0x5b0>
8000a590:	a18d0000 	sb	t5,0(t4)
8000a594:	1c60ffb5 	bgtz	v1,8000a46c <_dtoa_r+0x4dc>
8000a598:	24140001 	li	s4,1
8000a59c:	afa00048 	sw	zero,72(sp)
8000a5a0:	04600023 	bltz	v1,8000a630 <_dtoa_r+0x6a0>
8000a5a4:	afa0004c 	sw	zero,76(sp)
8000a5a8:	3c014014 	lui	at,0x4014
8000a5ac:	44818800 	mtc1	at,$f17
8000a5b0:	44808000 	mtc1	zero,$f16
8000a5b4:	46302082 	mul.d	$f2,$f4,$f16
8000a5b8:	44922000 	mtc1	s2,$f4
8000a5bc:	44932800 	mtc1	s3,$f5
8000a5c0:	4622253e 	c.le.d	$fcc5,$f4,$f2
8000a5c4:	4515001b 	bc1t	$fcc5,8000a634 <_dtoa_r+0x6a4>
8000a5c8:	8fb50094 	lw	s5,148(sp)
8000a5cc:	8fad0030 	lw	t5,48(sp)
8000a5d0:	8fb00050 	lw	s0,80(sp)
8000a5d4:	240b0031 	li	t3,49
8000a5d8:	25ac0001 	addiu	t4,t5,1
8000a5dc:	26170001 	addiu	s7,s0,1
8000a5e0:	afac0030 	sw	t4,48(sp)
8000a5e4:	a20b0000 	sb	t3,0(s0)
8000a5e8:	8fa5004c 	lw	a1,76(sp)
8000a5ec:	0c003245 	jal	8000c914 <_Bfree>
8000a5f0:	8fa40080 	lw	a0,128(sp)
8000a5f4:	8fa20048 	lw	v0,72(sp)
8000a5f8:	1040ffb5 	beqz	v0,8000a4d0 <_dtoa_r+0x540>
8000a5fc:	8fa30044 	lw	v1,68(sp)
8000a600:	10600007 	beqz	v1,8000a620 <_dtoa_r+0x690>
8000a604:	8fa50048 	lw	a1,72(sp)
8000a608:	10620005 	beq	v1,v0,8000a620 <_dtoa_r+0x690>
8000a60c:	00000000 	nop
8000a610:	8fa40080 	lw	a0,128(sp)
8000a614:	0c003245 	jal	8000c914 <_Bfree>
8000a618:	00602821 	move	a1,v1
8000a61c:	8fa50048 	lw	a1,72(sp)
8000a620:	0c003245 	jal	8000c914 <_Bfree>
8000a624:	8fa40080 	lw	a0,128(sp)
8000a628:	08002935 	j	8000a4d4 <_dtoa_r+0x544>
8000a62c:	8fa40080 	lw	a0,128(sp)
8000a630:	8fb50094 	lw	s5,148(sp)
8000a634:	00159027 	nor	s2,zero,s5
8000a638:	0800297a 	j	8000a5e8 <_dtoa_r+0x658>
8000a63c:	afb20030 	sw	s2,48(sp)
8000a640:	8fa60090 	lw	a2,144(sp)
8000a644:	8faf0038 	lw	t7,56(sp)
8000a648:	8fb50020 	lw	s5,32(sp)
8000a64c:	28d00002 	slti	s0,a2,2
8000a650:	8fb60024 	lw	s6,36(sp)
8000a654:	afa00044 	sw	zero,68(sp)
8000a658:	afa00048 	sw	zero,72(sp)
8000a65c:	11e0001d 	beqz	t7,8000a6d4 <_dtoa_r+0x744>
8000a660:	afb00054 	sw	s0,84(sp)
8000a664:	8fa90090 	lw	t1,144(sp)
8000a668:	29270002 	slti	a3,t1,2
8000a66c:	14e0018f 	bnez	a3,8000acac <_dtoa_r+0xd1c>
8000a670:	8faa0024 	lw	t2,36(sp)
8000a674:	8fa30028 	lw	v1,40(sp)
8000a678:	2470ffff 	addiu	s0,v1,-1
8000a67c:	0150c82a 	slt	t9,t2,s0
8000a680:	13200009 	beqz	t9,8000a6a8 <_dtoa_r+0x718>
8000a684:	0150b023 	subu	s6,t2,s0
8000a688:	8fac0024 	lw	t4,36(sp)
8000a68c:	8fb4003c 	lw	s4,60(sp)
8000a690:	020c2823 	subu	a1,s0,t4
8000a694:	0285b021 	addu	s6,s4,a1
8000a698:	01855821 	addu	t3,t4,a1
8000a69c:	afb6003c 	sw	s6,60(sp)
8000a6a0:	afab0024 	sw	t3,36(sp)
8000a6a4:	0000b021 	move	s6,zero
8000a6a8:	8fb40028 	lw	s4,40(sp)
8000a6ac:	0680017c 	bltz	s4,8000aca0 <_dtoa_r+0xd10>
8000a6b0:	8fad0020 	lw	t5,32(sp)
8000a6b4:	8fa40080 	lw	a0,128(sp)
8000a6b8:	24050001 	li	a1,1
8000a6bc:	0c003298 	jal	8000ca60 <_i2b>
8000a6c0:	02348821 	addu	s1,s1,s4
8000a6c4:	8fae0020 	lw	t6,32(sp)
8000a6c8:	afa20048 	sw	v0,72(sp)
8000a6cc:	01d41021 	addu	v0,t6,s4
8000a6d0:	afa20020 	sw	v0,32(sp)
8000a6d4:	1aa0000b 	blez	s5,8000a704 <_dtoa_r+0x774>
8000a6d8:	8fa90024 	lw	t1,36(sp)
8000a6dc:	1a200009 	blez	s1,8000a704 <_dtoa_r+0x774>
8000a6e0:	8fa60020 	lw	a2,32(sp)
8000a6e4:	02b1382a 	slt	a3,s5,s1
8000a6e8:	02207821 	move	t7,s1
8000a6ec:	02a7780b 	movn	t7,s5,a3
8000a6f0:	00cf8023 	subu	s0,a2,t7
8000a6f4:	022f8823 	subu	s1,s1,t7
8000a6f8:	afb00020 	sw	s0,32(sp)
8000a6fc:	02afa823 	subu	s5,s5,t7
8000a700:	8fa90024 	lw	t1,36(sp)
8000a704:	19200016 	blez	t1,8000a760 <_dtoa_r+0x7d0>
8000a708:	8fa80038 	lw	t0,56(sp)
8000a70c:	11000162 	beqz	t0,8000ac98 <_dtoa_r+0xd08>
8000a710:	8fa60024 	lw	a2,36(sp)
8000a714:	1ac0000e 	blez	s6,8000a750 <_dtoa_r+0x7c0>
8000a718:	8fa40080 	lw	a0,128(sp)
8000a71c:	8fa50048 	lw	a1,72(sp)
8000a720:	0c003074 	jal	8000c1d0 <_pow5mult>
8000a724:	02c03021 	move	a2,s6
8000a728:	8fa40080 	lw	a0,128(sp)
8000a72c:	03c03021 	move	a2,s8
8000a730:	00402821 	move	a1,v0
8000a734:	0c002ff4 	jal	8000bfd0 <_multiply>
8000a738:	afa20048 	sw	v0,72(sp)
8000a73c:	8fa40080 	lw	a0,128(sp)
8000a740:	0040a021 	move	s4,v0
8000a744:	0c003245 	jal	8000c914 <_Bfree>
8000a748:	03c02821 	move	a1,s8
8000a74c:	0280f021 	move	s8,s4
8000a750:	8fa40024 	lw	a0,36(sp)
8000a754:	00968023 	subu	s0,a0,s6
8000a758:	1600014a 	bnez	s0,8000ac84 <_dtoa_r+0xcf4>
8000a75c:	03c02821 	move	a1,s8
8000a760:	8fa40080 	lw	a0,128(sp)
8000a764:	0c003298 	jal	8000ca60 <_i2b>
8000a768:	24050001 	li	a1,1
8000a76c:	8fa3003c 	lw	v1,60(sp)
8000a770:	18600006 	blez	v1,8000a78c <_dtoa_r+0x7fc>
8000a774:	afa2004c 	sw	v0,76(sp)
8000a778:	8fa40080 	lw	a0,128(sp)
8000a77c:	00402821 	move	a1,v0
8000a780:	0c003074 	jal	8000c1d0 <_pow5mult>
8000a784:	00603021 	move	a2,v1
8000a788:	afa2004c 	sw	v0,76(sp)
8000a78c:	8fb80054 	lw	t8,84(sp)
8000a790:	1300000f 	beqz	t8,8000a7d0 <_dtoa_r+0x840>
8000a794:	00008021 	move	s0,zero
8000a798:	1640000e 	bnez	s2,8000a7d4 <_dtoa_r+0x844>
8000a79c:	8fac003c 	lw	t4,60(sp)
8000a7a0:	3c03000f 	lui	v1,0xf
8000a7a4:	346affff 	ori	t2,v1,0xffff
8000a7a8:	026ac824 	and	t9,s3,t2
8000a7ac:	17200009 	bnez	t9,8000a7d4 <_dtoa_r+0x844>
8000a7b0:	3c057ff0 	lui	a1,0x7ff0
8000a7b4:	0265b024 	and	s6,s3,a1
8000a7b8:	12c00006 	beqz	s6,8000a7d4 <_dtoa_r+0x844>
8000a7bc:	8fab0020 	lw	t3,32(sp)
8000a7c0:	26310001 	addiu	s1,s1,1
8000a7c4:	24100001 	li	s0,1
8000a7c8:	25730001 	addiu	s3,t3,1
8000a7cc:	afb30020 	sw	s3,32(sp)
8000a7d0:	8fac003c 	lw	t4,60(sp)
8000a7d4:	15800124 	bnez	t4,8000ac68 <_dtoa_r+0xcd8>
8000a7d8:	8faf004c 	lw	t7,76(sp)
8000a7dc:	26220001 	addiu	v0,s1,1
8000a7e0:	3054001f 	andi	s4,v0,0x1f
8000a7e4:	12800004 	beqz	s4,8000a7f8 <_dtoa_r+0x868>
8000a7e8:	2a890005 	slti	t1,s4,5
8000a7ec:	24070020 	li	a3,32
8000a7f0:	00f4a023 	subu	s4,a3,s4
8000a7f4:	2a890005 	slti	t1,s4,5
8000a7f8:	15200113 	bnez	t1,8000ac48 <_dtoa_r+0xcb8>
8000a7fc:	2a980004 	slti	t8,s4,4
8000a800:	8fa40020 	lw	a0,32(sp)
8000a804:	2694fffc 	addiu	s4,s4,-4
8000a808:	02348821 	addu	s1,s1,s4
8000a80c:	00944021 	addu	t0,a0,s4
8000a810:	afa80020 	sw	t0,32(sp)
8000a814:	02b4a821 	addu	s5,s5,s4
8000a818:	8fa40020 	lw	a0,32(sp)
8000a81c:	18800005 	blez	a0,8000a834 <_dtoa_r+0x8a4>
8000a820:	00803021 	move	a2,a0
8000a824:	8fa40080 	lw	a0,128(sp)
8000a828:	0c0030c1 	jal	8000c304 <_lshift>
8000a82c:	03c02821 	move	a1,s8
8000a830:	0040f021 	move	s8,v0
8000a834:	1a200005 	blez	s1,8000a84c <_dtoa_r+0x8bc>
8000a838:	8fa5004c 	lw	a1,76(sp)
8000a83c:	8fa40080 	lw	a0,128(sp)
8000a840:	0c0030c1 	jal	8000c304 <_lshift>
8000a844:	02203021 	move	a2,s1
8000a848:	afa2004c 	sw	v0,76(sp)
8000a84c:	8fb10034 	lw	s1,52(sp)
8000a850:	162000e4 	bnez	s1,8000abe4 <_dtoa_r+0xc54>
8000a854:	8fa5004c 	lw	a1,76(sp)
8000a858:	8fa30028 	lw	v1,40(sp)
8000a85c:	186000d0 	blez	v1,8000aba0 <_dtoa_r+0xc10>
8000a860:	8fb30090 	lw	s3,144(sp)
8000a864:	8fae0038 	lw	t6,56(sp)
8000a868:	11c000bc 	beqz	t6,8000ab5c <_dtoa_r+0xbcc>
8000a86c:	24140001 	li	s4,1
8000a870:	1aa00005 	blez	s5,8000a888 <_dtoa_r+0x8f8>
8000a874:	8fa50048 	lw	a1,72(sp)
8000a878:	8fa40080 	lw	a0,128(sp)
8000a87c:	0c0030c1 	jal	8000c304 <_lshift>
8000a880:	02a03021 	move	a2,s5
8000a884:	afa20048 	sw	v0,72(sp)
8000a888:	8fa30048 	lw	v1,72(sp)
8000a88c:	160000a1 	bnez	s0,8000ab14 <_dtoa_r+0xb84>
8000a890:	afa30044 	sw	v1,68(sp)
8000a894:	24140001 	li	s4,1
8000a898:	8fa5004c 	lw	a1,76(sp)
8000a89c:	0c002c19 	jal	8000b064 <quorem>
8000a8a0:	03c02021 	move	a0,s8
8000a8a4:	8fa50044 	lw	a1,68(sp)
8000a8a8:	03c02021 	move	a0,s8
8000a8ac:	0c0032a5 	jal	8000ca94 <__mcmp>
8000a8b0:	24560030 	addiu	s6,v0,48
8000a8b4:	8fa40080 	lw	a0,128(sp)
8000a8b8:	8fa5004c 	lw	a1,76(sp)
8000a8bc:	8fa60048 	lw	a2,72(sp)
8000a8c0:	0c003112 	jal	8000c448 <__mdiff>
8000a8c4:	00408021 	move	s0,v0
8000a8c8:	8c48000c 	lw	t0,12(v0)
8000a8cc:	1100008c 	beqz	t0,8000ab00 <_dtoa_r+0xb70>
8000a8d0:	00408821 	move	s1,v0
8000a8d4:	24150001 	li	s5,1
8000a8d8:	8fa40080 	lw	a0,128(sp)
8000a8dc:	0c003245 	jal	8000c914 <_Bfree>
8000a8e0:	02202821 	move	a1,s1
8000a8e4:	16a00005 	bnez	s5,8000a8fc <_dtoa_r+0x96c>
8000a8e8:	8fa40090 	lw	a0,144(sp)
8000a8ec:	14800003 	bnez	a0,8000a8fc <_dtoa_r+0x96c>
8000a8f0:	32580001 	andi	t8,s2,0x1
8000a8f4:	1300007e 	beqz	t8,8000aaf0 <_dtoa_r+0xb60>
8000a8f8:	24190039 	li	t9,57
8000a8fc:	06000064 	bltz	s0,8000aa90 <_dtoa_r+0xb00>
8000a900:	00000000 	nop
8000a904:	16000005 	bnez	s0,8000a91c <_dtoa_r+0x98c>
8000a908:	8fa20090 	lw	v0,144(sp)
8000a90c:	14400003 	bnez	v0,8000a91c <_dtoa_r+0x98c>
8000a910:	324a0001 	andi	t2,s2,0x1
8000a914:	1140005e 	beqz	t2,8000aa90 <_dtoa_r+0xb00>
8000a918:	00000000 	nop
8000a91c:	1ea00054 	bgtz	s5,8000aa70 <_dtoa_r+0xae0>
8000a920:	24050039 	li	a1,57
8000a924:	a2f60000 	sb	s6,0(s7)
8000a928:	8fb30028 	lw	s3,40(sp)
8000a92c:	12930020 	beq	s4,s3,8000a9b0 <_dtoa_r+0xa20>
8000a930:	26f70001 	addiu	s7,s7,1
8000a934:	8fa40080 	lw	a0,128(sp)
8000a938:	03c02821 	move	a1,s8
8000a93c:	2406000a 	li	a2,10
8000a940:	0c002f5e 	jal	8000bd78 <_multadd>
8000a944:	00003821 	move	a3,zero
8000a948:	8fb50044 	lw	s5,68(sp)
8000a94c:	8fa40048 	lw	a0,72(sp)
8000a950:	12a4000f 	beq	s5,a0,8000a990 <_dtoa_r+0xa00>
8000a954:	0040f021 	move	s8,v0
8000a958:	8fa50044 	lw	a1,68(sp)
8000a95c:	8fa40080 	lw	a0,128(sp)
8000a960:	2406000a 	li	a2,10
8000a964:	0c002f5e 	jal	8000bd78 <_multadd>
8000a968:	00003821 	move	a3,zero
8000a96c:	8fa40080 	lw	a0,128(sp)
8000a970:	8fa50048 	lw	a1,72(sp)
8000a974:	2406000a 	li	a2,10
8000a978:	00003821 	move	a3,zero
8000a97c:	0c002f5e 	jal	8000bd78 <_multadd>
8000a980:	afa20044 	sw	v0,68(sp)
8000a984:	afa20048 	sw	v0,72(sp)
8000a988:	08002a26 	j	8000a898 <_dtoa_r+0x908>
8000a98c:	26940001 	addiu	s4,s4,1
8000a990:	00802821 	move	a1,a0
8000a994:	8fa40080 	lw	a0,128(sp)
8000a998:	2406000a 	li	a2,10
8000a99c:	0c002f5e 	jal	8000bd78 <_multadd>
8000a9a0:	00003821 	move	a3,zero
8000a9a4:	afa20048 	sw	v0,72(sp)
8000a9a8:	08002a62 	j	8000a988 <_dtoa_r+0x9f8>
8000a9ac:	afa20044 	sw	v0,68(sp)
8000a9b0:	8fa40080 	lw	a0,128(sp)
8000a9b4:	03c02821 	move	a1,s8
8000a9b8:	0c0030c1 	jal	8000c304 <_lshift>
8000a9bc:	24060001 	li	a2,1
8000a9c0:	8fa5004c 	lw	a1,76(sp)
8000a9c4:	00402021 	move	a0,v0
8000a9c8:	0c0032a5 	jal	8000ca94 <__mcmp>
8000a9cc:	0040f021 	move	s8,v0
8000a9d0:	1840001b 	blez	v0,8000aa40 <_dtoa_r+0xab0>
8000a9d4:	00000000 	nop
8000a9d8:	26f7ffff 	addiu	s7,s7,-1
8000a9dc:	82ee0000 	lb	t6,0(s7)
8000a9e0:	240d0039 	li	t5,57
8000a9e4:	11cd0005 	beq	t6,t5,8000a9fc <_dtoa_r+0xa6c>
8000a9e8:	92e40000 	lbu	a0,0(s7)
8000a9ec:	24820001 	addiu	v0,a0,1
8000a9f0:	a2e20000 	sb	v0,0(s7)
8000a9f4:	0800297a 	j	8000a5e8 <_dtoa_r+0x658>
8000a9f8:	26f70001 	addiu	s7,s7,1
8000a9fc:	24030039 	li	v1,57
8000aa00:	8faf0050 	lw	t7,80(sp)
8000aa04:	12ef0007 	beq	s7,t7,8000aa24 <_dtoa_r+0xa94>
8000aa08:	8fa80030 	lw	t0,48(sp)
8000aa0c:	26f7ffff 	addiu	s7,s7,-1
8000aa10:	82e70000 	lb	a3,0(s7)
8000aa14:	10e3fffb 	beq	a3,v1,8000aa04 <_dtoa_r+0xa74>
8000aa18:	92e40000 	lbu	a0,0(s7)
8000aa1c:	08002a7c 	j	8000a9f0 <_dtoa_r+0xa60>
8000aa20:	24820001 	addiu	v0,a0,1
8000aa24:	8fa60050 	lw	a2,80(sp)
8000aa28:	24090031 	li	t1,49
8000aa2c:	25170001 	addiu	s7,t0,1
8000aa30:	afb70030 	sw	s7,48(sp)
8000aa34:	24d70001 	addiu	s7,a2,1
8000aa38:	0800297a 	j	8000a5e8 <_dtoa_r+0x658>
8000aa3c:	a0c90000 	sb	t1,0(a2)
8000aa40:	14400005 	bnez	v0,8000aa58 <_dtoa_r+0xac8>
8000aa44:	24030030 	li	v1,48
8000aa48:	32cc0001 	andi	t4,s6,0x1
8000aa4c:	5580ffe3 	bnezl	t4,8000a9dc <_dtoa_r+0xa4c>
8000aa50:	26f7ffff 	addiu	s7,s7,-1
8000aa54:	24030030 	li	v1,48
8000aa58:	26f7ffff 	addiu	s7,s7,-1
8000aa5c:	82e40000 	lb	a0,0(s7)
8000aa60:	5083fffe 	beql	a0,v1,8000aa5c <_dtoa_r+0xacc>
8000aa64:	26f7ffff 	addiu	s7,s7,-1
8000aa68:	0800297a 	j	8000a5e8 <_dtoa_r+0x658>
8000aa6c:	26f70001 	addiu	s7,s7,1
8000aa70:	52c50004 	beql	s6,a1,8000aa84 <_dtoa_r+0xaf4>
8000aa74:	24160039 	li	s6,57
8000aa78:	08002a7c 	j	8000a9f0 <_dtoa_r+0xa60>
8000aa7c:	26c20001 	addiu	v0,s6,1
8000aa80:	24160039 	li	s6,57
8000aa84:	a2f60000 	sb	s6,0(s7)
8000aa88:	08002a76 	j	8000a9d8 <_dtoa_r+0xa48>
8000aa8c:	26f70001 	addiu	s7,s7,1
8000aa90:	1aa0000e 	blez	s5,8000aacc <_dtoa_r+0xb3c>
8000aa94:	8fa40080 	lw	a0,128(sp)
8000aa98:	03c02821 	move	a1,s8
8000aa9c:	0c0030c1 	jal	8000c304 <_lshift>
8000aaa0:	24060001 	li	a2,1
8000aaa4:	8fa5004c 	lw	a1,76(sp)
8000aaa8:	00402021 	move	a0,v0
8000aaac:	0c0032a5 	jal	8000ca94 <__mcmp>
8000aab0:	0040f021 	move	s8,v0
8000aab4:	18400007 	blez	v0,8000aad4 <_dtoa_r+0xb44>
8000aab8:	00000000 	nop
8000aabc:	26d60001 	addiu	s6,s6,1
8000aac0:	2403003a 	li	v1,58
8000aac4:	52c3ffef 	beql	s6,v1,8000aa84 <_dtoa_r+0xaf4>
8000aac8:	24160039 	li	s6,57
8000aacc:	08002a7d 	j	8000a9f4 <_dtoa_r+0xa64>
8000aad0:	a2f60000 	sb	s6,0(s7)
8000aad4:	5440ffc7 	bnezl	v0,8000a9f4 <_dtoa_r+0xa64>
8000aad8:	a2f60000 	sb	s6,0(s7)
8000aadc:	32d40001 	andi	s4,s6,0x1
8000aae0:	5280ffc4 	beqzl	s4,8000a9f4 <_dtoa_r+0xa64>
8000aae4:	a2f60000 	sb	s6,0(s7)
8000aae8:	08002ab0 	j	8000aac0 <_dtoa_r+0xb30>
8000aaec:	26d60001 	addiu	s6,s6,1
8000aaf0:	12d9ffe3 	beq	s6,t9,8000aa80 <_dtoa_r+0xaf0>
8000aaf4:	02b0882a 	slt	s1,s5,s0
8000aaf8:	08002ab3 	j	8000aacc <_dtoa_r+0xb3c>
8000aafc:	02d1b021 	addu	s6,s6,s1
8000ab00:	03c02021 	move	a0,s8
8000ab04:	0c0032a5 	jal	8000ca94 <__mcmp>
8000ab08:	00402821 	move	a1,v0
8000ab0c:	08002a36 	j	8000a8d8 <_dtoa_r+0x948>
8000ab10:	0040a821 	move	s5,v0
8000ab14:	8c650004 	lw	a1,4(v1)
8000ab18:	0c002f30 	jal	8000bcc0 <_Balloc>
8000ab1c:	8fa40080 	lw	a0,128(sp)
8000ab20:	8fa90044 	lw	t1,68(sp)
8000ab24:	8fa60044 	lw	a2,68(sp)
8000ab28:	2444000c 	addiu	a0,v0,12
8000ab2c:	8d270010 	lw	a3,16(t1)
8000ab30:	24c5000c 	addiu	a1,a2,12
8000ab34:	afa20048 	sw	v0,72(sp)
8000ab38:	00077880 	sll	t7,a3,0x2
8000ab3c:	0c0017e0 	jal	80005f80 <memcpy>
8000ab40:	25e60008 	addiu	a2,t7,8
8000ab44:	8fa40080 	lw	a0,128(sp)
8000ab48:	8fa50048 	lw	a1,72(sp)
8000ab4c:	0c0030c1 	jal	8000c304 <_lshift>
8000ab50:	24060001 	li	a2,1
8000ab54:	08002a25 	j	8000a894 <_dtoa_r+0x904>
8000ab58:	afa20048 	sw	v0,72(sp)
8000ab5c:	8fa5004c 	lw	a1,76(sp)
8000ab60:	0c002c19 	jal	8000b064 <quorem>
8000ab64:	03c02021 	move	a0,s8
8000ab68:	8fab0028 	lw	t3,40(sp)
8000ab6c:	24560030 	addiu	s6,v0,48
8000ab70:	a2f60000 	sb	s6,0(s7)
8000ab74:	028b902a 	slt	s2,s4,t3
8000ab78:	1240ff8d 	beqz	s2,8000a9b0 <_dtoa_r+0xa20>
8000ab7c:	26f70001 	addiu	s7,s7,1
8000ab80:	8fa40080 	lw	a0,128(sp)
8000ab84:	03c02821 	move	a1,s8
8000ab88:	2406000a 	li	a2,10
8000ab8c:	0c002f5e 	jal	8000bd78 <_multadd>
8000ab90:	00003821 	move	a3,zero
8000ab94:	0040f021 	move	s8,v0
8000ab98:	08002ad7 	j	8000ab5c <_dtoa_r+0xbcc>
8000ab9c:	26940001 	addiu	s4,s4,1
8000aba0:	2a650003 	slti	a1,s3,3
8000aba4:	14a0ff30 	bnez	a1,8000a868 <_dtoa_r+0x8d8>
8000aba8:	8fae0038 	lw	t6,56(sp)
8000abac:	0460fea0 	bltz	v1,8000a630 <_dtoa_r+0x6a0>
8000abb0:	8fa5004c 	lw	a1,76(sp)
8000abb4:	8fa40080 	lw	a0,128(sp)
8000abb8:	24060005 	li	a2,5
8000abbc:	0c002f5e 	jal	8000bd78 <_multadd>
8000abc0:	00003821 	move	a3,zero
8000abc4:	00402821 	move	a1,v0
8000abc8:	03c02021 	move	a0,s8
8000abcc:	0c0032a5 	jal	8000ca94 <__mcmp>
8000abd0:	afa2004c 	sw	v0,76(sp)
8000abd4:	1c40fe7e 	bgtz	v0,8000a5d0 <_dtoa_r+0x640>
8000abd8:	8fad0030 	lw	t5,48(sp)
8000abdc:	0800298d 	j	8000a634 <_dtoa_r+0x6a4>
8000abe0:	8fb50094 	lw	s5,148(sp)
8000abe4:	0c0032a5 	jal	8000ca94 <__mcmp>
8000abe8:	03c02021 	move	a0,s8
8000abec:	0441ff1b 	bgez	v0,8000a85c <_dtoa_r+0x8cc>
8000abf0:	8fa30028 	lw	v1,40(sp)
8000abf4:	8fa40080 	lw	a0,128(sp)
8000abf8:	03c02821 	move	a1,s8
8000abfc:	2406000a 	li	a2,10
8000ac00:	0c002f5e 	jal	8000bd78 <_multadd>
8000ac04:	00003821 	move	a3,zero
8000ac08:	8fb60030 	lw	s6,48(sp)
8000ac0c:	8fb40038 	lw	s4,56(sp)
8000ac10:	0040f021 	move	s8,v0
8000ac14:	26caffff 	addiu	t2,s6,-1
8000ac18:	16800004 	bnez	s4,8000ac2c <_dtoa_r+0xc9c>
8000ac1c:	afaa0030 	sw	t2,48(sp)
8000ac20:	8fa3002c 	lw	v1,44(sp)
8000ac24:	08002a16 	j	8000a858 <_dtoa_r+0x8c8>
8000ac28:	afa30028 	sw	v1,40(sp)
8000ac2c:	8fa50048 	lw	a1,72(sp)
8000ac30:	8fa40080 	lw	a0,128(sp)
8000ac34:	2406000a 	li	a2,10
8000ac38:	0c002f5e 	jal	8000bd78 <_multadd>
8000ac3c:	00003821 	move	a3,zero
8000ac40:	08002b08 	j	8000ac20 <_dtoa_r+0xc90>
8000ac44:	afa20048 	sw	v0,72(sp)
8000ac48:	1300fef4 	beqz	t8,8000a81c <_dtoa_r+0x88c>
8000ac4c:	8fa40020 	lw	a0,32(sp)
8000ac50:	8fb90020 	lw	t9,32(sp)
8000ac54:	2694001c 	addiu	s4,s4,28
8000ac58:	02348821 	addu	s1,s1,s4
8000ac5c:	03341021 	addu	v0,t9,s4
8000ac60:	08002a05 	j	8000a814 <_dtoa_r+0x884>
8000ac64:	afa20020 	sw	v0,32(sp)
8000ac68:	8de60010 	lw	a2,16(t7)
8000ac6c:	00067080 	sll	t6,a2,0x2
8000ac70:	01cf6821 	addu	t5,t6,t7
8000ac74:	0c002fa6 	jal	8000be98 <_hi0bits>
8000ac78:	8da40010 	lw	a0,16(t5)
8000ac7c:	080029f8 	j	8000a7e0 <_dtoa_r+0x850>
8000ac80:	02221023 	subu	v0,s1,v0
8000ac84:	02003021 	move	a2,s0
8000ac88:	0c003074 	jal	8000c1d0 <_pow5mult>
8000ac8c:	8fa40080 	lw	a0,128(sp)
8000ac90:	080029d8 	j	8000a760 <_dtoa_r+0x7d0>
8000ac94:	0040f021 	move	s8,v0
8000ac98:	08002b22 	j	8000ac88 <_dtoa_r+0xcf8>
8000ac9c:	03c02821 	move	a1,s8
8000aca0:	01b4a823 	subu	s5,t5,s4
8000aca4:	080029ad 	j	8000a6b4 <_dtoa_r+0x724>
8000aca8:	0000a021 	move	s4,zero
8000acac:	8fa80040 	lw	t0,64(sp)
8000acb0:	1500fe80 	bnez	t0,8000a6b4 <_dtoa_r+0x724>
8000acb4:	24740433 	addiu	s4,v1,1075
8000acb8:	8fa4001c 	lw	a0,28(sp)
8000acbc:	24180036 	li	t8,54
8000acc0:	080029ad 	j	8000a6b4 <_dtoa_r+0x724>
8000acc4:	0304a023 	subu	s4,t8,a0
8000acc8:	8faf0038 	lw	t7,56(sp)
8000accc:	11e00034 	beqz	t7,8000ada0 <_dtoa_r+0xe10>
8000acd0:	8faf0028 	lw	t7,40(sp)
8000acd4:	8fb40028 	lw	s4,40(sp)
8000acd8:	3c198001 	lui	t9,0x8001
8000acdc:	2738f4e0 	addiu	t8,t9,-2848
8000ace0:	0014b0c0 	sll	s6,s4,0x3
8000ace4:	02d88021 	addu	s0,s6,t8
8000ace8:	d600fff8 	ldc1	$f0,-8(s0)
8000acec:	3c013fe0 	lui	at,0x3fe0
8000acf0:	44819800 	mtc1	at,$f19
8000acf4:	44809000 	mtc1	zero,$f18
8000acf8:	44848000 	mtc1	a0,$f16
8000acfc:	44858800 	mtc1	a1,$f17
8000ad00:	3c013ff0 	lui	at,0x3ff0
8000ad04:	44813800 	mtc1	at,$f7
8000ad08:	44803000 	mtc1	zero,$f6
8000ad0c:	46209383 	div.d	$f14,$f18,$f0
8000ad10:	3c014024 	lui	at,0x4024
8000ad14:	44812800 	mtc1	at,$f5
8000ad18:	44802000 	mtc1	zero,$f4
8000ad1c:	0000a021 	move	s4,zero
8000ad20:	46307301 	sub.d	$f12,$f14,$f16
8000ad24:	44046000 	mfc1	a0,$f12
8000ad28:	44056800 	mfc1	a1,$f13
8000ad2c:	44921000 	mtc1	s2,$f2
8000ad30:	44931800 	mtc1	s3,$f3
8000ad34:	4620100d 	trunc.w.d	$f0,$f2
8000ad38:	44150000 	mfc1	s5,$f0
8000ad3c:	44954000 	mtc1	s5,$f8
8000ad40:	46804221 	cvt.d.w	$f8,$f8
8000ad44:	46281001 	sub.d	$f0,$f2,$f8
8000ad48:	44841000 	mtc1	a0,$f2
8000ad4c:	44851800 	mtc1	a1,$f3
8000ad50:	26aa0030 	addiu	t2,s5,48
8000ad54:	a2ea0000 	sb	t2,0(s7)
8000ad58:	4622013c 	c.lt.d	$fcc1,$f0,$f2
8000ad5c:	4505fddc 	bc1t	$fcc1,8000a4d0 <_dtoa_r+0x540>
8000ad60:	26f70001 	addiu	s7,s7,1
8000ad64:	46203301 	sub.d	$f12,$f6,$f0
8000ad68:	4622623c 	c.lt.d	$fcc2,$f12,$f2
8000ad6c:	4509fdef 	bc1t	$fcc2,8000a52c <_dtoa_r+0x59c>
8000ad70:	8fa20028 	lw	v0,40(sp)
8000ad74:	26940001 	addiu	s4,s4,1
8000ad78:	0282282a 	slt	a1,s4,v0
8000ad7c:	50a0fda8 	beqzl	a1,8000a420 <_dtoa_r+0x490>
8000ad80:	8fb70050 	lw	s7,80(sp)
8000ad84:	46222482 	mul.d	$f18,$f4,$f2
8000ad88:	46202382 	mul.d	$f14,$f4,$f0
8000ad8c:	44049000 	mfc1	a0,$f18
8000ad90:	44059800 	mfc1	a1,$f19
8000ad94:	44127000 	mfc1	s2,$f14
8000ad98:	08002b4b 	j	8000ad2c <_dtoa_r+0xd9c>
8000ad9c:	44137800 	mfc1	s3,$f15
8000ada0:	3c0e8001 	lui	t6,0x8001
8000ada4:	25cdf4e0 	addiu	t5,t6,-2848
8000ada8:	000f60c0 	sll	t4,t7,0x3
8000adac:	018d5821 	addu	t3,t4,t5
8000adb0:	d568fff8 	ldc1	$f8,-8(t3)
8000adb4:	44840000 	mtc1	a0,$f0
8000adb8:	44850800 	mtc1	a1,$f1
8000adbc:	3c014024 	lui	at,0x4024
8000adc0:	44811800 	mtc1	at,$f3
8000adc4:	44801000 	mtc1	zero,$f2
8000adc8:	46204182 	mul.d	$f6,$f8,$f0
8000adcc:	24140001 	li	s4,1
8000add0:	44043000 	mfc1	a0,$f6
8000add4:	44053800 	mfc1	a1,$f7
8000add8:	44922000 	mtc1	s2,$f4
8000addc:	44932800 	mtc1	s3,$f5
8000ade0:	4620200d 	trunc.w.d	$f0,$f4
8000ade4:	44160000 	mfc1	s6,$f0
8000ade8:	26d00030 	addiu	s0,s6,48
8000adec:	a2f00000 	sb	s0,0(s7)
8000adf0:	8fa30028 	lw	v1,40(sp)
8000adf4:	44966000 	mtc1	s6,$f12
8000adf8:	46806321 	cvt.d.w	$f12,$f12
8000adfc:	462c2281 	sub.d	$f10,$f4,$f12
8000ae00:	12830006 	beq	s4,v1,8000ae1c <_dtoa_r+0xe8c>
8000ae04:	26f70001 	addiu	s7,s7,1
8000ae08:	462a1302 	mul.d	$f12,$f2,$f10
8000ae0c:	44126000 	mfc1	s2,$f12
8000ae10:	44136800 	mfc1	s3,$f13
8000ae14:	08002b76 	j	8000add8 <_dtoa_r+0xe48>
8000ae18:	26940001 	addiu	s4,s4,1
8000ae1c:	3c013fe0 	lui	at,0x3fe0
8000ae20:	44811800 	mtc1	at,$f3
8000ae24:	44801000 	mtc1	zero,$f2
8000ae28:	44843000 	mtc1	a0,$f6
8000ae2c:	44853800 	mtc1	a1,$f7
8000ae30:	46223480 	add.d	$f18,$f6,$f2
8000ae34:	462a933c 	c.lt.d	$fcc3,$f18,$f10
8000ae38:	450dfdbc 	bc1t	$fcc3,8000a52c <_dtoa_r+0x59c>
8000ae3c:	46205406 	mov.d	$f16,$f10
8000ae40:	46261281 	sub.d	$f10,$f2,$f6
8000ae44:	462a843c 	c.lt.d	$fcc4,$f16,$f10
8000ae48:	4512fd75 	bc1fl	$fcc4,8000a420 <_dtoa_r+0x490>
8000ae4c:	8fb70050 	lw	s7,80(sp)
8000ae50:	24030030 	li	v1,48
8000ae54:	26f7ffff 	addiu	s7,s7,-1
8000ae58:	82f10000 	lb	s1,0(s7)
8000ae5c:	5223fffe 	beql	s1,v1,8000ae58 <_dtoa_r+0xec8>
8000ae60:	26f7ffff 	addiu	s7,s7,-1
8000ae64:	08002934 	j	8000a4d0 <_dtoa_r+0x540>
8000ae68:	26f70001 	addiu	s7,s7,1
8000ae6c:	8fb00030 	lw	s0,48(sp)
8000ae70:	0010a823 	negu	s5,s0
8000ae74:	12a0fd34 	beqz	s5,8000a348 <_dtoa_r+0x3b8>
8000ae78:	8fac0034 	lw	t4,52(sp)
8000ae7c:	32aa000f 	andi	t2,s5,0xf
8000ae80:	3c148001 	lui	s4,0x8001
8000ae84:	000ac0c0 	sll	t8,t2,0x3
8000ae88:	2699f4e0 	addiu	t9,s4,-2848
8000ae8c:	0319b021 	addu	s6,t8,t9
8000ae90:	d6cc0000 	ldc1	$f12,0(s6)
8000ae94:	44920000 	mtc1	s2,$f0
8000ae98:	44930800 	mtc1	s3,$f1
8000ae9c:	00158103 	sra	s0,s5,0x4
8000aea0:	46206102 	mul.d	$f4,$f12,$f0
8000aea4:	44122000 	mfc1	s2,$f4
8000aea8:	44132800 	mfc1	s3,$f5
8000aeac:	1200fd26 	beqz	s0,8000a348 <_dtoa_r+0x3b8>
8000aeb0:	3c158001 	lui	s5,0x8001
8000aeb4:	26a3f5a8 	addiu	v1,s5,-2648
8000aeb8:	320b0001 	andi	t3,s0,0x1
8000aebc:	11600008 	beqz	t3,8000aee0 <_dtoa_r+0xf50>
8000aec0:	00108043 	sra	s0,s0,0x1
8000aec4:	d4700000 	ldc1	$f16,0(v1)
8000aec8:	44929000 	mtc1	s2,$f18
8000aecc:	44939800 	mtc1	s3,$f19
8000aed0:	24a50001 	addiu	a1,a1,1
8000aed4:	46328382 	mul.d	$f14,$f16,$f18
8000aed8:	44127000 	mfc1	s2,$f14
8000aedc:	44137800 	mfc1	s3,$f15
8000aee0:	1600fff5 	bnez	s0,8000aeb8 <_dtoa_r+0xf28>
8000aee4:	24630008 	addiu	v1,v1,8
8000aee8:	080028d2 	j	8000a348 <_dtoa_r+0x3b8>
8000aeec:	8fac0034 	lw	t4,52(sp)
8000aef0:	afa00038 	sw	zero,56(sp)
8000aef4:	8fac0094 	lw	t4,148(sp)
8000aef8:	24140001 	li	s4,1
8000aefc:	000c682a 	slt	t5,zero,t4
8000af00:	018da00b 	movn	s4,t4,t5
8000af04:	afb40094 	sw	s4,148(sp)
8000af08:	afb4002c 	sw	s4,44(sp)
8000af0c:	0800288e 	j	8000a238 <_dtoa_r+0x2a8>
8000af10:	afb40028 	sw	s4,40(sp)
8000af14:	afa00038 	sw	zero,56(sp)
8000af18:	8fb00094 	lw	s0,148(sp)
8000af1c:	8fa20030 	lw	v0,48(sp)
8000af20:	240e0001 	li	t6,1
8000af24:	02027821 	addu	t7,s0,v0
8000af28:	25f40001 	addiu	s4,t7,1
8000af2c:	0014202a 	slt	a0,zero,s4
8000af30:	afb40028 	sw	s4,40(sp)
8000af34:	afaf002c 	sw	t7,44(sp)
8000af38:	0800288e 	j	8000a238 <_dtoa_r+0x2a8>
8000af3c:	01c4a00a 	movz	s4,t6,a0
8000af40:	8faf0030 	lw	t7,48(sp)
8000af44:	afa0003c 	sw	zero,60(sp)
8000af48:	02af8023 	subu	s0,s5,t7
8000af4c:	000f2023 	negu	a0,t7
8000af50:	afb00020 	sw	s0,32(sp)
8000af54:	08002872 	j	8000a1c8 <_dtoa_r+0x238>
8000af58:	afa40024 	sw	a0,36(sp)
8000af5c:	afa20020 	sw	v0,32(sp)
8000af60:	0800286c 	j	8000a1b0 <_dtoa_r+0x220>
8000af64:	00008821 	move	s1,zero
8000af68:	8fa4001c 	lw	a0,28(sp)
8000af6c:	8fad0018 	lw	t5,24(sp)
8000af70:	008d1821 	addu	v1,a0,t5
8000af74:	24740432 	addiu	s4,v1,1074
8000af78:	2a8c0021 	slti	t4,s4,33
8000af7c:	15800016 	bnez	t4,8000afd8 <_dtoa_r+0x1048>
8000af80:	0014a823 	negu	s5,s4
8000af84:	24700412 	addiu	s0,v1,1042
8000af88:	00148823 	negu	s1,s4
8000af8c:	02337004 	sllv	t6,s3,s1
8000af90:	02127806 	srlv	t7,s2,s0
8000af94:	01cf1025 	or	v0,t6,t7
8000af98:	44821000 	mtc1	v0,$f2
8000af9c:	04400009 	bltz	v0,8000afc4 <_dtoa_r+0x1034>
8000afa0:	468010a1 	cvt.d.w	$f2,$f2
8000afa4:	44061000 	mfc1	a2,$f2
8000afa8:	44071800 	mfc1	a3,$f3
8000afac:	3c18fe10 	lui	t8,0xfe10
8000afb0:	24160001 	li	s6,1
8000afb4:	03073821 	addu	a3,t8,a3
8000afb8:	2694fbcd 	addiu	s4,s4,-1075
8000afbc:	08002832 	j	8000a0c8 <_dtoa_r+0x138>
8000afc0:	afb60040 	sw	s6,64(sp)
8000afc4:	3c0141f0 	lui	at,0x41f0
8000afc8:	44813800 	mtc1	at,$f7
8000afcc:	44803000 	mtc1	zero,$f6
8000afd0:	08002be9 	j	8000afa4 <_dtoa_r+0x1014>
8000afd4:	46261080 	add.d	$f2,$f2,$f6
8000afd8:	08002be6 	j	8000af98 <_dtoa_r+0x1008>
8000afdc:	02b21004 	sllv	v0,s2,s5
8000afe0:	240e270f 	li	t6,9999
8000afe4:	16400011 	bnez	s2,8000b02c <_dtoa_r+0x109c>
8000afe8:	adae0000 	sw	t6,0(t5)
8000afec:	3c11000f 	lui	s1,0xf
8000aff0:	3630ffff 	ori	s0,s1,0xffff
8000aff4:	02707824 	and	t7,s3,s0
8000aff8:	15e0000d 	bnez	t7,8000b030 <_dtoa_r+0x10a0>
8000affc:	3c138001 	lui	s3,0x8001
8000b000:	3c128001 	lui	s2,0x8001
8000b004:	2657f488 	addiu	s7,s2,-2936
8000b008:	8fb400a0 	lw	s4,160(sp)
8000b00c:	1280fc0c 	beqz	s4,8000a040 <_dtoa_r+0xb0>
8000b010:	8fb500a0 	lw	s5,160(sp)
8000b014:	82f90003 	lb	t9,3(s7)
8000b018:	26f60008 	addiu	s6,s7,8
8000b01c:	26f80003 	addiu	t8,s7,3
8000b020:	0319b00a 	movz	s6,t8,t9
8000b024:	08002810 	j	8000a040 <_dtoa_r+0xb0>
8000b028:	aeb60000 	sw	s6,0(s5)
8000b02c:	3c138001 	lui	s3,0x8001
8000b030:	08002c02 	j	8000b008 <_dtoa_r+0x1078>
8000b034:	2677f484 	addiu	s7,s3,-2940
8000b038:	8c8a0044 	lw	t2,68(a0)
8000b03c:	24070001 	li	a3,1
8000b040:	01002821 	move	a1,t0
8000b044:	ad0a0004 	sw	t2,4(t0)
8000b048:	8c890044 	lw	t1,68(a0)
8000b04c:	01273004 	sllv	a2,a3,t1
8000b050:	0c003245 	jal	8000c914 <_Bfree>
8000b054:	ad060008 	sw	a2,8(t0)
8000b058:	8fa20080 	lw	v0,128(sp)
8000b05c:	080027f6 	j	80009fd8 <_dtoa_r+0x48>
8000b060:	ac400040 	sw	zero,64(v0)

8000b064 <quorem>:
8000b064:	27bdffd0 	addiu	sp,sp,-48
8000b068:	afb50024 	sw	s5,36(sp)
8000b06c:	afbf002c 	sw	ra,44(sp)
8000b070:	afb60028 	sw	s6,40(sp)
8000b074:	afb40020 	sw	s4,32(sp)
8000b078:	afb3001c 	sw	s3,28(sp)
8000b07c:	afb20018 	sw	s2,24(sp)
8000b080:	afb10014 	sw	s1,20(sp)
8000b084:	afb00010 	sw	s0,16(sp)
8000b088:	8cb20010 	lw	s2,16(a1)
8000b08c:	00a06021 	move	t4,a1
8000b090:	8c850010 	lw	a1,16(a0)
8000b094:	0080a821 	move	s5,a0
8000b098:	00b2202a 	slt	a0,a1,s2
8000b09c:	14800075 	bnez	a0,8000b274 <quorem+0x210>
8000b0a0:	00001821 	move	v1,zero
8000b0a4:	2652ffff 	addiu	s2,s2,-1
8000b0a8:	25880014 	addiu	t0,t4,20
8000b0ac:	00121880 	sll	v1,s2,0x2
8000b0b0:	26b30014 	addiu	s3,s5,20
8000b0b4:	01038821 	addu	s1,t0,v1
8000b0b8:	02635021 	addu	t2,s3,v1
8000b0bc:	8e240000 	lw	a0,0(s1)
8000b0c0:	8d4b0000 	lw	t3,0(t2)
8000b0c4:	0100b021 	move	s6,t0
8000b0c8:	24820001 	addiu	v0,a0,1
8000b0cc:	0162001b 	divu	zero,t3,v0
8000b0d0:	50400001 	beqzl	v0,8000b0d8 <quorem+0x74>
8000b0d4:	0000018d 	break	0x6
8000b0d8:	00008012 	mflo	s0
8000b0dc:	0000a012 	mflo	s4
8000b0e0:	1200002e 	beqz	s0,8000b19c <quorem+0x138>
8000b0e4:	02603821 	move	a3,s3
8000b0e8:	00004821 	move	t1,zero
8000b0ec:	00001821 	move	v1,zero
8000b0f0:	8d0f0000 	lw	t7,0(t0)
8000b0f4:	8cee0000 	lw	t6,0(a3)
8000b0f8:	25080004 	addiu	t0,t0,4
8000b0fc:	31e4ffff 	andi	a0,t7,0xffff
8000b100:	70902802 	mul	a1,a0,s0
8000b104:	31d8ffff 	andi	t8,t6,0xffff
8000b108:	00a36821 	addu	t5,a1,v1
8000b10c:	000f1c02 	srl	v1,t7,0x10
8000b110:	70701002 	mul	v0,v1,s0
8000b114:	31b9ffff 	andi	t9,t5,0xffff
8000b118:	000d3402 	srl	a2,t5,0x10
8000b11c:	03192023 	subu	a0,t8,t9
8000b120:	0089c021 	addu	t8,a0,t1
8000b124:	000e4c02 	srl	t1,t6,0x10
8000b128:	0018cc03 	sra	t9,t8,0x10
8000b12c:	0228682b 	sltu	t5,s1,t0
8000b130:	a4f80000 	sh	t8,0(a3)
8000b134:	00467821 	addu	t7,v0,a2
8000b138:	31e5ffff 	andi	a1,t7,0xffff
8000b13c:	01253023 	subu	a2,t1,a1
8000b140:	00d97021 	addu	t6,a2,t9
8000b144:	a4ee0002 	sh	t6,2(a3)
8000b148:	000f1c02 	srl	v1,t7,0x10
8000b14c:	000e4c03 	sra	t1,t6,0x10
8000b150:	11a0ffe7 	beqz	t5,8000b0f0 <quorem+0x8c>
8000b154:	24e70004 	addiu	a3,a3,4
8000b158:	55600011 	bnezl	t3,8000b1a0 <quorem+0x13c>
8000b15c:	01802821 	move	a1,t4
8000b160:	254afffc 	addiu	t2,t2,-4
8000b164:	026a382b 	sltu	a3,s3,t2
8000b168:	50e0000c 	beqzl	a3,8000b19c <quorem+0x138>
8000b16c:	aeb20010 	sw	s2,16(s5)
8000b170:	8d480000 	lw	t0,0(t2)
8000b174:	55000009 	bnezl	t0,8000b19c <quorem+0x138>
8000b178:	aeb20010 	sw	s2,16(s5)
8000b17c:	254afffc 	addiu	t2,t2,-4
8000b180:	026a582b 	sltu	t3,s3,t2
8000b184:	11600004 	beqz	t3,8000b198 <quorem+0x134>
8000b188:	2652ffff 	addiu	s2,s2,-1
8000b18c:	8d490000 	lw	t1,0(t2)
8000b190:	1120fffb 	beqz	t1,8000b180 <quorem+0x11c>
8000b194:	254afffc 	addiu	t2,t2,-4
8000b198:	aeb20010 	sw	s2,16(s5)
8000b19c:	01802821 	move	a1,t4
8000b1a0:	0c0032a5 	jal	8000ca94 <__mcmp>
8000b1a4:	02a02021 	move	a0,s5
8000b1a8:	04400031 	bltz	v0,8000b270 <quorem+0x20c>
8000b1ac:	02c04021 	move	t0,s6
8000b1b0:	26140001 	addiu	s4,s0,1
8000b1b4:	00004821 	move	t1,zero
8000b1b8:	00001821 	move	v1,zero
8000b1bc:	02603821 	move	a3,s3
8000b1c0:	8d100000 	lw	s0,0(t0)
8000b1c4:	8ced0000 	lw	t5,0(a3)
8000b1c8:	25080004 	addiu	t0,t0,4
8000b1cc:	3205ffff 	andi	a1,s0,0xffff
8000b1d0:	00a36021 	addu	t4,a1,v1
8000b1d4:	000c5402 	srl	t2,t4,0x10
8000b1d8:	00101c02 	srl	v1,s0,0x10
8000b1dc:	318bffff 	andi	t3,t4,0xffff
8000b1e0:	31a4ffff 	andi	a0,t5,0xffff
8000b1e4:	006a8021 	addu	s0,v1,t2
8000b1e8:	008b7823 	subu	t7,a0,t3
8000b1ec:	01e9b021 	addu	s6,t7,t1
8000b1f0:	000dcc02 	srl	t9,t5,0x10
8000b1f4:	3206ffff 	andi	a2,s0,0xffff
8000b1f8:	03267023 	subu	t6,t9,a2
8000b1fc:	0016c403 	sra	t8,s6,0x10
8000b200:	01d86021 	addu	t4,t6,t8
8000b204:	0228502b 	sltu	t2,s1,t0
8000b208:	a4ec0002 	sh	t4,2(a3)
8000b20c:	a4f60000 	sh	s6,0(a3)
8000b210:	00101c02 	srl	v1,s0,0x10
8000b214:	000c4c03 	sra	t1,t4,0x10
8000b218:	1140ffe9 	beqz	t2,8000b1c0 <quorem+0x15c>
8000b21c:	24e70004 	addiu	a3,a3,4
8000b220:	00123880 	sll	a3,s2,0x2
8000b224:	02675021 	addu	t2,s3,a3
8000b228:	8d510000 	lw	s1,0(t2)
8000b22c:	56200011 	bnezl	s1,8000b274 <quorem+0x210>
8000b230:	02801821 	move	v1,s4
8000b234:	254afffc 	addiu	t2,t2,-4
8000b238:	026a402b 	sltu	t0,s3,t2
8000b23c:	5100000c 	beqzl	t0,8000b270 <quorem+0x20c>
8000b240:	aeb20010 	sw	s2,16(s5)
8000b244:	8d490000 	lw	t1,0(t2)
8000b248:	55200009 	bnezl	t1,8000b270 <quorem+0x20c>
8000b24c:	aeb20010 	sw	s2,16(s5)
8000b250:	254afffc 	addiu	t2,t2,-4
8000b254:	026ab02b 	sltu	s6,s3,t2
8000b258:	12c00004 	beqz	s6,8000b26c <quorem+0x208>
8000b25c:	2652ffff 	addiu	s2,s2,-1
8000b260:	8d4e0000 	lw	t6,0(t2)
8000b264:	51c0fffb 	beqzl	t6,8000b254 <quorem+0x1f0>
8000b268:	254afffc 	addiu	t2,t2,-4
8000b26c:	aeb20010 	sw	s2,16(s5)
8000b270:	02801821 	move	v1,s4
8000b274:	8fbf002c 	lw	ra,44(sp)
8000b278:	8fb60028 	lw	s6,40(sp)
8000b27c:	8fb50024 	lw	s5,36(sp)
8000b280:	8fb40020 	lw	s4,32(sp)
8000b284:	8fb3001c 	lw	s3,28(sp)
8000b288:	8fb20018 	lw	s2,24(sp)
8000b28c:	8fb10014 	lw	s1,20(sp)
8000b290:	8fb00010 	lw	s0,16(sp)
8000b294:	00601021 	move	v0,v1
8000b298:	03e00008 	jr	ra
8000b29c:	27bd0030 	addiu	sp,sp,48

8000b2a0 <_fclose_r>:
8000b2a0:	27bdffe0 	addiu	sp,sp,-32
8000b2a4:	afb00010 	sw	s0,16(sp)
8000b2a8:	00a08021 	move	s0,a1
8000b2ac:	afb10014 	sw	s1,20(sp)
8000b2b0:	afbf001c 	sw	ra,28(sp)
8000b2b4:	afb20018 	sw	s2,24(sp)
8000b2b8:	00808821 	move	s1,a0
8000b2bc:	12000023 	beqz	s0,8000b34c <_fclose_r+0xac>
8000b2c0:	00002821 	move	a1,zero
8000b2c4:	50800005 	beqzl	a0,8000b2dc <_fclose_r+0x3c>
8000b2c8:	8604000c 	lh	a0,12(s0)
8000b2cc:	8c830038 	lw	v1,56(a0)
8000b2d0:	10600037 	beqz	v1,8000b3b0 <_fclose_r+0x110>
8000b2d4:	00000000 	nop
8000b2d8:	8604000c 	lh	a0,12(s0)
8000b2dc:	9603000c 	lhu	v1,12(s0)
8000b2e0:	1080001a 	beqz	a0,8000b34c <_fclose_r+0xac>
8000b2e4:	00002821 	move	a1,zero
8000b2e8:	30650008 	andi	a1,v1,0x8
8000b2ec:	14a0002c 	bnez	a1,8000b3a0 <_fclose_r+0x100>
8000b2f0:	00000000 	nop
8000b2f4:	00009021 	move	s2,zero
8000b2f8:	8e02002c 	lw	v0,44(s0)
8000b2fc:	14400022 	bnez	v0,8000b388 <_fclose_r+0xe8>
8000b300:	00000000 	nop
8000b304:	9608000c 	lhu	t0,12(s0)
8000b308:	31070080 	andi	a3,t0,0x80
8000b30c:	54e0001a 	bnezl	a3,8000b378 <_fclose_r+0xd8>
8000b310:	8e050010 	lw	a1,16(s0)
8000b314:	8e050030 	lw	a1,48(s0)
8000b318:	50a00008 	beqzl	a1,8000b33c <_fclose_r+0x9c>
8000b31c:	8e050044 	lw	a1,68(s0)
8000b320:	26090040 	addiu	t1,s0,64
8000b324:	10a90003 	beq	a1,t1,8000b334 <_fclose_r+0x94>
8000b328:	3c0a8001 	lui	t2,0x8001
8000b32c:	0c0003d4 	jal	80000f50 <_free_r>
8000b330:	8d44e348 	lw	a0,-7352(t2)
8000b334:	ae000030 	sw	zero,48(s0)
8000b338:	8e050044 	lw	a1,68(s0)
8000b33c:	14a0000a 	bnez	a1,8000b368 <_fclose_r+0xc8>
8000b340:	3c0b8001 	lui	t3,0x8001
8000b344:	a600000c 	sh	zero,12(s0)
8000b348:	02402821 	move	a1,s2
8000b34c:	8fbf001c 	lw	ra,28(sp)
8000b350:	8fb20018 	lw	s2,24(sp)
8000b354:	8fb10014 	lw	s1,20(sp)
8000b358:	8fb00010 	lw	s0,16(sp)
8000b35c:	00a01021 	move	v0,a1
8000b360:	03e00008 	jr	ra
8000b364:	27bd0020 	addiu	sp,sp,32
8000b368:	0c0003d4 	jal	80000f50 <_free_r>
8000b36c:	8d64e348 	lw	a0,-7352(t3)
8000b370:	08002cd1 	j	8000b344 <_fclose_r+0xa4>
8000b374:	ae000044 	sw	zero,68(s0)
8000b378:	0c0003d4 	jal	80000f50 <_free_r>
8000b37c:	02202021 	move	a0,s1
8000b380:	08002cc6 	j	8000b318 <_fclose_r+0x78>
8000b384:	8e050030 	lw	a1,48(s0)
8000b388:	0040f809 	jalr	v0
8000b38c:	8e04001c 	lw	a0,28(s0)
8000b390:	28430000 	slti	v1,v0,0
8000b394:	2406ffff 	li	a2,-1
8000b398:	08002cc1 	j	8000b304 <_fclose_r+0x64>
8000b39c:	00c3900b 	movn	s2,a2,v1
8000b3a0:	0c002cfc 	jal	8000b3f0 <fflush>
8000b3a4:	02002021 	move	a0,s0
8000b3a8:	08002cbe 	j	8000b2f8 <_fclose_r+0x58>
8000b3ac:	00409021 	move	s2,v0
8000b3b0:	0c0015df 	jal	8000577c <__sinit>
8000b3b4:	00000000 	nop
8000b3b8:	08002cb7 	j	8000b2dc <_fclose_r+0x3c>
8000b3bc:	8604000c 	lh	a0,12(s0)

8000b3c0 <fclose>:
8000b3c0:	3c038001 	lui	v1,0x8001
8000b3c4:	00802821 	move	a1,a0
8000b3c8:	8c64e348 	lw	a0,-7352(v1)
8000b3cc:	27bdffe8 	addiu	sp,sp,-24
8000b3d0:	afbf0010 	sw	ra,16(sp)
8000b3d4:	0c002ca8 	jal	8000b2a0 <_fclose_r>
8000b3d8:	00000000 	nop
8000b3dc:	8fbf0010 	lw	ra,16(sp)
8000b3e0:	03e00008 	jr	ra
8000b3e4:	27bd0018 	addiu	sp,sp,24
	...

8000b3f0 <fflush>:
8000b3f0:	27bdffe0 	addiu	sp,sp,-32
8000b3f4:	afb20018 	sw	s2,24(sp)
8000b3f8:	afbf001c 	sw	ra,28(sp)
8000b3fc:	afb10014 	sw	s1,20(sp)
8000b400:	afb00010 	sw	s0,16(sp)
8000b404:	10800032 	beqz	a0,8000b4d0 <fflush+0xe0>
8000b408:	00809021 	move	s2,a0
8000b40c:	3c058001 	lui	a1,0x8001
8000b410:	8ca4e348 	lw	a0,-7352(a1)
8000b414:	50800005 	beqzl	a0,8000b42c <fflush+0x3c>
8000b418:	8643000c 	lh	v1,12(s2)
8000b41c:	8c860038 	lw	a2,56(a0)
8000b420:	10c00027 	beqz	a2,8000b4c0 <fflush+0xd0>
8000b424:	00000000 	nop
8000b428:	8643000c 	lh	v1,12(s2)
8000b42c:	30640008 	andi	a0,v1,0x8
8000b430:	50800017 	beqzl	a0,8000b490 <fflush+0xa0>
8000b434:	00001821 	move	v1,zero
8000b438:	8e510010 	lw	s1,16(s2)
8000b43c:	12200013 	beqz	s1,8000b48c <fflush+0x9c>
8000b440:	30670003 	andi	a3,v1,0x3
8000b444:	8e480000 	lw	t0,0(s2)
8000b448:	ae510000 	sw	s1,0(s2)
8000b44c:	01118023 	subu	s0,t0,s1
8000b450:	14e00002 	bnez	a3,8000b45c <fflush+0x6c>
8000b454:	00001021 	move	v0,zero
8000b458:	8e420014 	lw	v0,20(s2)
8000b45c:	1a00000b 	blez	s0,8000b48c <fflush+0x9c>
8000b460:	ae420008 	sw	v0,8(s2)
8000b464:	8e420024 	lw	v0,36(s2)
8000b468:	8e44001c 	lw	a0,28(s2)
8000b46c:	02202821 	move	a1,s1
8000b470:	0040f809 	jalr	v0
8000b474:	02003021 	move	a2,s0
8000b478:	02028023 	subu	s0,s0,v0
8000b47c:	1840000b 	blez	v0,8000b4ac <fflush+0xbc>
8000b480:	02228821 	addu	s1,s1,v0
8000b484:	5e00fff8 	bgtzl	s0,8000b468 <fflush+0x78>
8000b488:	8e420024 	lw	v0,36(s2)
8000b48c:	00001821 	move	v1,zero
8000b490:	8fbf001c 	lw	ra,28(sp)
8000b494:	8fb20018 	lw	s2,24(sp)
8000b498:	8fb10014 	lw	s1,20(sp)
8000b49c:	8fb00010 	lw	s0,16(sp)
8000b4a0:	00601021 	move	v0,v1
8000b4a4:	03e00008 	jr	ra
8000b4a8:	27bd0020 	addiu	sp,sp,32
8000b4ac:	964a000c 	lhu	t2,12(s2)
8000b4b0:	2403ffff 	li	v1,-1
8000b4b4:	35490040 	ori	t1,t2,0x40
8000b4b8:	08002d24 	j	8000b490 <fflush+0xa0>
8000b4bc:	a649000c 	sh	t1,12(s2)
8000b4c0:	0c0015df 	jal	8000577c <__sinit>
8000b4c4:	00000000 	nop
8000b4c8:	08002d0b 	j	8000b42c <fflush+0x3c>
8000b4cc:	8643000c 	lh	v1,12(s2)
8000b4d0:	3c038001 	lui	v1,0x8001
8000b4d4:	8c64ea04 	lw	a0,-5628(v1)
8000b4d8:	3c028001 	lui	v0,0x8001
8000b4dc:	0c0016dc 	jal	80005b70 <_fwalk>
8000b4e0:	2445b3f0 	addiu	a1,v0,-19472
8000b4e4:	08002d24 	j	8000b490 <fflush+0xa0>
8000b4e8:	00401821 	move	v1,v0
8000b4ec:	00000000 	nop

8000b4f0 <__sfvwrite>:
8000b4f0:	27bdffc8 	addiu	sp,sp,-56
8000b4f4:	afb60028 	sw	s6,40(sp)
8000b4f8:	afb40020 	sw	s4,32(sp)
8000b4fc:	afb3001c 	sw	s3,28(sp)
8000b500:	afbf0030 	sw	ra,48(sp)
8000b504:	afb7002c 	sw	s7,44(sp)
8000b508:	afb50024 	sw	s5,36(sp)
8000b50c:	afb20018 	sw	s2,24(sp)
8000b510:	afb10014 	sw	s1,20(sp)
8000b514:	afb00010 	sw	s0,16(sp)
8000b518:	8ca20008 	lw	v0,8(a1)
8000b51c:	00a0b021 	move	s6,a1
8000b520:	0080a021 	move	s4,a0
8000b524:	00009821 	move	s3,zero
8000b528:	10400027 	beqz	v0,8000b5c8 <__sfvwrite+0xd8>
8000b52c:	00001821 	move	v1,zero
8000b530:	9483000c 	lhu	v1,12(a0)
8000b534:	30650008 	andi	a1,v1,0x8
8000b538:	10a00004 	beqz	a1,8000b54c <__sfvwrite+0x5c>
8000b53c:	00000000 	nop
8000b540:	8c860010 	lw	a2,16(a0)
8000b544:	54c00007 	bnezl	a2,8000b564 <__sfvwrite+0x74>
8000b548:	30640002 	andi	a0,v1,0x2
8000b54c:	0c002784 	jal	80009e10 <__swsetup>
8000b550:	00000000 	nop
8000b554:	1440001c 	bnez	v0,8000b5c8 <__sfvwrite+0xd8>
8000b558:	2403ffff 	li	v1,-1
8000b55c:	9683000c 	lhu	v1,12(s4)
8000b560:	30640002 	andi	a0,v1,0x2
8000b564:	8ed20000 	lw	s2,0(s6)
8000b568:	10800028 	beqz	a0,8000b60c <__sfvwrite+0x11c>
8000b56c:	00008021 	move	s0,zero
8000b570:	24150400 	li	s5,1024
8000b574:	56000006 	bnezl	s0,8000b590 <__sfvwrite+0xa0>
8000b578:	8e910024 	lw	s1,36(s4)
8000b57c:	8e500004 	lw	s0,4(s2)
8000b580:	8e530000 	lw	s3,0(s2)
8000b584:	1200fffd 	beqz	s0,8000b57c <__sfvwrite+0x8c>
8000b588:	26520008 	addiu	s2,s2,8
8000b58c:	8e910024 	lw	s1,36(s4)
8000b590:	8e84001c 	lw	a0,28(s4)
8000b594:	2e020401 	sltiu	v0,s0,1025
8000b598:	02a03021 	move	a2,s5
8000b59c:	0202300b 	movn	a2,s0,v0
8000b5a0:	0220f809 	jalr	s1
8000b5a4:	02602821 	move	a1,s3
8000b5a8:	18400013 	blez	v0,8000b5f8 <__sfvwrite+0x108>
8000b5ac:	02629821 	addu	s3,s3,v0
8000b5b0:	8ec70008 	lw	a3,8(s6)
8000b5b4:	02028023 	subu	s0,s0,v0
8000b5b8:	00e21823 	subu	v1,a3,v0
8000b5bc:	1460ffed 	bnez	v1,8000b574 <__sfvwrite+0x84>
8000b5c0:	aec30008 	sw	v1,8(s6)
8000b5c4:	00001821 	move	v1,zero
8000b5c8:	8fbf0030 	lw	ra,48(sp)
8000b5cc:	8fb7002c 	lw	s7,44(sp)
8000b5d0:	8fb60028 	lw	s6,40(sp)
8000b5d4:	8fb50024 	lw	s5,36(sp)
8000b5d8:	8fb40020 	lw	s4,32(sp)
8000b5dc:	8fb3001c 	lw	s3,28(sp)
8000b5e0:	8fb20018 	lw	s2,24(sp)
8000b5e4:	8fb10014 	lw	s1,20(sp)
8000b5e8:	8fb00010 	lw	s0,16(sp)
8000b5ec:	00601021 	move	v0,v1
8000b5f0:	03e00008 	jr	ra
8000b5f4:	27bd0038 	addiu	sp,sp,56
8000b5f8:	9692000c 	lhu	s2,12(s4)
8000b5fc:	2403ffff 	li	v1,-1
8000b600:	36500040 	ori	s0,s2,0x40
8000b604:	08002d72 	j	8000b5c8 <__sfvwrite+0xd8>
8000b608:	a690000c 	sh	s0,12(s4)
8000b60c:	30680001 	andi	t0,v1,0x1
8000b610:	0000b821 	move	s7,zero
8000b614:	15000061 	bnez	t0,8000b79c <__sfvwrite+0x2ac>
8000b618:	0000a821 	move	s5,zero
8000b61c:	16000006 	bnez	s0,8000b638 <__sfvwrite+0x148>
8000b620:	30690200 	andi	t1,v1,0x200
8000b624:	8e500004 	lw	s0,4(s2)
8000b628:	8e530000 	lw	s3,0(s2)
8000b62c:	1200fffd 	beqz	s0,8000b624 <__sfvwrite+0x134>
8000b630:	26520008 	addiu	s2,s2,8
8000b634:	30690200 	andi	t1,v1,0x200
8000b638:	1120002f 	beqz	t1,8000b6f8 <__sfvwrite+0x208>
8000b63c:	8e910008 	lw	s1,8(s4)
8000b640:	0230502b 	sltu	t2,s1,s0
8000b644:	11400003 	beqz	t2,8000b654 <__sfvwrite+0x164>
8000b648:	306b0080 	andi	t3,v1,0x80
8000b64c:	55600016 	bnezl	t3,8000b6a8 <__sfvwrite+0x1b8>
8000b650:	8e850010 	lw	a1,16(s4)
8000b654:	0211a82b 	sltu	s5,s0,s1
8000b658:	8e840000 	lw	a0,0(s4)
8000b65c:	0215880b 	movn	s1,s0,s5
8000b660:	02203021 	move	a2,s1
8000b664:	0c002ee4 	jal	8000bb90 <memmove>
8000b668:	02602821 	move	a1,s3
8000b66c:	8e8f0008 	lw	t7,8(s4)
8000b670:	8e8e0000 	lw	t6,0(s4)
8000b674:	01f11823 	subu	v1,t7,s1
8000b678:	01d11021 	addu	v0,t6,s1
8000b67c:	02008821 	move	s1,s0
8000b680:	ae830008 	sw	v1,8(s4)
8000b684:	ae820000 	sw	v0,0(s4)
8000b688:	8ec80008 	lw	t0,8(s6)
8000b68c:	02719821 	addu	s3,s3,s1
8000b690:	02118023 	subu	s0,s0,s1
8000b694:	01111823 	subu	v1,t0,s1
8000b698:	1060ffca 	beqz	v1,8000b5c4 <__sfvwrite+0xd4>
8000b69c:	aec30008 	sw	v1,8(s6)
8000b6a0:	08002d87 	j	8000b61c <__sfvwrite+0x12c>
8000b6a4:	9683000c 	lhu	v1,12(s4)
8000b6a8:	8e8c0000 	lw	t4,0(s4)
8000b6ac:	3c178001 	lui	s7,0x8001
8000b6b0:	8ee4e348 	lw	a0,-7352(s7)
8000b6b4:	01858823 	subu	s1,t4,a1
8000b6b8:	0230a821 	addu	s5,s1,s0
8000b6bc:	0c003318 	jal	8000cc60 <_realloc_r>
8000b6c0:	02a03021 	move	a2,s5
8000b6c4:	10400007 	beqz	v0,8000b6e4 <__sfvwrite+0x1f4>
8000b6c8:	00516821 	addu	t5,v0,s1
8000b6cc:	ae8d0000 	sw	t5,0(s4)
8000b6d0:	ae950014 	sw	s5,20(s4)
8000b6d4:	ae820010 	sw	v0,16(s4)
8000b6d8:	ae900008 	sw	s0,8(s4)
8000b6dc:	08002d95 	j	8000b654 <__sfvwrite+0x164>
8000b6e0:	02008821 	move	s1,s0
8000b6e4:	8ee4e348 	lw	a0,-7352(s7)
8000b6e8:	0c0003d4 	jal	80000f50 <_free_r>
8000b6ec:	8e850010 	lw	a1,16(s4)
8000b6f0:	08002d7f 	j	8000b5fc <__sfvwrite+0x10c>
8000b6f4:	9692000c 	lhu	s2,12(s4)
8000b6f8:	8e840000 	lw	a0,0(s4)
8000b6fc:	8e980010 	lw	t8,16(s4)
8000b700:	0304b82b 	sltu	s7,t8,a0
8000b704:	52e00005 	beqzl	s7,8000b71c <__sfvwrite+0x22c>
8000b708:	8e910014 	lw	s1,20(s4)
8000b70c:	0230c82b 	sltu	t9,s1,s0
8000b710:	17200017 	bnez	t9,8000b770 <__sfvwrite+0x280>
8000b714:	02602821 	move	a1,s3
8000b718:	8e910014 	lw	s1,20(s4)
8000b71c:	0211202b 	sltu	a0,s0,s1
8000b720:	5480000a 	bnezl	a0,8000b74c <__sfvwrite+0x25c>
8000b724:	8e840000 	lw	a0,0(s4)
8000b728:	8e950024 	lw	s5,36(s4)
8000b72c:	8e84001c 	lw	a0,28(s4)
8000b730:	02203021 	move	a2,s1
8000b734:	02a0f809 	jalr	s5
8000b738:	02602821 	move	a1,s3
8000b73c:	1c40ffd2 	bgtz	v0,8000b688 <__sfvwrite+0x198>
8000b740:	00408821 	move	s1,v0
8000b744:	08002d7f 	j	8000b5fc <__sfvwrite+0x10c>
8000b748:	9692000c 	lhu	s2,12(s4)
8000b74c:	02602821 	move	a1,s3
8000b750:	0c002ee4 	jal	8000bb90 <memmove>
8000b754:	02003021 	move	a2,s0
8000b758:	8e820008 	lw	v0,8(s4)
8000b75c:	8e870000 	lw	a3,0(s4)
8000b760:	02008821 	move	s1,s0
8000b764:	00501823 	subu	v1,v0,s0
8000b768:	08002da0 	j	8000b680 <__sfvwrite+0x190>
8000b76c:	00f01021 	addu	v0,a3,s0
8000b770:	0c002ee4 	jal	8000bb90 <memmove>
8000b774:	02203021 	move	a2,s1
8000b778:	8e860000 	lw	a2,0(s4)
8000b77c:	02802021 	move	a0,s4
8000b780:	00d12821 	addu	a1,a2,s1
8000b784:	0c002cfc 	jal	8000b3f0 <fflush>
8000b788:	ae850000 	sw	a1,0(s4)
8000b78c:	5040ffbf 	beqzl	v0,8000b68c <__sfvwrite+0x19c>
8000b790:	8ec80008 	lw	t0,8(s6)
8000b794:	08002d7f 	j	8000b5fc <__sfvwrite+0x10c>
8000b798:	9692000c 	lhu	s2,12(s4)
8000b79c:	16000006 	bnez	s0,8000b7b8 <__sfvwrite+0x2c8>
8000b7a0:	00000000 	nop
8000b7a4:	0000b821 	move	s7,zero
8000b7a8:	8e500004 	lw	s0,4(s2)
8000b7ac:	8e530000 	lw	s3,0(s2)
8000b7b0:	1200fffd 	beqz	s0,8000b7a8 <__sfvwrite+0x2b8>
8000b7b4:	26520008 	addiu	s2,s2,8
8000b7b8:	12e00041 	beqz	s7,8000b8c0 <__sfvwrite+0x3d0>
8000b7bc:	02602021 	move	a0,s3
8000b7c0:	8e870000 	lw	a3,0(s4)
8000b7c4:	8e8d0010 	lw	t5,16(s4)
8000b7c8:	8e8a0008 	lw	t2,8(s4)
8000b7cc:	8e850014 	lw	a1,20(s4)
8000b7d0:	0215602b 	sltu	t4,s0,s5
8000b7d4:	02005821 	move	t3,s0
8000b7d8:	02ac580a 	movz	t3,s5,t4
8000b7dc:	01a7482b 	sltu	t1,t5,a3
8000b7e0:	01601821 	move	v1,t3
8000b7e4:	11200004 	beqz	t1,8000b7f8 <__sfvwrite+0x308>
8000b7e8:	01458821 	addu	s1,t2,a1
8000b7ec:	022b702a 	slt	t6,s1,t3
8000b7f0:	15c00027 	bnez	t6,8000b890 <__sfvwrite+0x3a0>
8000b7f4:	00e02021 	move	a0,a3
8000b7f8:	0065c82a 	slt	t9,v1,a1
8000b7fc:	57200019 	bnezl	t9,8000b864 <__sfvwrite+0x374>
8000b800:	8e840000 	lw	a0,0(s4)
8000b804:	8e820024 	lw	v0,36(s4)
8000b808:	8e84001c 	lw	a0,28(s4)
8000b80c:	00a03021 	move	a2,a1
8000b810:	0040f809 	jalr	v0
8000b814:	02602821 	move	a1,s3
8000b818:	1840ff77 	blez	v0,8000b5f8 <__sfvwrite+0x108>
8000b81c:	00408821 	move	s1,v0
8000b820:	02b1a823 	subu	s5,s5,s1
8000b824:	12a00009 	beqz	s5,8000b84c <__sfvwrite+0x35c>
8000b828:	00000000 	nop
8000b82c:	8ec80008 	lw	t0,8(s6)
8000b830:	02719821 	addu	s3,s3,s1
8000b834:	02118023 	subu	s0,s0,s1
8000b838:	01111823 	subu	v1,t0,s1
8000b83c:	1460ffd7 	bnez	v1,8000b79c <__sfvwrite+0x2ac>
8000b840:	aec30008 	sw	v1,8(s6)
8000b844:	08002d72 	j	8000b5c8 <__sfvwrite+0xd8>
8000b848:	00001821 	move	v1,zero
8000b84c:	0c002cfc 	jal	8000b3f0 <fflush>
8000b850:	02802021 	move	a0,s4
8000b854:	1440ff68 	bnez	v0,8000b5f8 <__sfvwrite+0x108>
8000b858:	0000b821 	move	s7,zero
8000b85c:	08002e0c 	j	8000b830 <__sfvwrite+0x340>
8000b860:	8ec80008 	lw	t0,8(s6)
8000b864:	02602821 	move	a1,s3
8000b868:	00603021 	move	a2,v1
8000b86c:	0c002ee4 	jal	8000bb90 <memmove>
8000b870:	00608821 	move	s1,v1
8000b874:	8e870008 	lw	a3,8(s4)
8000b878:	8e840000 	lw	a0,0(s4)
8000b87c:	00f13023 	subu	a2,a3,s1
8000b880:	00912821 	addu	a1,a0,s1
8000b884:	ae860008 	sw	a2,8(s4)
8000b888:	08002e08 	j	8000b820 <__sfvwrite+0x330>
8000b88c:	ae850000 	sw	a1,0(s4)
8000b890:	02602821 	move	a1,s3
8000b894:	0c002ee4 	jal	8000bb90 <memmove>
8000b898:	02203021 	move	a2,s1
8000b89c:	8e980000 	lw	t8,0(s4)
8000b8a0:	02802021 	move	a0,s4
8000b8a4:	03117821 	addu	t7,t8,s1
8000b8a8:	0c002cfc 	jal	8000b3f0 <fflush>
8000b8ac:	ae8f0000 	sw	t7,0(s4)
8000b8b0:	1040ffdc 	beqz	v0,8000b824 <__sfvwrite+0x334>
8000b8b4:	02b1a823 	subu	s5,s5,s1
8000b8b8:	08002d7f 	j	8000b5fc <__sfvwrite+0x10c>
8000b8bc:	9692000c 	lhu	s2,12(s4)
8000b8c0:	2405000a 	li	a1,10
8000b8c4:	0c002eac 	jal	8000bab0 <memchr>
8000b8c8:	02003021 	move	a2,s0
8000b8cc:	10400004 	beqz	v0,8000b8e0 <__sfvwrite+0x3f0>
8000b8d0:	00538823 	subu	s1,v0,s3
8000b8d4:	26350001 	addiu	s5,s1,1
8000b8d8:	08002df0 	j	8000b7c0 <__sfvwrite+0x2d0>
8000b8dc:	24170001 	li	s7,1
8000b8e0:	08002e36 	j	8000b8d8 <__sfvwrite+0x3e8>
8000b8e4:	26150001 	addiu	s5,s0,1
	...

8000b8f0 <_lseek_r>:
8000b8f0:	27bdffe0 	addiu	sp,sp,-32
8000b8f4:	00a04021 	move	t0,a1
8000b8f8:	afb10014 	sw	s1,20(sp)
8000b8fc:	00c02821 	move	a1,a2
8000b900:	afb00010 	sw	s0,16(sp)
8000b904:	00e03021 	move	a2,a3
8000b908:	00808821 	move	s1,a0
8000b90c:	3c108001 	lui	s0,0x8001
8000b910:	01002021 	move	a0,t0
8000b914:	afbf0018 	sw	ra,24(sp)
8000b918:	0c003530 	jal	8000d4c0 <lseek>
8000b91c:	ae00f708 	sw	zero,-2296(s0)
8000b920:	2405ffff 	li	a1,-1
8000b924:	10450006 	beq	v0,a1,8000b940 <_lseek_r+0x50>
8000b928:	8e03f708 	lw	v1,-2296(s0)
8000b92c:	8fbf0018 	lw	ra,24(sp)
8000b930:	8fb10014 	lw	s1,20(sp)
8000b934:	8fb00010 	lw	s0,16(sp)
8000b938:	03e00008 	jr	ra
8000b93c:	27bd0020 	addiu	sp,sp,32
8000b940:	5460fffa 	bnezl	v1,8000b92c <_lseek_r+0x3c>
8000b944:	ae230000 	sw	v1,0(s1)
8000b948:	08002e4c 	j	8000b930 <_lseek_r+0x40>
8000b94c:	8fbf0018 	lw	ra,24(sp)

8000b950 <__smakebuf>:
8000b950:	27bdff98 	addiu	sp,sp,-104
8000b954:	afb00050 	sw	s0,80(sp)
8000b958:	afbf0060 	sw	ra,96(sp)
8000b95c:	afb3005c 	sw	s3,92(sp)
8000b960:	afb20058 	sw	s2,88(sp)
8000b964:	afb10054 	sw	s1,84(sp)
8000b968:	9483000c 	lhu	v1,12(a0)
8000b96c:	00808021 	move	s0,a0
8000b970:	30640002 	andi	a0,v1,0x2
8000b974:	5080000d 	beqzl	a0,8000b9ac <__smakebuf+0x5c>
8000b978:	8605000e 	lh	a1,14(s0)
8000b97c:	26040043 	addiu	a0,s0,67
8000b980:	24030001 	li	v1,1
8000b984:	ae030014 	sw	v1,20(s0)
8000b988:	ae040010 	sw	a0,16(s0)
8000b98c:	ae040000 	sw	a0,0(s0)
8000b990:	8fbf0060 	lw	ra,96(sp)
8000b994:	8fb3005c 	lw	s3,92(sp)
8000b998:	8fb20058 	lw	s2,88(sp)
8000b99c:	8fb10054 	lw	s1,84(sp)
8000b9a0:	8fb00050 	lw	s0,80(sp)
8000b9a4:	03e00008 	jr	ra
8000b9a8:	27bd0068 	addiu	sp,sp,104
8000b9ac:	04a00039 	bltz	a1,8000ba94 <__smakebuf+0x144>
8000b9b0:	3c118001 	lui	s1,0x8001
8000b9b4:	8e24e348 	lw	a0,-7352(s1)
8000b9b8:	0c0034c0 	jal	8000d300 <_fstat_r>
8000b9bc:	27a60010 	addiu	a2,sp,16
8000b9c0:	04400033 	bltz	v0,8000ba90 <__smakebuf+0x140>
8000b9c4:	8fa80014 	lw	t0,20(sp)
8000b9c8:	34058000 	li	a1,0x8000
8000b9cc:	24120400 	li	s2,1024
8000b9d0:	3106f000 	andi	a2,t0,0xf000
8000b9d4:	38c72000 	xori	a3,a2,0x2000
8000b9d8:	10c50024 	beq	a2,a1,8000ba6c <__smakebuf+0x11c>
8000b9dc:	2cf30001 	sltiu	s3,a3,1
8000b9e0:	960d000c 	lhu	t5,12(s0)
8000b9e4:	35a20800 	ori	v0,t5,0x800
8000b9e8:	8e24e348 	lw	a0,-7352(s1)
8000b9ec:	a602000c 	sh	v0,12(s0)
8000b9f0:	0c0001cc 	jal	80000730 <_malloc_r>
8000b9f4:	24050400 	li	a1,1024
8000b9f8:	10400013 	beqz	v0,8000ba48 <__smakebuf+0xf8>
8000b9fc:	8e39e348 	lw	t9,-7352(s1)
8000ba00:	9603000c 	lhu	v1,12(s0)
8000ba04:	3c068000 	lui	a2,0x8000
8000ba08:	34780080 	ori	t8,v1,0x80
8000ba0c:	24c45904 	addiu	a0,a2,22788
8000ba10:	af24003c 	sw	a0,60(t9)
8000ba14:	a618000c 	sh	t8,12(s0)
8000ba18:	ae020010 	sw	v0,16(s0)
8000ba1c:	ae120014 	sw	s2,20(s0)
8000ba20:	1260ffdb 	beqz	s3,8000b990 <__smakebuf+0x40>
8000ba24:	ae020000 	sw	v0,0(s0)
8000ba28:	0c00350c 	jal	8000d430 <isatty>
8000ba2c:	8604000e 	lh	a0,14(s0)
8000ba30:	1040ffd8 	beqz	v0,8000b994 <__smakebuf+0x44>
8000ba34:	8fbf0060 	lw	ra,96(sp)
8000ba38:	9605000c 	lhu	a1,12(s0)
8000ba3c:	34b30001 	ori	s3,a1,0x1
8000ba40:	08002e65 	j	8000b994 <__smakebuf+0x44>
8000ba44:	a613000c 	sh	s3,12(s0)
8000ba48:	9612000c 	lhu	s2,12(s0)
8000ba4c:	260e0043 	addiu	t6,s0,67
8000ba50:	24110001 	li	s1,1
8000ba54:	364f0002 	ori	t7,s2,0x2
8000ba58:	ae110014 	sw	s1,20(s0)
8000ba5c:	a60f000c 	sh	t7,12(s0)
8000ba60:	ae0e0010 	sw	t6,16(s0)
8000ba64:	08002e64 	j	8000b990 <__smakebuf+0x40>
8000ba68:	ae0e0000 	sw	t6,0(s0)
8000ba6c:	8e0a0028 	lw	t2,40(s0)
8000ba70:	3c0b8000 	lui	t3,0x8000
8000ba74:	25696558 	addiu	t1,t3,25944
8000ba78:	5549ffda 	bnel	t2,t1,8000b9e4 <__smakebuf+0x94>
8000ba7c:	960d000c 	lhu	t5,12(s0)
8000ba80:	960c000c 	lhu	t4,12(s0)
8000ba84:	ae12004c 	sw	s2,76(s0)
8000ba88:	08002e7a 	j	8000b9e8 <__smakebuf+0x98>
8000ba8c:	35820400 	ori	v0,t4,0x400
8000ba90:	9603000c 	lhu	v1,12(s0)
8000ba94:	34620800 	ori	v0,v1,0x800
8000ba98:	00009821 	move	s3,zero
8000ba9c:	08002e7a 	j	8000b9e8 <__smakebuf+0x98>
8000baa0:	24120400 	li	s2,1024
	...

8000bab0 <memchr>:
8000bab0:	2cc70004 	sltiu	a3,a2,4
8000bab4:	14e00027 	bnez	a3,8000bb54 <memchr+0xa4>
8000bab8:	30a500ff 	andi	a1,a1,0xff
8000babc:	30830003 	andi	v1,a0,0x3
8000bac0:	54600025 	bnezl	v1,8000bb58 <memchr+0xa8>
8000bac4:	24c6ffff 	addiu	a2,a2,-1
8000bac8:	00804021 	move	t0,a0
8000bacc:	00004821 	move	t1,zero
8000bad0:	00002021 	move	a0,zero
8000bad4:	24840001 	addiu	a0,a0,1
8000bad8:	00091a00 	sll	v1,t1,0x8
8000badc:	2c8a0004 	sltiu	t2,a0,4
8000bae0:	1540fffc 	bnez	t2,8000bad4 <memchr+0x24>
8000bae4:	00654821 	addu	t1,v1,a1
8000bae8:	14e00019 	bnez	a3,8000bb50 <memchr+0xa0>
8000baec:	3c04fefe 	lui	a0,0xfefe
8000baf0:	3c028080 	lui	v0,0x8080
8000baf4:	348bfeff 	ori	t3,a0,0xfeff
8000baf8:	344a8080 	ori	t2,v0,0x8080
8000bafc:	8d180000 	lw	t8,0(t0)
8000bb00:	03097826 	xor	t7,t8,t1
8000bb04:	000f7027 	nor	t6,zero,t7
8000bb08:	01eb6821 	addu	t5,t7,t3
8000bb0c:	01ae6024 	and	t4,t5,t6
8000bb10:	018a3824 	and	a3,t4,t2
8000bb14:	50e0000b 	beqzl	a3,8000bb44 <memchr+0x94>
8000bb18:	24c6fffc 	addiu	a2,a2,-4
8000bb1c:	01002021 	move	a0,t0
8000bb20:	00003821 	move	a3,zero
8000bb24:	90990000 	lbu	t9,0(a0)
8000bb28:	13250016 	beq	t9,a1,8000bb84 <memchr+0xd4>
8000bb2c:	00801821 	move	v1,a0
8000bb30:	24e70001 	addiu	a3,a3,1
8000bb34:	2ce30004 	sltiu	v1,a3,4
8000bb38:	1460fffa 	bnez	v1,8000bb24 <memchr+0x74>
8000bb3c:	24840001 	addiu	a0,a0,1
8000bb40:	24c6fffc 	addiu	a2,a2,-4
8000bb44:	2cc40004 	sltiu	a0,a2,4
8000bb48:	1080ffec 	beqz	a0,8000bafc <memchr+0x4c>
8000bb4c:	25080004 	addiu	t0,t0,4
8000bb50:	01002021 	move	a0,t0
8000bb54:	24c6ffff 	addiu	a2,a2,-1
8000bb58:	2408ffff 	li	t0,-1
8000bb5c:	10c80009 	beq	a2,t0,8000bb84 <memchr+0xd4>
8000bb60:	00001821 	move	v1,zero
8000bb64:	2407ffff 	li	a3,-1
8000bb68:	90890000 	lbu	t1,0(a0)
8000bb6c:	11250005 	beq	t1,a1,8000bb84 <memchr+0xd4>
8000bb70:	00801821 	move	v1,a0
8000bb74:	24c6ffff 	addiu	a2,a2,-1
8000bb78:	14c7fffb 	bne	a2,a3,8000bb68 <memchr+0xb8>
8000bb7c:	24840001 	addiu	a0,a0,1
8000bb80:	00001821 	move	v1,zero
8000bb84:	03e00008 	jr	ra
8000bb88:	00601021 	move	v0,v1
8000bb8c:	00000000 	nop

8000bb90 <memmove>:
8000bb90:	00a4482b 	sltu	t1,a1,a0
8000bb94:	00a01821 	move	v1,a1
8000bb98:	00804021 	move	t0,a0
8000bb9c:	11200013 	beqz	t1,8000bbec <memmove+0x5c>
8000bba0:	00c03821 	move	a3,a2
8000bba4:	00a64821 	addu	t1,a1,a2
8000bba8:	0089502b 	sltu	t2,a0,t1
8000bbac:	51400010 	beqzl	t2,8000bbf0 <memmove+0x60>
8000bbb0:	2cc90010 	sltiu	t1,a2,16
8000bbb4:	24c7ffff 	addiu	a3,a2,-1
8000bbb8:	2403ffff 	li	v1,-1
8000bbbc:	00864021 	addu	t0,a0,a2
8000bbc0:	10e30008 	beq	a3,v1,8000bbe4 <memmove+0x54>
8000bbc4:	01202821 	move	a1,t1
8000bbc8:	2403ffff 	li	v1,-1
8000bbcc:	24a5ffff 	addiu	a1,a1,-1
8000bbd0:	90a60000 	lbu	a2,0(a1)
8000bbd4:	2508ffff 	addiu	t0,t0,-1
8000bbd8:	24e7ffff 	addiu	a3,a3,-1
8000bbdc:	14e3fffb 	bne	a3,v1,8000bbcc <memmove+0x3c>
8000bbe0:	a1060000 	sb	a2,0(t0)
8000bbe4:	03e00008 	jr	ra
8000bbe8:	00801021 	move	v0,a0
8000bbec:	2cc90010 	sltiu	t1,a2,16
8000bbf0:	55200026 	bnezl	t1,8000bc8c <memmove+0xfc>
8000bbf4:	24e7ffff 	addiu	a3,a3,-1
8000bbf8:	00646025 	or	t4,v1,a0
8000bbfc:	318b0003 	andi	t3,t4,0x3
8000bc00:	55600022 	bnezl	t3,8000bc8c <memmove+0xfc>
8000bc04:	24e7ffff 	addiu	a3,a3,-1
8000bc08:	00602821 	move	a1,v1
8000bc0c:	00803021 	move	a2,a0
8000bc10:	8cab0000 	lw	t3,0(a1)
8000bc14:	24a30004 	addiu	v1,a1,4
8000bc18:	24ca0004 	addiu	t2,a2,4
8000bc1c:	accb0000 	sw	t3,0(a2)
8000bc20:	8c690000 	lw	t1,0(v1)
8000bc24:	24790004 	addiu	t9,v1,4
8000bc28:	254f0004 	addiu	t7,t2,4
8000bc2c:	ad490000 	sw	t1,0(t2)
8000bc30:	8f380000 	lw	t8,0(t9)
8000bc34:	272d0004 	addiu	t5,t9,4
8000bc38:	24e7fff0 	addiu	a3,a3,-16
8000bc3c:	adf80000 	sw	t8,0(t7)
8000bc40:	8dae0000 	lw	t6,0(t5)
8000bc44:	25e20004 	addiu	v0,t7,4
8000bc48:	2ce80010 	sltiu	t0,a3,16
8000bc4c:	ac4e0000 	sw	t6,0(v0)
8000bc50:	25a50004 	addiu	a1,t5,4
8000bc54:	1100ffee 	beqz	t0,8000bc10 <memmove+0x80>
8000bc58:	24460004 	addiu	a2,v0,4
8000bc5c:	2cec0004 	sltiu	t4,a3,4
8000bc60:	15800009 	bnez	t4,8000bc88 <memmove+0xf8>
8000bc64:	00c04021 	move	t0,a2
8000bc68:	8cad0000 	lw	t5,0(a1)
8000bc6c:	24e7fffc 	addiu	a3,a3,-4
8000bc70:	2ce80004 	sltiu	t0,a3,4
8000bc74:	accd0000 	sw	t5,0(a2)
8000bc78:	24a50004 	addiu	a1,a1,4
8000bc7c:	1100fffa 	beqz	t0,8000bc68 <memmove+0xd8>
8000bc80:	24c60004 	addiu	a2,a2,4
8000bc84:	00c04021 	move	t0,a2
8000bc88:	24e7ffff 	addiu	a3,a3,-1
8000bc8c:	2406ffff 	li	a2,-1
8000bc90:	10e6ffd4 	beq	a3,a2,8000bbe4 <memmove+0x54>
8000bc94:	00000000 	nop
8000bc98:	2403ffff 	li	v1,-1
8000bc9c:	90ae0000 	lbu	t6,0(a1)
8000bca0:	24e7ffff 	addiu	a3,a3,-1
8000bca4:	24a50001 	addiu	a1,a1,1
8000bca8:	a10e0000 	sb	t6,0(t0)
8000bcac:	14e3fffb 	bne	a3,v1,8000bc9c <memmove+0x10c>
8000bcb0:	25080001 	addiu	t0,t0,1
8000bcb4:	08002ef9 	j	8000bbe4 <memmove+0x54>
8000bcb8:	00000000 	nop
8000bcbc:	00000000 	nop

8000bcc0 <_Balloc>:
8000bcc0:	27bdffe0 	addiu	sp,sp,-32
8000bcc4:	afb10014 	sw	s1,20(sp)
8000bcc8:	afb00010 	sw	s0,16(sp)
8000bccc:	afbf001c 	sw	ra,28(sp)
8000bcd0:	afb20018 	sw	s2,24(sp)
8000bcd4:	8c83004c 	lw	v1,76(a0)
8000bcd8:	00808021 	move	s0,a0
8000bcdc:	1060001e 	beqz	v1,8000bd58 <_Balloc+0x98>
8000bce0:	00a08821 	move	s1,a1
8000bce4:	00112880 	sll	a1,s1,0x2
8000bce8:	00a32021 	addu	a0,a1,v1
8000bcec:	8c830000 	lw	v1,0(a0)
8000bcf0:	5060000d 	beqzl	v1,8000bd28 <_Balloc+0x68>
8000bcf4:	24030001 	li	v1,1
8000bcf8:	8c650000 	lw	a1,0(v1)
8000bcfc:	ac850000 	sw	a1,0(a0)
8000bd00:	ac600010 	sw	zero,16(v1)
8000bd04:	ac60000c 	sw	zero,12(v1)
8000bd08:	00602021 	move	a0,v1
8000bd0c:	8fbf001c 	lw	ra,28(sp)
8000bd10:	8fb20018 	lw	s2,24(sp)
8000bd14:	8fb10014 	lw	s1,20(sp)
8000bd18:	8fb00010 	lw	s0,16(sp)
8000bd1c:	00801021 	move	v0,a0
8000bd20:	03e00008 	jr	ra
8000bd24:	27bd0020 	addiu	sp,sp,32
8000bd28:	02239004 	sllv	s2,v1,s1
8000bd2c:	00121080 	sll	v0,s2,0x2
8000bd30:	02002021 	move	a0,s0
8000bd34:	24460014 	addiu	a2,v0,20
8000bd38:	0c003494 	jal	8000d250 <_calloc_r>
8000bd3c:	24050001 	li	a1,1
8000bd40:	00401821 	move	v1,v0
8000bd44:	1040fff1 	beqz	v0,8000bd0c <_Balloc+0x4c>
8000bd48:	00002021 	move	a0,zero
8000bd4c:	ac510004 	sw	s1,4(v0)
8000bd50:	08002f40 	j	8000bd00 <_Balloc+0x40>
8000bd54:	ac520008 	sw	s2,8(v0)
8000bd58:	24050004 	li	a1,4
8000bd5c:	0c003494 	jal	8000d250 <_calloc_r>
8000bd60:	24060010 	li	a2,16
8000bd64:	ae02004c 	sw	v0,76(s0)
8000bd68:	1040ffe8 	beqz	v0,8000bd0c <_Balloc+0x4c>
8000bd6c:	00002021 	move	a0,zero
8000bd70:	08002f39 	j	8000bce4 <_Balloc+0x24>
8000bd74:	00401821 	move	v1,v0

8000bd78 <_multadd>:
8000bd78:	27bdffd8 	addiu	sp,sp,-40
8000bd7c:	afb40020 	sw	s4,32(sp)
8000bd80:	afb20018 	sw	s2,24(sp)
8000bd84:	afb00010 	sw	s0,16(sp)
8000bd88:	afbf0024 	sw	ra,36(sp)
8000bd8c:	afb3001c 	sw	s3,28(sp)
8000bd90:	afb10014 	sw	s1,20(sp)
8000bd94:	8cb10010 	lw	s1,16(a1)
8000bd98:	00e08021 	move	s0,a3
8000bd9c:	00a09021 	move	s2,a1
8000bda0:	0080a021 	move	s4,a0
8000bda4:	00c04821 	move	t1,a2
8000bda8:	24a70014 	addiu	a3,a1,20
8000bdac:	00004021 	move	t0,zero
8000bdb0:	8cee0000 	lw	t6,0(a3)
8000bdb4:	25080001 	addiu	t0,t0,1
8000bdb8:	0111502a 	slt	t2,t0,s1
8000bdbc:	31d3ffff 	andi	s3,t6,0xffff
8000bdc0:	72697802 	mul	t7,s3,t1
8000bdc4:	000e6c02 	srl	t5,t6,0x10
8000bdc8:	71a96002 	mul	t4,t5,t1
8000bdcc:	01f05821 	addu	t3,t7,s0
8000bdd0:	000b2402 	srl	a0,t3,0x10
8000bdd4:	3162ffff 	andi	v0,t3,0xffff
8000bdd8:	01843021 	addu	a2,t4,a0
8000bddc:	00062c00 	sll	a1,a2,0x10
8000bde0:	00a21821 	addu	v1,a1,v0
8000bde4:	ace30000 	sw	v1,0(a3)
8000bde8:	00068402 	srl	s0,a2,0x10
8000bdec:	1540fff0 	bnez	t2,8000bdb0 <_multadd+0x38>
8000bdf0:	24e70004 	addiu	a3,a3,4
8000bdf4:	1200000b 	beqz	s0,8000be24 <_multadd+0xac>
8000bdf8:	02401021 	move	v0,s2
8000bdfc:	8e480008 	lw	t0,8(s2)
8000be00:	0228382a 	slt	a3,s1,t0
8000be04:	50e0000f 	beqzl	a3,8000be44 <_multadd+0xcc>
8000be08:	8e580004 	lw	t8,4(s2)
8000be0c:	00116080 	sll	t4,s1,0x2
8000be10:	01922021 	addu	a0,t4,s2
8000be14:	262b0001 	addiu	t3,s1,1
8000be18:	ac900014 	sw	s0,20(a0)
8000be1c:	ae4b0010 	sw	t3,16(s2)
8000be20:	02401021 	move	v0,s2
8000be24:	8fbf0024 	lw	ra,36(sp)
8000be28:	8fb40020 	lw	s4,32(sp)
8000be2c:	8fb3001c 	lw	s3,28(sp)
8000be30:	8fb20018 	lw	s2,24(sp)
8000be34:	8fb10014 	lw	s1,20(sp)
8000be38:	8fb00010 	lw	s0,16(sp)
8000be3c:	03e00008 	jr	ra
8000be40:	27bd0028 	addiu	sp,sp,40
8000be44:	02802021 	move	a0,s4
8000be48:	0c002f30 	jal	8000bcc0 <_Balloc>
8000be4c:	27050001 	addiu	a1,t8,1
8000be50:	8e4a0010 	lw	t2,16(s2)
8000be54:	2444000c 	addiu	a0,v0,12
8000be58:	2645000c 	addiu	a1,s2,12
8000be5c:	000a4880 	sll	t1,t2,0x2
8000be60:	25260008 	addiu	a2,t1,8
8000be64:	0c0017e0 	jal	80005f80 <memcpy>
8000be68:	00409821 	move	s3,v0
8000be6c:	5240ffe7 	beqzl	s2,8000be0c <_multadd+0x94>
8000be70:	02609021 	move	s2,s3
8000be74:	8e450004 	lw	a1,4(s2)
8000be78:	8e83004c 	lw	v1,76(s4)
8000be7c:	00053080 	sll	a2,a1,0x2
8000be80:	00c3a021 	addu	s4,a2,v1
8000be84:	8e990000 	lw	t9,0(s4)
8000be88:	ae590000 	sw	t9,0(s2)
8000be8c:	ae920000 	sw	s2,0(s4)
8000be90:	08002f83 	j	8000be0c <_multadd+0x94>
8000be94:	02609021 	move	s2,s3

8000be98 <_hi0bits>:
8000be98:	3c03ffff 	lui	v1,0xffff
8000be9c:	00832824 	and	a1,a0,v1
8000bea0:	14a00003 	bnez	a1,8000beb0 <_hi0bits+0x18>
8000bea4:	00001821 	move	v1,zero
8000bea8:	24030010 	li	v1,16
8000beac:	00042400 	sll	a0,a0,0x10
8000beb0:	3c06ff00 	lui	a2,0xff00
8000beb4:	00862824 	and	a1,a0,a2
8000beb8:	14a00003 	bnez	a1,8000bec8 <_hi0bits+0x30>
8000bebc:	3c08f000 	lui	t0,0xf000
8000bec0:	24630008 	addiu	v1,v1,8
8000bec4:	00042200 	sll	a0,a0,0x8
8000bec8:	00883824 	and	a3,a0,t0
8000becc:	14e00003 	bnez	a3,8000bedc <_hi0bits+0x44>
8000bed0:	3c0ac000 	lui	t2,0xc000
8000bed4:	24630004 	addiu	v1,v1,4
8000bed8:	00042100 	sll	a0,a0,0x4
8000bedc:	008a4824 	and	t1,a0,t2
8000bee0:	15200003 	bnez	t1,8000bef0 <_hi0bits+0x58>
8000bee4:	00000000 	nop
8000bee8:	24630002 	addiu	v1,v1,2
8000beec:	00042080 	sll	a0,a0,0x2
8000bef0:	04800007 	bltz	a0,8000bf10 <_hi0bits+0x78>
8000bef4:	00602821 	move	a1,v1
8000bef8:	3c0c4000 	lui	t4,0x4000
8000befc:	008c5824 	and	t3,a0,t4
8000bf00:	24630001 	addiu	v1,v1,1
8000bf04:	11600002 	beqz	t3,8000bf10 <_hi0bits+0x78>
8000bf08:	24050020 	li	a1,32
8000bf0c:	00602821 	move	a1,v1
8000bf10:	03e00008 	jr	ra
8000bf14:	00a01021 	move	v0,a1

8000bf18 <_lo0bits>:
8000bf18:	8c830000 	lw	v1,0(a0)
8000bf1c:	30650007 	andi	a1,v1,0x7
8000bf20:	10a0000e 	beqz	a1,8000bf5c <_lo0bits+0x44>
8000bf24:	3067ffff 	andi	a3,v1,0xffff
8000bf28:	30660001 	andi	a2,v1,0x1
8000bf2c:	14c00007 	bnez	a2,8000bf4c <_lo0bits+0x34>
8000bf30:	00002821 	move	a1,zero
8000bf34:	30650002 	andi	a1,v1,0x2
8000bf38:	50a00006 	beqzl	a1,8000bf54 <_lo0bits+0x3c>
8000bf3c:	00031082 	srl	v0,v1,0x2
8000bf40:	00031042 	srl	v0,v1,0x1
8000bf44:	24050001 	li	a1,1
8000bf48:	ac820000 	sw	v0,0(a0)
8000bf4c:	03e00008 	jr	ra
8000bf50:	00a01021 	move	v0,a1
8000bf54:	08002fd2 	j	8000bf48 <_lo0bits+0x30>
8000bf58:	24050002 	li	a1,2
8000bf5c:	14e00003 	bnez	a3,8000bf6c <_lo0bits+0x54>
8000bf60:	00003021 	move	a2,zero
8000bf64:	24060010 	li	a2,16
8000bf68:	00031c02 	srl	v1,v1,0x10
8000bf6c:	306800ff 	andi	t0,v1,0xff
8000bf70:	15000004 	bnez	t0,8000bf84 <_lo0bits+0x6c>
8000bf74:	3069000f 	andi	t1,v1,0xf
8000bf78:	24c60008 	addiu	a2,a2,8
8000bf7c:	00031a02 	srl	v1,v1,0x8
8000bf80:	3069000f 	andi	t1,v1,0xf
8000bf84:	15200004 	bnez	t1,8000bf98 <_lo0bits+0x80>
8000bf88:	306a0003 	andi	t2,v1,0x3
8000bf8c:	24c60004 	addiu	a2,a2,4
8000bf90:	00031902 	srl	v1,v1,0x4
8000bf94:	306a0003 	andi	t2,v1,0x3
8000bf98:	15400004 	bnez	t2,8000bfac <_lo0bits+0x94>
8000bf9c:	306b0001 	andi	t3,v1,0x1
8000bfa0:	24c60002 	addiu	a2,a2,2
8000bfa4:	00031882 	srl	v1,v1,0x2
8000bfa8:	306b0001 	andi	t3,v1,0x1
8000bfac:	55600006 	bnezl	t3,8000bfc8 <_lo0bits+0xb0>
8000bfb0:	ac830000 	sw	v1,0(a0)
8000bfb4:	00031842 	srl	v1,v1,0x1
8000bfb8:	24c60001 	addiu	a2,a2,1
8000bfbc:	1060ffe3 	beqz	v1,8000bf4c <_lo0bits+0x34>
8000bfc0:	24050020 	li	a1,32
8000bfc4:	ac830000 	sw	v1,0(a0)
8000bfc8:	08002fd3 	j	8000bf4c <_lo0bits+0x34>
8000bfcc:	00c02821 	move	a1,a2

8000bfd0 <_multiply>:
8000bfd0:	27bdffd8 	addiu	sp,sp,-40
8000bfd4:	afb40020 	sw	s4,32(sp)
8000bfd8:	afb00010 	sw	s0,16(sp)
8000bfdc:	afbf0024 	sw	ra,36(sp)
8000bfe0:	afb3001c 	sw	s3,28(sp)
8000bfe4:	afb20018 	sw	s2,24(sp)
8000bfe8:	afb10014 	sw	s1,20(sp)
8000bfec:	8cb30010 	lw	s3,16(a1)
8000bff0:	8cd20010 	lw	s2,16(a2)
8000bff4:	00a08021 	move	s0,a1
8000bff8:	0272182a 	slt	v1,s3,s2
8000bffc:	10600005 	beqz	v1,8000c014 <_multiply+0x44>
8000c000:	00c0a021 	move	s4,a2
8000c004:	02409821 	move	s3,s2
8000c008:	8cb20010 	lw	s2,16(a1)
8000c00c:	00c08021 	move	s0,a2
8000c010:	00a0a021 	move	s4,a1
8000c014:	8e050008 	lw	a1,8(s0)
8000c018:	8e060004 	lw	a2,4(s0)
8000c01c:	02728821 	addu	s1,s3,s2
8000c020:	00b1382a 	slt	a3,a1,s1
8000c024:	0c002f30 	jal	8000bcc0 <_Balloc>
8000c028:	00c72821 	addu	a1,a2,a3
8000c02c:	244f0014 	addiu	t7,v0,20
8000c030:	0011c880 	sll	t9,s1,0x2
8000c034:	01f97021 	addu	t6,t7,t9
8000c038:	01ee182b 	sltu	v1,t7,t6
8000c03c:	0040c021 	move	t8,v0
8000c040:	10600006 	beqz	v1,8000c05c <_multiply+0x8c>
8000c044:	01e04821 	move	t1,t7
8000c048:	ad200000 	sw	zero,0(t1)
8000c04c:	25290004 	addiu	t1,t1,4
8000c050:	012e202b 	sltu	a0,t1,t6
8000c054:	5480fffd 	bnezl	a0,8000c04c <_multiply+0x7c>
8000c058:	ad200000 	sw	zero,0(t1)
8000c05c:	26860014 	addiu	a2,s4,20
8000c060:	00125080 	sll	t2,s2,0x2
8000c064:	00ca9021 	addu	s2,a2,t2
8000c068:	260e0014 	addiu	t6,s0,20
8000c06c:	00134880 	sll	t1,s3,0x2
8000c070:	00d2402b 	sltu	t0,a2,s2
8000c074:	01c96021 	addu	t4,t6,t1
8000c078:	1100003f 	beqz	t0,8000c178 <_multiply+0x1a8>
8000c07c:	01e06821 	move	t5,t7
8000c080:	8cc20000 	lw	v0,0(a2)
8000c084:	304bffff 	andi	t3,v0,0xffff
8000c088:	5160001b 	beqzl	t3,8000c0f8 <_multiply+0x128>
8000c08c:	00025c02 	srl	t3,v0,0x10
8000c090:	01c04821 	move	t1,t6
8000c094:	01a04021 	move	t0,t5
8000c098:	00005021 	move	t2,zero
8000c09c:	8d250000 	lw	a1,0(t1)
8000c0a0:	8d130000 	lw	s3,0(t0)
8000c0a4:	25290004 	addiu	t1,t1,4
8000c0a8:	30a7ffff 	andi	a3,a1,0xffff
8000c0ac:	70eb1802 	mul	v1,a3,t3
8000c0b0:	3274ffff 	andi	s4,s3,0xffff
8000c0b4:	00058402 	srl	s0,a1,0x10
8000c0b8:	00133c02 	srl	a3,s3,0x10
8000c0bc:	00742021 	addu	a0,v1,s4
8000c0c0:	008aa021 	addu	s4,a0,t2
8000c0c4:	720b5002 	mul	t2,s0,t3
8000c0c8:	00141402 	srl	v0,s4,0x10
8000c0cc:	012c802b 	sltu	s0,t1,t4
8000c0d0:	a5140000 	sh	s4,0(t0)
8000c0d4:	01471821 	addu	v1,t2,a3
8000c0d8:	00629821 	addu	s3,v1,v0
8000c0dc:	a5130002 	sh	s3,2(t0)
8000c0e0:	00135402 	srl	t2,s3,0x10
8000c0e4:	1600ffed 	bnez	s0,8000c09c <_multiply+0xcc>
8000c0e8:	25080004 	addiu	t0,t0,4
8000c0ec:	ad0a0000 	sw	t2,0(t0)
8000c0f0:	8cc20000 	lw	v0,0(a2)
8000c0f4:	00025c02 	srl	t3,v0,0x10
8000c0f8:	5160001c 	beqzl	t3,8000c16c <_multiply+0x19c>
8000c0fc:	24c60004 	addiu	a2,a2,4
8000c100:	8da50000 	lw	a1,0(t5)
8000c104:	01a04021 	move	t0,t5
8000c108:	01c04821 	move	t1,t6
8000c10c:	00005021 	move	t2,zero
8000c110:	00a02021 	move	a0,a1
8000c114:	8d270000 	lw	a3,0(t1)
8000c118:	a5050000 	sh	a1,0(t0)
8000c11c:	00049c02 	srl	s3,a0,0x10
8000c120:	30e5ffff 	andi	a1,a3,0xffff
8000c124:	70aba002 	mul	s4,a1,t3
8000c128:	00072c02 	srl	a1,a3,0x10
8000c12c:	25290004 	addiu	t1,t1,4
8000c130:	70ab1002 	mul	v0,a1,t3
8000c134:	02931821 	addu	v1,s4,s3
8000c138:	006a8021 	addu	s0,v1,t2
8000c13c:	a5100002 	sh	s0,2(t0)
8000c140:	25080004 	addiu	t0,t0,4
8000c144:	8d040000 	lw	a0,0(t0)
8000c148:	00109c02 	srl	s3,s0,0x10
8000c14c:	012c802b 	sltu	s0,t1,t4
8000c150:	3094ffff 	andi	s4,a0,0xffff
8000c154:	00545021 	addu	t2,v0,s4
8000c158:	01532821 	addu	a1,t2,s3
8000c15c:	1600ffed 	bnez	s0,8000c114 <_multiply+0x144>
8000c160:	00055402 	srl	t2,a1,0x10
8000c164:	ad050000 	sw	a1,0(t0)
8000c168:	24c60004 	addiu	a2,a2,4
8000c16c:	00d2582b 	sltu	t3,a2,s2
8000c170:	1560ffc3 	bnez	t3,8000c080 <_multiply+0xb0>
8000c174:	25ad0004 	addiu	t5,t5,4
8000c178:	1a20000b 	blez	s1,8000c1a8 <_multiply+0x1d8>
8000c17c:	01f94021 	addu	t0,t7,t9
8000c180:	2508fffc 	addiu	t0,t0,-4
8000c184:	8d0c0000 	lw	t4,0(t0)
8000c188:	55800008 	bnezl	t4,8000c1ac <_multiply+0x1dc>
8000c18c:	af110010 	sw	s1,16(t8)
8000c190:	2631ffff 	addiu	s1,s1,-1
8000c194:	1a200004 	blez	s1,8000c1a8 <_multiply+0x1d8>
8000c198:	2508fffc 	addiu	t0,t0,-4
8000c19c:	8d0d0000 	lw	t5,0(t0)
8000c1a0:	51a0fffc 	beqzl	t5,8000c194 <_multiply+0x1c4>
8000c1a4:	2631ffff 	addiu	s1,s1,-1
8000c1a8:	af110010 	sw	s1,16(t8)
8000c1ac:	8fbf0024 	lw	ra,36(sp)
8000c1b0:	8fb40020 	lw	s4,32(sp)
8000c1b4:	8fb3001c 	lw	s3,28(sp)
8000c1b8:	8fb20018 	lw	s2,24(sp)
8000c1bc:	8fb10014 	lw	s1,20(sp)
8000c1c0:	8fb00010 	lw	s0,16(sp)
8000c1c4:	03001021 	move	v0,t8
8000c1c8:	03e00008 	jr	ra
8000c1cc:	27bd0028 	addiu	sp,sp,40

8000c1d0 <_pow5mult>:
8000c1d0:	27bdffd8 	addiu	sp,sp,-40
8000c1d4:	30c30003 	andi	v1,a2,0x3
8000c1d8:	afb3001c 	sw	s3,28(sp)
8000c1dc:	afb20018 	sw	s2,24(sp)
8000c1e0:	afb10014 	sw	s1,20(sp)
8000c1e4:	afbf0020 	sw	ra,32(sp)
8000c1e8:	afb00010 	sw	s0,16(sp)
8000c1ec:	00c08821 	move	s1,a2
8000c1f0:	00809821 	move	s3,a0
8000c1f4:	1460003a 	bnez	v1,8000c2e0 <_pow5mult+0x110>
8000c1f8:	00a09021 	move	s2,a1
8000c1fc:	00118883 	sra	s1,s1,0x2
8000c200:	12200019 	beqz	s1,8000c268 <_pow5mult+0x98>
8000c204:	02401021 	move	v0,s2
8000c208:	8e700048 	lw	s0,72(s3)
8000c20c:	5200002a 	beqzl	s0,8000c2b8 <_pow5mult+0xe8>
8000c210:	02602021 	move	a0,s3
8000c214:	32290001 	andi	t1,s1,0x1
8000c218:	02402821 	move	a1,s2
8000c21c:	00118843 	sra	s1,s1,0x1
8000c220:	02003021 	move	a2,s0
8000c224:	15200017 	bnez	t1,8000c284 <_pow5mult+0xb4>
8000c228:	02602021 	move	a0,s3
8000c22c:	02002821 	move	a1,s0
8000c230:	02003021 	move	a2,s0
8000c234:	1220000b 	beqz	s1,8000c264 <_pow5mult+0x94>
8000c238:	02602021 	move	a0,s3
8000c23c:	8e020000 	lw	v0,0(s0)
8000c240:	10400003 	beqz	v0,8000c250 <_pow5mult+0x80>
8000c244:	00000000 	nop
8000c248:	08003085 	j	8000c214 <_pow5mult+0x44>
8000c24c:	00408021 	move	s0,v0
8000c250:	0c002ff4 	jal	8000bfd0 <_multiply>
8000c254:	00000000 	nop
8000c258:	ae020000 	sw	v0,0(s0)
8000c25c:	08003092 	j	8000c248 <_pow5mult+0x78>
8000c260:	ac400000 	sw	zero,0(v0)
8000c264:	02401021 	move	v0,s2
8000c268:	8fbf0020 	lw	ra,32(sp)
8000c26c:	8fb3001c 	lw	s3,28(sp)
8000c270:	8fb20018 	lw	s2,24(sp)
8000c274:	8fb10014 	lw	s1,20(sp)
8000c278:	8fb00010 	lw	s0,16(sp)
8000c27c:	03e00008 	jr	ra
8000c280:	27bd0028 	addiu	sp,sp,40
8000c284:	0c002ff4 	jal	8000bfd0 <_multiply>
8000c288:	00000000 	nop
8000c28c:	12400008 	beqz	s2,8000c2b0 <_pow5mult+0xe0>
8000c290:	00402821 	move	a1,v0
8000c294:	8e4e0004 	lw	t6,4(s2)
8000c298:	8e6d004c 	lw	t5,76(s3)
8000c29c:	000e6080 	sll	t4,t6,0x2
8000c2a0:	018d5021 	addu	t2,t4,t5
8000c2a4:	8d4b0000 	lw	t3,0(t2)
8000c2a8:	ae4b0000 	sw	t3,0(s2)
8000c2ac:	ad520000 	sw	s2,0(t2)
8000c2b0:	0800308b 	j	8000c22c <_pow5mult+0x5c>
8000c2b4:	00a09021 	move	s2,a1
8000c2b8:	0c002f30 	jal	8000bcc0 <_Balloc>
8000c2bc:	24050001 	li	a1,1
8000c2c0:	24040271 	li	a0,625
8000c2c4:	24030001 	li	v1,1
8000c2c8:	ae620048 	sw	v0,72(s3)
8000c2cc:	00408021 	move	s0,v0
8000c2d0:	ac440014 	sw	a0,20(v0)
8000c2d4:	ac430010 	sw	v1,16(v0)
8000c2d8:	08003085 	j	8000c214 <_pow5mult+0x44>
8000c2dc:	ac400000 	sw	zero,0(v0)
8000c2e0:	3c078001 	lui	a3,0x8001
8000c2e4:	00033080 	sll	a2,v1,0x2
8000c2e8:	24e8f4d0 	addiu	t0,a3,-2864
8000c2ec:	00c83821 	addu	a3,a2,t0
8000c2f0:	8ce6fffc 	lw	a2,-4(a3)
8000c2f4:	0c002f5e 	jal	8000bd78 <_multadd>
8000c2f8:	00003821 	move	a3,zero
8000c2fc:	0800307f 	j	8000c1fc <_pow5mult+0x2c>
8000c300:	00409021 	move	s2,v0

8000c304 <_lshift>:
8000c304:	27bdffd8 	addiu	sp,sp,-40
8000c308:	afb40020 	sw	s4,32(sp)
8000c30c:	afb3001c 	sw	s3,28(sp)
8000c310:	afb20018 	sw	s2,24(sp)
8000c314:	afb10014 	sw	s1,20(sp)
8000c318:	afb00010 	sw	s0,16(sp)
8000c31c:	afbf0024 	sw	ra,36(sp)
8000c320:	00a09821 	move	s3,a1
8000c324:	8ca50010 	lw	a1,16(a1)
8000c328:	00068943 	sra	s1,a2,0x5
8000c32c:	00c08021 	move	s0,a2
8000c330:	8e660008 	lw	a2,8(s3)
8000c334:	02251821 	addu	v1,s1,a1
8000c338:	24720001 	addiu	s2,v1,1
8000c33c:	00d2102a 	slt	v0,a2,s2
8000c340:	0080a021 	move	s4,a0
8000c344:	10400005 	beqz	v0,8000c35c <_lshift+0x58>
8000c348:	8e650004 	lw	a1,4(s3)
8000c34c:	00063040 	sll	a2,a2,0x1
8000c350:	00d2202a 	slt	a0,a2,s2
8000c354:	1480fffd 	bnez	a0,8000c34c <_lshift+0x48>
8000c358:	24a50001 	addiu	a1,a1,1
8000c35c:	0c002f30 	jal	8000bcc0 <_Balloc>
8000c360:	02802021 	move	a0,s4
8000c364:	00404021 	move	t0,v0
8000c368:	1a200006 	blez	s1,8000c384 <_lshift+0x80>
8000c36c:	24470014 	addiu	a3,v0,20
8000c370:	02203021 	move	a2,s1
8000c374:	24c6ffff 	addiu	a2,a2,-1
8000c378:	ace00000 	sw	zero,0(a3)
8000c37c:	14c0fffd 	bnez	a2,8000c374 <_lshift+0x70>
8000c380:	24e70004 	addiu	a3,a3,4
8000c384:	8e660010 	lw	a2,16(s3)
8000c388:	26640014 	addiu	a0,s3,20
8000c38c:	3210001f 	andi	s0,s0,0x1f
8000c390:	00064880 	sll	t1,a2,0x2
8000c394:	12000024 	beqz	s0,8000c428 <_lshift+0x124>
8000c398:	00893021 	addu	a2,a0,t1
8000c39c:	240a0020 	li	t2,32
8000c3a0:	01502823 	subu	a1,t2,s0
8000c3a4:	00001821 	move	v1,zero
8000c3a8:	8c8e0000 	lw	t6,0(a0)
8000c3ac:	020e6804 	sllv	t5,t6,s0
8000c3b0:	01a36025 	or	t4,t5,v1
8000c3b4:	acec0000 	sw	t4,0(a3)
8000c3b8:	8c820000 	lw	v0,0(a0)
8000c3bc:	24840004 	addiu	a0,a0,4
8000c3c0:	0086582b 	sltu	t3,a0,a2
8000c3c4:	00a21806 	srlv	v1,v0,a1
8000c3c8:	1560fff7 	bnez	t3,8000c3a8 <_lshift+0xa4>
8000c3cc:	24e70004 	addiu	a3,a3,4
8000c3d0:	10600002 	beqz	v1,8000c3dc <_lshift+0xd8>
8000c3d4:	ace30000 	sw	v1,0(a3)
8000c3d8:	26520001 	addiu	s2,s2,1
8000c3dc:	2647ffff 	addiu	a3,s2,-1
8000c3e0:	12600008 	beqz	s3,8000c404 <_lshift+0x100>
8000c3e4:	ad070010 	sw	a3,16(t0)
8000c3e8:	8e790004 	lw	t9,4(s3)
8000c3ec:	8e98004c 	lw	t8,76(s4)
8000c3f0:	0019a080 	sll	s4,t9,0x2
8000c3f4:	02988821 	addu	s1,s4,t8
8000c3f8:	8e320000 	lw	s2,0(s1)
8000c3fc:	ae720000 	sw	s2,0(s3)
8000c400:	ae330000 	sw	s3,0(s1)
8000c404:	8fbf0024 	lw	ra,36(sp)
8000c408:	8fb40020 	lw	s4,32(sp)
8000c40c:	8fb3001c 	lw	s3,28(sp)
8000c410:	8fb20018 	lw	s2,24(sp)
8000c414:	8fb10014 	lw	s1,20(sp)
8000c418:	8fb00010 	lw	s0,16(sp)
8000c41c:	01001021 	move	v0,t0
8000c420:	03e00008 	jr	ra
8000c424:	27bd0028 	addiu	sp,sp,40
8000c428:	8c900000 	lw	s0,0(a0)
8000c42c:	24840004 	addiu	a0,a0,4
8000c430:	0086782b 	sltu	t7,a0,a2
8000c434:	acf00000 	sw	s0,0(a3)
8000c438:	15e0fffb 	bnez	t7,8000c428 <_lshift+0x124>
8000c43c:	24e70004 	addiu	a3,a3,4
8000c440:	080030f8 	j	8000c3e0 <_lshift+0xdc>
8000c444:	2647ffff 	addiu	a3,s2,-1

8000c448 <__mdiff>:
8000c448:	27bdffe0 	addiu	sp,sp,-32
8000c44c:	afb20018 	sw	s2,24(sp)
8000c450:	afb10014 	sw	s1,20(sp)
8000c454:	afbf001c 	sw	ra,28(sp)
8000c458:	afb00010 	sw	s0,16(sp)
8000c45c:	00a08821 	move	s1,a1
8000c460:	8cc30010 	lw	v1,16(a2)
8000c464:	8ca50010 	lw	a1,16(a1)
8000c468:	00805821 	move	t3,a0
8000c46c:	00c09021 	move	s2,a2
8000c470:	00a32023 	subu	a0,a1,v1
8000c474:	14800013 	bnez	a0,8000c4c4 <__mdiff+0x7c>
8000c478:	00803821 	move	a3,a0
8000c47c:	00032080 	sll	a0,v1,0x2
8000c480:	24c60014 	addiu	a2,a2,20
8000c484:	262a0014 	addiu	t2,s1,20
8000c488:	00c44021 	addu	t0,a2,a0
8000c48c:	01443021 	addu	a2,t2,a0
8000c490:	24c6fffc 	addiu	a2,a2,-4
8000c494:	2508fffc 	addiu	t0,t0,-4
8000c498:	8cc30000 	lw	v1,0(a2)
8000c49c:	8d0c0000 	lw	t4,0(t0)
8000c4a0:	2407ffff 	li	a3,-1
8000c4a4:	240d0001 	li	t5,1
8000c4a8:	006c102b 	sltu	v0,v1,t4
8000c4ac:	0146482b 	sltu	t1,t2,a2
8000c4b0:	146c0004 	bne	v1,t4,8000c4c4 <__mdiff+0x7c>
8000c4b4:	01a2380a 	movz	a3,t5,v0
8000c4b8:	5520fff6 	bnezl	t1,8000c494 <__mdiff+0x4c>
8000c4bc:	24c6fffc 	addiu	a2,a2,-4
8000c4c0:	00003821 	move	a3,zero
8000c4c4:	10e0004a 	beqz	a3,8000c5f0 <__mdiff+0x1a8>
8000c4c8:	01602021 	move	a0,t3
8000c4cc:	04e00044 	bltz	a3,8000c5e0 <__mdiff+0x198>
8000c4d0:	02204021 	move	t0,s1
8000c4d4:	00008021 	move	s0,zero
8000c4d8:	8e250004 	lw	a1,4(s1)
8000c4dc:	0c002f30 	jal	8000bcc0 <_Balloc>
8000c4e0:	01602021 	move	a0,t3
8000c4e4:	8e2a0010 	lw	t2,16(s1)
8000c4e8:	8e4f0010 	lw	t7,16(s2)
8000c4ec:	26290014 	addiu	t1,s1,20
8000c4f0:	000a5880 	sll	t3,t2,0x2
8000c4f4:	26460014 	addiu	a2,s2,20
8000c4f8:	000f7080 	sll	t6,t7,0x2
8000c4fc:	012b6821 	addu	t5,t1,t3
8000c500:	00406021 	move	t4,v0
8000c504:	ac50000c 	sw	s0,12(v0)
8000c508:	00ce5821 	addu	t3,a2,t6
8000c50c:	24470014 	addiu	a3,v0,20
8000c510:	00004021 	move	t0,zero
8000c514:	8d250000 	lw	a1,0(t1)
8000c518:	8cce0000 	lw	t6,0(a2)
8000c51c:	24c60004 	addiu	a2,a2,4
8000c520:	30afffff 	andi	t7,a1,0xffff
8000c524:	31d0ffff 	andi	s0,t6,0xffff
8000c528:	01f02023 	subu	a0,t7,s0
8000c52c:	00889021 	addu	s2,a0,t0
8000c530:	00051c02 	srl	v1,a1,0x10
8000c534:	000e1402 	srl	v0,t6,0x10
8000c538:	0062c823 	subu	t9,v1,v0
8000c53c:	0012c403 	sra	t8,s2,0x10
8000c540:	03388821 	addu	s1,t9,t8
8000c544:	00cb802b 	sltu	s0,a2,t3
8000c548:	a4f10002 	sh	s1,2(a3)
8000c54c:	a4f20000 	sh	s2,0(a3)
8000c550:	25290004 	addiu	t1,t1,4
8000c554:	00114403 	sra	t0,s1,0x10
8000c558:	1600ffee 	bnez	s0,8000c514 <__mdiff+0xcc>
8000c55c:	24e70004 	addiu	a3,a3,4
8000c560:	012d302b 	sltu	a2,t1,t5
8000c564:	50c0000f 	beqzl	a2,8000c5a4 <__mdiff+0x15c>
8000c568:	24e7fffc 	addiu	a3,a3,-4
8000c56c:	8d390000 	lw	t9,0(t1)
8000c570:	25290004 	addiu	t1,t1,4
8000c574:	012d582b 	sltu	t3,t1,t5
8000c578:	3322ffff 	andi	v0,t9,0xffff
8000c57c:	00489021 	addu	s2,v0,t0
8000c580:	0012c403 	sra	t8,s2,0x10
8000c584:	00194402 	srl	t0,t9,0x10
8000c588:	01188821 	addu	s1,t0,t8
8000c58c:	a4f10002 	sh	s1,2(a3)
8000c590:	a4f20000 	sh	s2,0(a3)
8000c594:	00114403 	sra	t0,s1,0x10
8000c598:	1560fff4 	bnez	t3,8000c56c <__mdiff+0x124>
8000c59c:	24e70004 	addiu	a3,a3,4
8000c5a0:	24e7fffc 	addiu	a3,a3,-4
8000c5a4:	8ce90000 	lw	t1,0(a3)
8000c5a8:	55200006 	bnezl	t1,8000c5c4 <__mdiff+0x17c>
8000c5ac:	ad8a0010 	sw	t2,16(t4)
8000c5b0:	24e7fffc 	addiu	a3,a3,-4
8000c5b4:	8ced0000 	lw	t5,0(a3)
8000c5b8:	11a0fffd 	beqz	t5,8000c5b0 <__mdiff+0x168>
8000c5bc:	254affff 	addiu	t2,t2,-1
8000c5c0:	ad8a0010 	sw	t2,16(t4)
8000c5c4:	8fbf001c 	lw	ra,28(sp)
8000c5c8:	8fb20018 	lw	s2,24(sp)
8000c5cc:	8fb10014 	lw	s1,20(sp)
8000c5d0:	8fb00010 	lw	s0,16(sp)
8000c5d4:	01801021 	move	v0,t4
8000c5d8:	03e00008 	jr	ra
8000c5dc:	27bd0020 	addiu	sp,sp,32
8000c5e0:	24100001 	li	s0,1
8000c5e4:	02408821 	move	s1,s2
8000c5e8:	08003136 	j	8000c4d8 <__mdiff+0x90>
8000c5ec:	01009021 	move	s2,t0
8000c5f0:	0c002f30 	jal	8000bcc0 <_Balloc>
8000c5f4:	00002821 	move	a1,zero
8000c5f8:	00406021 	move	t4,v0
8000c5fc:	24070001 	li	a3,1
8000c600:	ac470010 	sw	a3,16(v0)
8000c604:	08003171 	j	8000c5c4 <__mdiff+0x17c>
8000c608:	ac400014 	sw	zero,20(v0)

8000c60c <_ulp>:
8000c60c:	44046000 	mfc1	a0,$f12
8000c610:	44056800 	mfc1	a1,$f13
8000c614:	3c047ff0 	lui	a0,0x7ff0
8000c618:	00a41824 	and	v1,a1,a0
8000c61c:	3c05fcc0 	lui	a1,0xfcc0
8000c620:	00652021 	addu	a0,v1,a1
8000c624:	00041023 	negu	v0,a0
8000c628:	18800005 	blez	a0,8000c640 <_ulp+0x34>
8000c62c:	00803821 	move	a3,a0
8000c630:	00003021 	move	a2,zero
8000c634:	44860000 	mtc1	a2,$f0
8000c638:	03e00008 	jr	ra
8000c63c:	44870800 	mtc1	a3,$f1
8000c640:	00022503 	sra	a0,v0,0x14
8000c644:	28850014 	slti	a1,a0,20
8000c648:	50a00004 	beqzl	a1,8000c65c <_ulp+0x50>
8000c64c:	2487ffec 	addiu	a3,a0,-20
8000c650:	3c060008 	lui	a2,0x8
8000c654:	0800318c 	j	8000c630 <_ulp+0x24>
8000c658:	00863807 	srav	a3,a2,a0
8000c65c:	00074827 	nor	t1,zero,a3
8000c660:	24080001 	li	t0,1
8000c664:	28e2001f 	slti	v0,a3,31
8000c668:	01281804 	sllv	v1,t0,t1
8000c66c:	14400002 	bnez	v0,8000c678 <_ulp+0x6c>
8000c670:	00003821 	move	a3,zero
8000c674:	24030001 	li	v1,1
8000c678:	0800318d 	j	8000c634 <_ulp+0x28>
8000c67c:	00603021 	move	a2,v1

8000c680 <_b2d>:
8000c680:	27bdffd0 	addiu	sp,sp,-48
8000c684:	afb40020 	sw	s4,32(sp)
8000c688:	afb3001c 	sw	s3,28(sp)
8000c68c:	afb10014 	sw	s1,20(sp)
8000c690:	afbf0028 	sw	ra,40(sp)
8000c694:	afb50024 	sw	s5,36(sp)
8000c698:	afb20018 	sw	s2,24(sp)
8000c69c:	afb00010 	sw	s0,16(sp)
8000c6a0:	8c870010 	lw	a3,16(a0)
8000c6a4:	24930014 	addiu	s3,a0,20
8000c6a8:	00a0a021 	move	s4,a1
8000c6ac:	00073080 	sll	a2,a3,0x2
8000c6b0:	02662821 	addu	a1,s3,a2
8000c6b4:	24b1fffc 	addiu	s1,a1,-4
8000c6b8:	8e320000 	lw	s2,0(s1)
8000c6bc:	0c002fa6 	jal	8000be98 <_hi0bits>
8000c6c0:	02402021 	move	a0,s2
8000c6c4:	24040020 	li	a0,32
8000c6c8:	00821823 	subu	v1,a0,v0
8000c6cc:	2844000b 	slti	a0,v0,11
8000c6d0:	00402821 	move	a1,v0
8000c6d4:	1080001b 	beqz	a0,8000c744 <_b2d+0xc4>
8000c6d8:	ae830000 	sw	v1,0(s4)
8000c6dc:	240c000b 	li	t4,11
8000c6e0:	01825823 	subu	t3,t4,v0
8000c6e4:	01725006 	srlv	t2,s2,t3
8000c6e8:	3c093ff0 	lui	t1,0x3ff0
8000c6ec:	0271402b 	sltu	t0,s3,s1
8000c6f0:	0149a825 	or	s5,t2,t1
8000c6f4:	11000002 	beqz	t0,8000c700 <_b2d+0x80>
8000c6f8:	00003021 	move	a2,zero
8000c6fc:	8e26fffc 	lw	a2,-4(s1)
8000c700:	2402000b 	li	v0,11
8000c704:	00456823 	subu	t5,v0,a1
8000c708:	24ae0015 	addiu	t6,a1,21
8000c70c:	01d21004 	sllv	v0,s2,t6
8000c710:	01a61806 	srlv	v1,a2,t5
8000c714:	0062a025 	or	s4,v1,v0
8000c718:	44940000 	mtc1	s4,$f0
8000c71c:	44950800 	mtc1	s5,$f1
8000c720:	8fbf0028 	lw	ra,40(sp)
8000c724:	8fb50024 	lw	s5,36(sp)
8000c728:	8fb40020 	lw	s4,32(sp)
8000c72c:	8fb3001c 	lw	s3,28(sp)
8000c730:	8fb20018 	lw	s2,24(sp)
8000c734:	8fb10014 	lw	s1,20(sp)
8000c738:	8fb00010 	lw	s0,16(sp)
8000c73c:	03e00008 	jr	ra
8000c740:	27bd0030 	addiu	sp,sp,48
8000c744:	0271782b 	sltu	t7,s3,s1
8000c748:	11e00003 	beqz	t7,8000c758 <_b2d+0xd8>
8000c74c:	00003021 	move	a2,zero
8000c750:	2631fffc 	addiu	s1,s1,-4
8000c754:	8e260000 	lw	a2,0(s1)
8000c758:	24a5fff5 	addiu	a1,a1,-11
8000c75c:	50a0000f 	beqzl	a1,8000c79c <_b2d+0x11c>
8000c760:	3c133ff0 	lui	s3,0x3ff0
8000c764:	0005a023 	negu	s4,a1
8000c768:	00b2a804 	sllv	s5,s2,a1
8000c76c:	0286c806 	srlv	t9,a2,s4
8000c770:	3c123ff0 	lui	s2,0x3ff0
8000c774:	02b9c025 	or	t8,s5,t9
8000c778:	0271802b 	sltu	s0,s3,s1
8000c77c:	0312a825 	or	s5,t8,s2
8000c780:	12000002 	beqz	s0,8000c78c <_b2d+0x10c>
8000c784:	00009021 	move	s2,zero
8000c788:	8e32fffc 	lw	s2,-4(s1)
8000c78c:	00058823 	negu	s1,a1
8000c790:	02321006 	srlv	v0,s2,s1
8000c794:	080031c5 	j	8000c714 <_b2d+0x94>
8000c798:	00a61804 	sllv	v1,a2,a1
8000c79c:	0253a825 	or	s5,s2,s3
8000c7a0:	080031c6 	j	8000c718 <_b2d+0x98>
8000c7a4:	00c0a021 	move	s4,a2

8000c7a8 <_d2b>:
8000c7a8:	27bdffc8 	addiu	sp,sp,-56
8000c7ac:	24050001 	li	a1,1
8000c7b0:	afb60030 	sw	s6,48(sp)
8000c7b4:	afb5002c 	sw	s5,44(sp)
8000c7b8:	afb40028 	sw	s4,40(sp)
8000c7bc:	afb30024 	sw	s3,36(sp)
8000c7c0:	afb20020 	sw	s2,32(sp)
8000c7c4:	afb1001c 	sw	s1,28(sp)
8000c7c8:	afb00018 	sw	s0,24(sp)
8000c7cc:	00e08821 	move	s1,a3
8000c7d0:	00c08021 	move	s0,a2
8000c7d4:	afbf0034 	sw	ra,52(sp)
8000c7d8:	8fb50048 	lw	s5,72(sp)
8000c7dc:	0c002f30 	jal	8000bcc0 <_Balloc>
8000c7e0:	8fb6004c 	lw	s6,76(sp)
8000c7e4:	3c047fff 	lui	a0,0x7fff
8000c7e8:	3485ffff 	ori	a1,a0,0xffff
8000c7ec:	3c03000f 	lui	v1,0xf
8000c7f0:	00409021 	move	s2,v0
8000c7f4:	3466ffff 	ori	a2,v1,0xffff
8000c7f8:	00b11024 	and	v0,a1,s1
8000c7fc:	02262024 	and	a0,s1,a2
8000c800:	00029d02 	srl	s3,v0,0x14
8000c804:	afa40014 	sw	a0,20(sp)
8000c808:	12600004 	beqz	s3,8000c81c <_d2b+0x74>
8000c80c:	26540014 	addiu	s4,s2,20
8000c810:	3c080010 	lui	t0,0x10
8000c814:	00883825 	or	a3,a0,t0
8000c818:	afa70014 	sw	a3,20(sp)
8000c81c:	12000034 	beqz	s0,8000c8f0 <_d2b+0x148>
8000c820:	27a40010 	addiu	a0,sp,16
8000c824:	0c002fc6 	jal	8000bf18 <_lo0bits>
8000c828:	afb00010 	sw	s0,16(sp)
8000c82c:	1040002d 	beqz	v0,8000c8e4 <_d2b+0x13c>
8000c830:	00402821 	move	a1,v0
8000c834:	8fad0014 	lw	t5,20(sp)
8000c838:	8fab0010 	lw	t3,16(sp)
8000c83c:	00027023 	negu	t6,v0
8000c840:	01cd6004 	sllv	t4,t5,t6
8000c844:	016c5025 	or	t2,t3,t4
8000c848:	ae4a0014 	sw	t2,20(s2)
8000c84c:	8fa90014 	lw	t1,20(sp)
8000c850:	00491006 	srlv	v0,t1,v0
8000c854:	afa20014 	sw	v0,20(sp)
8000c858:	8fb80014 	lw	t8,20(sp)
8000c85c:	24100001 	li	s0,1
8000c860:	24110002 	li	s1,2
8000c864:	0218880a 	movz	s1,s0,t8
8000c868:	02208021 	move	s0,s1
8000c86c:	ae980004 	sw	t8,4(s4)
8000c870:	ae510010 	sw	s1,16(s2)
8000c874:	12600011 	beqz	s3,8000c8bc <_d2b+0x114>
8000c878:	02652021 	addu	a0,s3,a1
8000c87c:	24070035 	li	a3,53
8000c880:	00e59823 	subu	s3,a3,a1
8000c884:	2494fbcd 	addiu	s4,a0,-1075
8000c888:	aeb40000 	sw	s4,0(s5)
8000c88c:	aed30000 	sw	s3,0(s6)
8000c890:	02401021 	move	v0,s2
8000c894:	8fbf0034 	lw	ra,52(sp)
8000c898:	8fb60030 	lw	s6,48(sp)
8000c89c:	8fb5002c 	lw	s5,44(sp)
8000c8a0:	8fb40028 	lw	s4,40(sp)
8000c8a4:	8fb30024 	lw	s3,36(sp)
8000c8a8:	8fb20020 	lw	s2,32(sp)
8000c8ac:	8fb1001c 	lw	s1,28(sp)
8000c8b0:	8fb00018 	lw	s0,24(sp)
8000c8b4:	03e00008 	jr	ra
8000c8b8:	27bd0038 	addiu	sp,sp,56
8000c8bc:	00104880 	sll	t1,s0,0x2
8000c8c0:	02891821 	addu	v1,s4,t1
8000c8c4:	8c64fffc 	lw	a0,-4(v1)
8000c8c8:	24a8fbce 	addiu	t0,a1,-1074
8000c8cc:	0c002fa6 	jal	8000be98 <_hi0bits>
8000c8d0:	aea80000 	sw	t0,0(s5)
8000c8d4:	00108940 	sll	s1,s0,0x5
8000c8d8:	0222a823 	subu	s5,s1,v0
8000c8dc:	08003224 	j	8000c890 <_d2b+0xe8>
8000c8e0:	aed50000 	sw	s5,0(s6)
8000c8e4:	8faf0010 	lw	t7,16(sp)
8000c8e8:	08003216 	j	8000c858 <_d2b+0xb0>
8000c8ec:	ae4f0014 	sw	t7,20(s2)
8000c8f0:	0c002fc6 	jal	8000bf18 <_lo0bits>
8000c8f4:	27a40014 	addiu	a0,sp,20
8000c8f8:	8fa50014 	lw	a1,20(sp)
8000c8fc:	24060001 	li	a2,1
8000c900:	ae460010 	sw	a2,16(s2)
8000c904:	ae450014 	sw	a1,20(s2)
8000c908:	24100001 	li	s0,1
8000c90c:	0800321d 	j	8000c874 <_d2b+0xcc>
8000c910:	24450020 	addiu	a1,v0,32

8000c914 <_Bfree>:
8000c914:	10a00008 	beqz	a1,8000c938 <_Bfree+0x24>
8000c918:	00000000 	nop
8000c91c:	8ca60004 	lw	a2,4(a1)
8000c920:	8c87004c 	lw	a3,76(a0)
8000c924:	00061880 	sll	v1,a2,0x2
8000c928:	00673021 	addu	a2,v1,a3
8000c92c:	8cc40000 	lw	a0,0(a2)
8000c930:	aca40000 	sw	a0,0(a1)
8000c934:	acc50000 	sw	a1,0(a2)
8000c938:	03e00008 	jr	ra
8000c93c:	00000000 	nop

8000c940 <_s2b>:
8000c940:	27bdffd8 	addiu	sp,sp,-40
8000c944:	3c0a38e3 	lui	t2,0x38e3
8000c948:	24e80008 	addiu	t0,a3,8
8000c94c:	afb40020 	sw	s4,32(sp)
8000c950:	00e0a021 	move	s4,a3
8000c954:	35478e39 	ori	a3,t2,0x8e39
8000c958:	01070018 	mult	t0,a3
8000c95c:	00081fc3 	sra	v1,t0,0x1f
8000c960:	afb3001c 	sw	s3,28(sp)
8000c964:	00c09821 	move	s3,a2
8000c968:	afb20018 	sw	s2,24(sp)
8000c96c:	24080001 	li	t0,1
8000c970:	00809021 	move	s2,a0
8000c974:	afb00010 	sw	s0,16(sp)
8000c978:	afbf0024 	sw	ra,36(sp)
8000c97c:	00a08021 	move	s0,a1
8000c980:	afb10014 	sw	s1,20(sp)
8000c984:	00004810 	mfhi	t1
8000c988:	00093043 	sra	a2,t1,0x1
8000c98c:	00c32023 	subu	a0,a2,v1
8000c990:	0104102a 	slt	v0,t0,a0
8000c994:	10400005 	beqz	v0,8000c9ac <_s2b+0x6c>
8000c998:	00002821 	move	a1,zero
8000c99c:	00084040 	sll	t0,t0,0x1
8000c9a0:	0104582a 	slt	t3,t0,a0
8000c9a4:	1560fffd 	bnez	t3,8000c99c <_s2b+0x5c>
8000c9a8:	24a50001 	addiu	a1,a1,1
8000c9ac:	0c002f30 	jal	8000bcc0 <_Balloc>
8000c9b0:	02402021 	move	a0,s2
8000c9b4:	8fa40038 	lw	a0,56(sp)
8000c9b8:	00402821 	move	a1,v0
8000c9bc:	2a6c000a 	slti	t4,s3,10
8000c9c0:	ac440014 	sw	a0,20(v0)
8000c9c4:	24020001 	li	v0,1
8000c9c8:	aca20010 	sw	v0,16(a1)
8000c9cc:	15800022 	bnez	t4,8000ca58 <_s2b+0x118>
8000c9d0:	24110009 	li	s1,9
8000c9d4:	26100009 	addiu	s0,s0,9
8000c9d8:	820e0000 	lb	t6,0(s0)
8000c9dc:	02402021 	move	a0,s2
8000c9e0:	2406000a 	li	a2,10
8000c9e4:	25c7ffd0 	addiu	a3,t6,-48
8000c9e8:	0c002f5e 	jal	8000bd78 <_multadd>
8000c9ec:	26310001 	addiu	s1,s1,1
8000c9f0:	0233682a 	slt	t5,s1,s3
8000c9f4:	00402821 	move	a1,v0
8000c9f8:	15a0fff7 	bnez	t5,8000c9d8 <_s2b+0x98>
8000c9fc:	26100001 	addiu	s0,s0,1
8000ca00:	26100001 	addiu	s0,s0,1
8000ca04:	0234782a 	slt	t7,s1,s4
8000ca08:	11e0000a 	beqz	t7,8000ca34 <_s2b+0xf4>
8000ca0c:	02918823 	subu	s1,s4,s1
8000ca10:	82130000 	lb	s3,0(s0)
8000ca14:	02402021 	move	a0,s2
8000ca18:	2406000a 	li	a2,10
8000ca1c:	0c002f5e 	jal	8000bd78 <_multadd>
8000ca20:	2667ffd0 	addiu	a3,s3,-48
8000ca24:	2631ffff 	addiu	s1,s1,-1
8000ca28:	00402821 	move	a1,v0
8000ca2c:	1620fff8 	bnez	s1,8000ca10 <_s2b+0xd0>
8000ca30:	26100001 	addiu	s0,s0,1
8000ca34:	8fbf0024 	lw	ra,36(sp)
8000ca38:	8fb40020 	lw	s4,32(sp)
8000ca3c:	8fb3001c 	lw	s3,28(sp)
8000ca40:	8fb20018 	lw	s2,24(sp)
8000ca44:	8fb10014 	lw	s1,20(sp)
8000ca48:	8fb00010 	lw	s0,16(sp)
8000ca4c:	00a01021 	move	v0,a1
8000ca50:	03e00008 	jr	ra
8000ca54:	27bd0028 	addiu	sp,sp,40
8000ca58:	08003281 	j	8000ca04 <_s2b+0xc4>
8000ca5c:	2610000a 	addiu	s0,s0,10

8000ca60 <_i2b>:
8000ca60:	27bdffe8 	addiu	sp,sp,-24
8000ca64:	afb00010 	sw	s0,16(sp)
8000ca68:	00a08021 	move	s0,a1
8000ca6c:	afbf0014 	sw	ra,20(sp)
8000ca70:	0c002f30 	jal	8000bcc0 <_Balloc>
8000ca74:	24050001 	li	a1,1
8000ca78:	ac500014 	sw	s0,20(v0)
8000ca7c:	8fbf0014 	lw	ra,20(sp)
8000ca80:	8fb00010 	lw	s0,16(sp)
8000ca84:	24040001 	li	a0,1
8000ca88:	ac440010 	sw	a0,16(v0)
8000ca8c:	03e00008 	jr	ra
8000ca90:	27bd0018 	addiu	sp,sp,24

8000ca94 <__mcmp>:
8000ca94:	8c870010 	lw	a3,16(a0)
8000ca98:	8ca30010 	lw	v1,16(a1)
8000ca9c:	00e33023 	subu	a2,a3,v1
8000caa0:	14c00013 	bnez	a2,8000caf0 <__mcmp+0x5c>
8000caa4:	00c03821 	move	a3,a2
8000caa8:	00034880 	sll	t1,v1,0x2
8000caac:	248a0014 	addiu	t2,a0,20
8000cab0:	24a40014 	addiu	a0,a1,20
8000cab4:	00894021 	addu	t0,a0,t1
8000cab8:	01493021 	addu	a2,t2,t1
8000cabc:	24c6fffc 	addiu	a2,a2,-4
8000cac0:	2508fffc 	addiu	t0,t0,-4
8000cac4:	8cc30000 	lw	v1,0(a2)
8000cac8:	8d0b0000 	lw	t3,0(t0)
8000cacc:	2407ffff 	li	a3,-1
8000cad0:	240c0001 	li	t4,1
8000cad4:	006b102b 	sltu	v0,v1,t3
8000cad8:	0146482b 	sltu	t1,t2,a2
8000cadc:	146b0004 	bne	v1,t3,8000caf0 <__mcmp+0x5c>
8000cae0:	0182380a 	movz	a3,t4,v0
8000cae4:	5520fff6 	bnezl	t1,8000cac0 <__mcmp+0x2c>
8000cae8:	24c6fffc 	addiu	a2,a2,-4
8000caec:	00003821 	move	a3,zero
8000caf0:	03e00008 	jr	ra
8000caf4:	00e01021 	move	v0,a3

8000caf8 <_ratio>:
8000caf8:	27bdffd0 	addiu	sp,sp,-48
8000cafc:	afb00018 	sw	s0,24(sp)
8000cb00:	00a08021 	move	s0,a1
8000cb04:	27a50010 	addiu	a1,sp,16
8000cb08:	afbf0028 	sw	ra,40(sp)
8000cb0c:	afb30024 	sw	s3,36(sp)
8000cb10:	afb20020 	sw	s2,32(sp)
8000cb14:	afb1001c 	sw	s1,28(sp)
8000cb18:	0c0031a0 	jal	8000c680 <_b2d>
8000cb1c:	00808821 	move	s1,a0
8000cb20:	02002021 	move	a0,s0
8000cb24:	44120000 	mfc1	s2,$f0
8000cb28:	44130800 	mfc1	s3,$f1
8000cb2c:	0c0031a0 	jal	8000c680 <_b2d>
8000cb30:	27a50014 	addiu	a1,sp,20
8000cb34:	8e040010 	lw	a0,16(s0)
8000cb38:	8e280010 	lw	t0,16(s1)
8000cb3c:	8fa70010 	lw	a3,16(sp)
8000cb40:	8fa20014 	lw	v0,20(sp)
8000cb44:	01041823 	subu	v1,t0,a0
8000cb48:	00033140 	sll	a2,v1,0x5
8000cb4c:	00e22823 	subu	a1,a3,v0
8000cb50:	00a63821 	addu	a3,a1,a2
8000cb54:	44040000 	mfc1	a0,$f0
8000cb58:	44050800 	mfc1	a1,$f1
8000cb5c:	18e0000e 	blez	a3,8000cb98 <_ratio+0xa0>
8000cb60:	00071d00 	sll	v1,a3,0x14
8000cb64:	00739821 	addu	s3,v1,s3
8000cb68:	44922000 	mtc1	s2,$f4
8000cb6c:	44932800 	mtc1	s3,$f5
8000cb70:	44843000 	mtc1	a0,$f6
8000cb74:	44853800 	mtc1	a1,$f7
8000cb78:	8fbf0028 	lw	ra,40(sp)
8000cb7c:	46262003 	div.d	$f0,$f4,$f6
8000cb80:	8fb30024 	lw	s3,36(sp)
8000cb84:	8fb20020 	lw	s2,32(sp)
8000cb88:	8fb1001c 	lw	s1,28(sp)
8000cb8c:	8fb00018 	lw	s0,24(sp)
8000cb90:	03e00008 	jr	ra
8000cb94:	27bd0030 	addiu	sp,sp,48
8000cb98:	080032da 	j	8000cb68 <_ratio+0x70>
8000cb9c:	00a32823 	subu	a1,a1,v1

8000cba0 <_mprec_log10>:
8000cba0:	28830018 	slti	v1,a0,24
8000cba4:	3c013ff0 	lui	at,0x3ff0
8000cba8:	44810800 	mtc1	at,$f1
8000cbac:	44800000 	mtc1	zero,$f0
8000cbb0:	10600006 	beqz	v1,8000cbcc <_mprec_log10+0x2c>
8000cbb4:	3c068001 	lui	a2,0x8001
8000cbb8:	000428c0 	sll	a1,a0,0x3
8000cbbc:	24c3f4e0 	addiu	v1,a2,-2848
8000cbc0:	00a32021 	addu	a0,a1,v1
8000cbc4:	03e00008 	jr	ra
8000cbc8:	d4800000 	ldc1	$f0,0(a0)
8000cbcc:	18800007 	blez	a0,8000cbec <_mprec_log10+0x4c>
8000cbd0:	00000000 	nop
8000cbd4:	3c014024 	lui	at,0x4024
8000cbd8:	44811800 	mtc1	at,$f3
8000cbdc:	44801000 	mtc1	zero,$f2
8000cbe0:	2484ffff 	addiu	a0,a0,-1
8000cbe4:	1c80fffe 	bgtz	a0,8000cbe0 <_mprec_log10+0x40>
8000cbe8:	46220002 	mul.d	$f0,$f0,$f2
8000cbec:	03e00008 	jr	ra
8000cbf0:	00000000 	nop
	...

8000cc00 <_read_r>:
8000cc00:	27bdffe0 	addiu	sp,sp,-32
8000cc04:	00a04021 	move	t0,a1
8000cc08:	afb10014 	sw	s1,20(sp)
8000cc0c:	00c02821 	move	a1,a2
8000cc10:	afb00010 	sw	s0,16(sp)
8000cc14:	00e03021 	move	a2,a3
8000cc18:	00808821 	move	s1,a0
8000cc1c:	3c108001 	lui	s0,0x8001
8000cc20:	01002021 	move	a0,t0
8000cc24:	afbf0018 	sw	ra,24(sp)
8000cc28:	0c0036bc 	jal	8000daf0 <read>
8000cc2c:	ae00f708 	sw	zero,-2296(s0)
8000cc30:	2405ffff 	li	a1,-1
8000cc34:	10450006 	beq	v0,a1,8000cc50 <_read_r+0x50>
8000cc38:	8e03f708 	lw	v1,-2296(s0)
8000cc3c:	8fbf0018 	lw	ra,24(sp)
8000cc40:	8fb10014 	lw	s1,20(sp)
8000cc44:	8fb00010 	lw	s0,16(sp)
8000cc48:	03e00008 	jr	ra
8000cc4c:	27bd0020 	addiu	sp,sp,32
8000cc50:	5460fffa 	bnezl	v1,8000cc3c <_read_r+0x3c>
8000cc54:	ae230000 	sw	v1,0(s1)
8000cc58:	08003310 	j	8000cc40 <_read_r+0x40>
8000cc5c:	8fbf0018 	lw	ra,24(sp)

8000cc60 <_realloc_r>:
8000cc60:	27bdffc0 	addiu	sp,sp,-64
8000cc64:	afbe0038 	sw	s8,56(sp)
8000cc68:	afb60030 	sw	s6,48(sp)
8000cc6c:	afb5002c 	sw	s5,44(sp)
8000cc70:	afbf003c 	sw	ra,60(sp)
8000cc74:	afb70034 	sw	s7,52(sp)
8000cc78:	afb40028 	sw	s4,40(sp)
8000cc7c:	afb30024 	sw	s3,36(sp)
8000cc80:	afb20020 	sw	s2,32(sp)
8000cc84:	afb1001c 	sw	s1,28(sp)
8000cc88:	afb00018 	sw	s0,24(sp)
8000cc8c:	00a0b021 	move	s6,a1
8000cc90:	00c0a821 	move	s5,a2
8000cc94:	10a0014d 	beqz	a1,8000d1cc <_realloc_r+0x56c>
8000cc98:	0080f021 	move	s8,a0
8000cc9c:	0c0003b8 	jal	80000ee0 <__malloc_lock>
8000cca0:	24b0fff8 	addiu	s0,a1,-8
8000cca4:	8e050004 	lw	a1,4(s0)
8000cca8:	26a4000b 	addiu	a0,s5,11
8000ccac:	2403fffc 	li	v1,-4
8000ccb0:	00a38824 	and	s1,a1,v1
8000ccb4:	2c820017 	sltiu	v0,a0,23
8000ccb8:	02009821 	move	s3,s0
8000ccbc:	14400141 	bnez	v0,8000d1c4 <_realloc_r+0x564>
8000ccc0:	02209021 	move	s2,s1
8000ccc4:	2406fff8 	li	a2,-8
8000ccc8:	0086a024 	and	s4,a0,a2
8000cccc:	0680002d 	bltz	s4,8000cd84 <_realloc_r+0x124>
8000ccd0:	00001021 	move	v0,zero
8000ccd4:	0295202b 	sltu	a0,s4,s5
8000ccd8:	1480002a 	bnez	a0,8000cd84 <_realloc_r+0x124>
8000ccdc:	0254382a 	slt	a3,s2,s4
8000cce0:	50e0001b 	beqzl	a3,8000cd50 <_realloc_r+0xf0>
8000cce4:	26720008 	addiu	s2,s3,8
8000cce8:	3c098001 	lui	t1,0x8001
8000ccec:	2528e350 	addiu	t0,t1,-7344
8000ccf0:	8d070008 	lw	a3,8(t0)
8000ccf4:	02722021 	addu	a0,s3,s2
8000ccf8:	10870130 	beq	a0,a3,8000d1bc <_realloc_r+0x55c>
8000ccfc:	240dfffe 	li	t5,-2
8000cd00:	8c860004 	lw	a2,4(a0)
8000cd04:	00cd6024 	and	t4,a2,t5
8000cd08:	008c5821 	addu	t3,a0,t4
8000cd0c:	8d6a0004 	lw	t2,4(t3)
8000cd10:	31420001 	andi	v0,t2,0x1
8000cd14:	54400127 	bnezl	v0,8000d1b4 <_realloc_r+0x554>
8000cd18:	00002021 	move	a0,zero
8000cd1c:	240efffc 	li	t6,-4
8000cd20:	10870112 	beq	a0,a3,8000d16c <_realloc_r+0x50c>
8000cd24:	00ce3024 	and	a2,a2,t6
8000cd28:	00d21821 	addu	v1,a2,s2
8000cd2c:	0074b82a 	slt	s7,v1,s4
8000cd30:	56e00030 	bnezl	s7,8000cdf4 <_realloc_r+0x194>
8000cd34:	8e670004 	lw	a3,4(s3)
8000cd38:	8c980008 	lw	t8,8(a0)
8000cd3c:	8c99000c 	lw	t9,12(a0)
8000cd40:	00608821 	move	s1,v1
8000cd44:	26720008 	addiu	s2,s3,8
8000cd48:	af380008 	sw	t8,8(t9)
8000cd4c:	af19000c 	sw	t9,12(t8)
8000cd50:	02342023 	subu	a0,s1,s4
8000cd54:	2c870010 	sltiu	a3,a0,16
8000cd58:	10e00016 	beqz	a3,8000cdb4 <_realloc_r+0x154>
8000cd5c:	30a30001 	andi	v1,a1,0x1
8000cd60:	00715825 	or	t3,v1,s1
8000cd64:	ae0b0004 	sw	t3,4(s0)
8000cd68:	02115021 	addu	t2,s0,s1
8000cd6c:	8d540004 	lw	s4,4(t2)
8000cd70:	36900001 	ori	s0,s4,0x1
8000cd74:	ad500004 	sw	s0,4(t2)
8000cd78:	0c0003ba 	jal	80000ee8 <__malloc_unlock>
8000cd7c:	03c02021 	move	a0,s8
8000cd80:	02401021 	move	v0,s2
8000cd84:	8fbf003c 	lw	ra,60(sp)
8000cd88:	8fbe0038 	lw	s8,56(sp)
8000cd8c:	8fb70034 	lw	s7,52(sp)
8000cd90:	8fb60030 	lw	s6,48(sp)
8000cd94:	8fb5002c 	lw	s5,44(sp)
8000cd98:	8fb40028 	lw	s4,40(sp)
8000cd9c:	8fb30024 	lw	s3,36(sp)
8000cda0:	8fb20020 	lw	s2,32(sp)
8000cda4:	8fb1001c 	lw	s1,28(sp)
8000cda8:	8fb00018 	lw	s0,24(sp)
8000cdac:	03e00008 	jr	ra
8000cdb0:	27bd0040 	addiu	sp,sp,64
8000cdb4:	30b10001 	andi	s1,a1,0x1
8000cdb8:	0214c821 	addu	t9,s0,s4
8000cdbc:	34850001 	ori	a1,a0,0x1
8000cdc0:	02344825 	or	t1,s1,s4
8000cdc4:	ae090004 	sw	t1,4(s0)
8000cdc8:	0324b021 	addu	s6,t9,a0
8000cdcc:	af250004 	sw	a1,4(t9)
8000cdd0:	8ec80004 	lw	t0,4(s6)
8000cdd4:	27250008 	addiu	a1,t9,8
8000cdd8:	03c02021 	move	a0,s8
8000cddc:	35170001 	ori	s7,t0,0x1
8000cde0:	0c0003d4 	jal	80000f50 <_free_r>
8000cde4:	aed70004 	sw	s7,4(s6)
8000cde8:	0800335e 	j	8000cd78 <_realloc_r+0x118>
8000cdec:	00000000 	nop
8000cdf0:	8e670004 	lw	a3,4(s3)
8000cdf4:	30e30001 	andi	v1,a3,0x1
8000cdf8:	14600052 	bnez	v1,8000cf44 <_realloc_r+0x2e4>
8000cdfc:	2409fffc 	li	t1,-4
8000ce00:	8e6a0000 	lw	t2,0(s3)
8000ce04:	026ab823 	subu	s7,s3,t2
8000ce08:	8ee20004 	lw	v0,4(s7)
8000ce0c:	1080003f 	beqz	a0,8000cf0c <_realloc_r+0x2ac>
8000ce10:	00492824 	and	a1,v0,t1
8000ce14:	3c0c8001 	lui	t4,0x8001
8000ce18:	8d8be358 	lw	t3,-7336(t4)
8000ce1c:	108b0091 	beq	a0,t3,8000d064 <_realloc_r+0x404>
8000ce20:	00c57821 	addu	t7,a2,a1
8000ce24:	01f24021 	addu	t0,t7,s2
8000ce28:	0114882a 	slt	s1,t0,s4
8000ce2c:	16200037 	bnez	s1,8000cf0c <_realloc_r+0x2ac>
8000ce30:	2646fffc 	addiu	a2,s2,-4
8000ce34:	8c980008 	lw	t8,8(a0)
8000ce38:	8c99000c 	lw	t9,12(a0)
8000ce3c:	02e08021 	move	s0,s7
8000ce40:	af380008 	sw	t8,8(t9)
8000ce44:	af19000c 	sw	t9,12(t8)
8000ce48:	8ef5000c 	lw	s5,12(s7)
8000ce4c:	8ef20008 	lw	s2,8(s7)
8000ce50:	2cc20025 	sltiu	v0,a2,37
8000ce54:	01008821 	move	s1,t0
8000ce58:	aeb20008 	sw	s2,8(s5)
8000ce5c:	ae55000c 	sw	s5,12(s2)
8000ce60:	10400025 	beqz	v0,8000cef8 <_realloc_r+0x298>
8000ce64:	26120008 	addiu	s2,s0,8
8000ce68:	2cc30014 	sltiu	v1,a2,20
8000ce6c:	02c04021 	move	t0,s6
8000ce70:	14600017 	bnez	v1,8000ced0 <_realloc_r+0x270>
8000ce74:	02403821 	move	a3,s2
8000ce78:	8ec40000 	lw	a0,0(s6)
8000ce7c:	2ccc001c 	sltiu	t4,a2,28
8000ce80:	26c80008 	addiu	t0,s6,8
8000ce84:	ae040008 	sw	a0,8(s0)
8000ce88:	8ec20004 	lw	v0,4(s6)
8000ce8c:	26070010 	addiu	a3,s0,16
8000ce90:	1580000f 	bnez	t4,8000ced0 <_realloc_r+0x270>
8000ce94:	ae02000c 	sw	v0,12(s0)
8000ce98:	8ec70008 	lw	a3,8(s6)
8000ce9c:	2ccd0024 	sltiu	t5,a2,36
8000cea0:	26c80010 	addiu	t0,s6,16
8000cea4:	ae070010 	sw	a3,16(s0)
8000cea8:	8ec6000c 	lw	a2,12(s6)
8000ceac:	26070018 	addiu	a3,s0,24
8000ceb0:	15a00007 	bnez	t5,8000ced0 <_realloc_r+0x270>
8000ceb4:	ae060014 	sw	a2,20(s0)
8000ceb8:	8ed30010 	lw	s3,16(s6)
8000cebc:	26c80018 	addiu	t0,s6,24
8000cec0:	26070020 	addiu	a3,s0,32
8000cec4:	ae130018 	sw	s3,24(s0)
8000cec8:	8ece0014 	lw	t6,20(s6)
8000cecc:	ae0e001c 	sw	t6,28(s0)
8000ced0:	8d180000 	lw	t8,0(t0)
8000ced4:	250f0004 	addiu	t7,t0,4
8000ced8:	24f60004 	addiu	s6,a3,4
8000cedc:	acf80000 	sw	t8,0(a3)
8000cee0:	8df50000 	lw	s5,0(t7)
8000cee4:	aed50000 	sw	s5,0(s6)
8000cee8:	8de50004 	lw	a1,4(t7)
8000ceec:	aec50004 	sw	a1,4(s6)
8000cef0:	08003354 	j	8000cd50 <_realloc_r+0xf0>
8000cef4:	8ee50004 	lw	a1,4(s7)
8000cef8:	02c02821 	move	a1,s6
8000cefc:	0c0017e0 	jal	80005f80 <memcpy>
8000cf00:	02402021 	move	a0,s2
8000cf04:	08003354 	j	8000cd50 <_realloc_r+0xf0>
8000cf08:	8e050004 	lw	a1,4(s0)
8000cf0c:	12e0000d 	beqz	s7,8000cf44 <_realloc_r+0x2e4>
8000cf10:	00b21821 	addu	v1,a1,s2
8000cf14:	0074482a 	slt	t1,v1,s4
8000cf18:	5520000b 	bnezl	t1,8000cf48 <_realloc_r+0x2e8>
8000cf1c:	02a02821 	move	a1,s5
8000cf20:	8eeb000c 	lw	t3,12(s7)
8000cf24:	8eea0008 	lw	t2,8(s7)
8000cf28:	2646fffc 	addiu	a2,s2,-4
8000cf2c:	02e08021 	move	s0,s7
8000cf30:	2cc20025 	sltiu	v0,a2,37
8000cf34:	ad6a0008 	sw	t2,8(t3)
8000cf38:	ad4b000c 	sw	t3,12(t2)
8000cf3c:	08003398 	j	8000ce60 <_realloc_r+0x200>
8000cf40:	00608821 	move	s1,v1
8000cf44:	02a02821 	move	a1,s5
8000cf48:	0c0001cc 	jal	80000730 <_malloc_r>
8000cf4c:	03c02021 	move	a0,s8
8000cf50:	10400040 	beqz	v0,8000d054 <_realloc_r+0x3f4>
8000cf54:	00408821 	move	s1,v0
8000cf58:	8e650004 	lw	a1,4(s3)
8000cf5c:	2419fffe 	li	t9,-2
8000cf60:	2450fff8 	addiu	s0,v0,-8
8000cf64:	00b94024 	and	t0,a1,t9
8000cf68:	0268b821 	addu	s7,s3,t0
8000cf6c:	12170032 	beq	s0,s7,8000d038 <_realloc_r+0x3d8>
8000cf70:	2646fffc 	addiu	a2,s2,-4
8000cf74:	2cd00025 	sltiu	s0,a2,37
8000cf78:	1200002a 	beqz	s0,8000d024 <_realloc_r+0x3c4>
8000cf7c:	2cd40014 	sltiu	s4,a2,20
8000cf80:	02c03821 	move	a3,s6
8000cf84:	16800017 	bnez	s4,8000cfe4 <_realloc_r+0x384>
8000cf88:	00402821 	move	a1,v0
8000cf8c:	8ec30000 	lw	v1,0(s6)
8000cf90:	2cd2001c 	sltiu	s2,a2,28
8000cf94:	26c70008 	addiu	a3,s6,8
8000cf98:	ac430000 	sw	v1,0(v0)
8000cf9c:	8ecb0004 	lw	t3,4(s6)
8000cfa0:	24450008 	addiu	a1,v0,8
8000cfa4:	1640000f 	bnez	s2,8000cfe4 <_realloc_r+0x384>
8000cfa8:	ac4b0004 	sw	t3,4(v0)
8000cfac:	8ec40008 	lw	a0,8(s6)
8000cfb0:	2ccc0024 	sltiu	t4,a2,36
8000cfb4:	26c70010 	addiu	a3,s6,16
8000cfb8:	ac440008 	sw	a0,8(v0)
8000cfbc:	8ec2000c 	lw	v0,12(s6)
8000cfc0:	26250010 	addiu	a1,s1,16
8000cfc4:	15800007 	bnez	t4,8000cfe4 <_realloc_r+0x384>
8000cfc8:	ae22000c 	sw	v0,12(s1)
8000cfcc:	8ec60010 	lw	a2,16(s6)
8000cfd0:	26c70018 	addiu	a3,s6,24
8000cfd4:	26250018 	addiu	a1,s1,24
8000cfd8:	ae260010 	sw	a2,16(s1)
8000cfdc:	8ecd0014 	lw	t5,20(s6)
8000cfe0:	ae2d0014 	sw	t5,20(s1)
8000cfe4:	8cf80000 	lw	t8,0(a3)
8000cfe8:	24ef0004 	addiu	t7,a3,4
8000cfec:	24ae0004 	addiu	t6,a1,4
8000cff0:	acb80000 	sw	t8,0(a1)
8000cff4:	8df50000 	lw	s5,0(t7)
8000cff8:	add50000 	sw	s5,0(t6)
8000cffc:	8df30004 	lw	s3,4(t7)
8000d000:	add30004 	sw	s3,4(t6)
8000d004:	03c02021 	move	a0,s8
8000d008:	0c0003d4 	jal	80000f50 <_free_r>
8000d00c:	02c02821 	move	a1,s6
8000d010:	03c02021 	move	a0,s8
8000d014:	0c0003ba 	jal	80000ee8 <__malloc_unlock>
8000d018:	00000000 	nop
8000d01c:	08003361 	j	8000cd84 <_realloc_r+0x124>
8000d020:	02201021 	move	v0,s1
8000d024:	00402021 	move	a0,v0
8000d028:	0c0017e0 	jal	80005f80 <memcpy>
8000d02c:	02c02821 	move	a1,s6
8000d030:	08003402 	j	8000d008 <_realloc_r+0x3a8>
8000d034:	03c02021 	move	a0,s8
8000d038:	8e110004 	lw	s1,4(s0)
8000d03c:	240afffc 	li	t2,-4
8000d040:	02608021 	move	s0,s3
8000d044:	022a4824 	and	t1,s1,t2
8000d048:	02498821 	addu	s1,s2,t1
8000d04c:	08003354 	j	8000cd50 <_realloc_r+0xf0>
8000d050:	26720008 	addiu	s2,s3,8
8000d054:	0c0003ba 	jal	80000ee8 <__malloc_unlock>
8000d058:	03c02021 	move	a0,s8
8000d05c:	08003361 	j	8000cd84 <_realloc_r+0x124>
8000d060:	00001021 	move	v0,zero
8000d064:	00c57021 	addu	t6,a2,a1
8000d068:	01d26821 	addu	t5,t6,s2
8000d06c:	26840010 	addiu	a0,s4,16
8000d070:	01a4302a 	slt	a2,t5,a0
8000d074:	14c0ffa5 	bnez	a2,8000cf0c <_realloc_r+0x2ac>
8000d078:	afad0010 	sw	t5,16(sp)
8000d07c:	8eef000c 	lw	t7,12(s7)
8000d080:	8ee50008 	lw	a1,8(s7)
8000d084:	2646fffc 	addiu	a2,s2,-4
8000d088:	2cd30025 	sltiu	s3,a2,37
8000d08c:	ade50008 	sw	a1,8(t7)
8000d090:	acaf000c 	sw	t7,12(a1)
8000d094:	12600030 	beqz	s3,8000d158 <_realloc_r+0x4f8>
8000d098:	26f10008 	addiu	s1,s7,8
8000d09c:	2cd20014 	sltiu	s2,a2,20
8000d0a0:	02c04021 	move	t0,s6
8000d0a4:	16400017 	bnez	s2,8000d104 <_realloc_r+0x4a4>
8000d0a8:	02203821 	move	a3,s1
8000d0ac:	8ed90000 	lw	t9,0(s6)
8000d0b0:	2cd5001c 	sltiu	s5,a2,28
8000d0b4:	26c80008 	addiu	t0,s6,8
8000d0b8:	aef90008 	sw	t9,8(s7)
8000d0bc:	8ed80004 	lw	t8,4(s6)
8000d0c0:	26e70010 	addiu	a3,s7,16
8000d0c4:	16a0000f 	bnez	s5,8000d104 <_realloc_r+0x4a4>
8000d0c8:	aef8000c 	sw	t8,12(s7)
8000d0cc:	8ec30008 	lw	v1,8(s6)
8000d0d0:	2cc90024 	sltiu	t1,a2,36
8000d0d4:	26c80010 	addiu	t0,s6,16
8000d0d8:	aee30010 	sw	v1,16(s7)
8000d0dc:	8ec2000c 	lw	v0,12(s6)
8000d0e0:	26e70018 	addiu	a3,s7,24
8000d0e4:	15200007 	bnez	t1,8000d104 <_realloc_r+0x4a4>
8000d0e8:	aee20014 	sw	v0,20(s7)
8000d0ec:	8ecb0010 	lw	t3,16(s6)
8000d0f0:	26c80018 	addiu	t0,s6,24
8000d0f4:	26e70020 	addiu	a3,s7,32
8000d0f8:	aeeb0018 	sw	t3,24(s7)
8000d0fc:	8eca0014 	lw	t2,20(s6)
8000d100:	aeea001c 	sw	t2,28(s7)
8000d104:	8d040000 	lw	a0,0(t0)
8000d108:	250c0004 	addiu	t4,t0,4
8000d10c:	24f00004 	addiu	s0,a3,4
8000d110:	ace40000 	sw	a0,0(a3)
8000d114:	8d860000 	lw	a2,0(t4)
8000d118:	ae060000 	sw	a2,0(s0)
8000d11c:	8d960004 	lw	s6,4(t4)
8000d120:	ae160004 	sw	s6,4(s0)
8000d124:	8fa50010 	lw	a1,16(sp)
8000d128:	02f44021 	addu	t0,s7,s4
8000d12c:	03c02021 	move	a0,s8
8000d130:	00b49823 	subu	s3,a1,s4
8000d134:	366e0001 	ori	t6,s3,0x1
8000d138:	ad0e0004 	sw	t6,4(t0)
8000d13c:	8eed0004 	lw	t5,4(s7)
8000d140:	31a70001 	andi	a3,t5,0x1
8000d144:	00f4f025 	or	s8,a3,s4
8000d148:	3c148001 	lui	s4,0x8001
8000d14c:	aefe0004 	sw	s8,4(s7)
8000d150:	08003405 	j	8000d014 <_realloc_r+0x3b4>
8000d154:	ae88e358 	sw	t0,-7336(s4)
8000d158:	02c02821 	move	a1,s6
8000d15c:	0c0017e0 	jal	80005f80 <memcpy>
8000d160:	02202021 	move	a0,s1
8000d164:	0800344a 	j	8000d128 <_realloc_r+0x4c8>
8000d168:	8fa50010 	lw	a1,16(sp)
8000d16c:	00d21821 	addu	v1,a2,s2
8000d170:	268f0010 	addiu	t7,s4,16
8000d174:	006f282a 	slt	a1,v1,t7
8000d178:	54a0ff1e 	bnezl	a1,8000cdf4 <_realloc_r+0x194>
8000d17c:	8e670004 	lw	a3,4(s3)
8000d180:	0074b023 	subu	s6,v1,s4
8000d184:	02749021 	addu	s2,s3,s4
8000d188:	36d50001 	ori	s5,s6,0x1
8000d18c:	ae550004 	sw	s5,4(s2)
8000d190:	8e710004 	lw	s1,4(s3)
8000d194:	ad120008 	sw	s2,8(t0)
8000d198:	03c02021 	move	a0,s8
8000d19c:	32300001 	andi	s0,s1,0x1
8000d1a0:	02144025 	or	t0,s0,s4
8000d1a4:	0c0003ba 	jal	80000ee8 <__malloc_unlock>
8000d1a8:	ae680004 	sw	t0,4(s3)
8000d1ac:	08003361 	j	8000cd84 <_realloc_r+0x124>
8000d1b0:	26620008 	addiu	v0,s3,8
8000d1b4:	0800337c 	j	8000cdf0 <_realloc_r+0x190>
8000d1b8:	00003021 	move	a2,zero
8000d1bc:	08003347 	j	8000cd1c <_realloc_r+0xbc>
8000d1c0:	8c860004 	lw	a2,4(a0)
8000d1c4:	08003333 	j	8000cccc <_realloc_r+0x6c>
8000d1c8:	24140010 	li	s4,16
8000d1cc:	0c0001cc 	jal	80000730 <_malloc_r>
8000d1d0:	00c02821 	move	a1,a2
8000d1d4:	08003362 	j	8000cd88 <_realloc_r+0x128>
8000d1d8:	8fbf003c 	lw	ra,60(sp)
8000d1dc:	00000000 	nop

8000d1e0 <isinf>:
8000d1e0:	44046000 	mfc1	a0,$f12
8000d1e4:	44056800 	mfc1	a1,$f13
8000d1e8:	3c0d7fff 	lui	t5,0x7fff
8000d1ec:	00041823 	negu	v1,a0
8000d1f0:	00645825 	or	t3,v1,a0
8000d1f4:	35acffff 	ori	t4,t5,0xffff
8000d1f8:	01854824 	and	t1,t4,a1
8000d1fc:	000b57c2 	srl	t2,t3,0x1f
8000d200:	012a4025 	or	t0,t1,t2
8000d204:	3c027ff0 	lui	v0,0x7ff0
8000d208:	00483023 	subu	a2,v0,t0
8000d20c:	00063823 	negu	a3,a2
8000d210:	00c72025 	or	a0,a2,a3
8000d214:	00042fc2 	srl	a1,a0,0x1f
8000d218:	24040001 	li	a0,1
8000d21c:	03e00008 	jr	ra
8000d220:	00851023 	subu	v0,a0,a1
	...

8000d230 <nan>:
8000d230:	3c057ff8 	lui	a1,0x7ff8
8000d234:	24040000 	li	a0,0
8000d238:	44840000 	mtc1	a0,$f0
8000d23c:	03e00008 	jr	ra
8000d240:	44850800 	mtc1	a1,$f1
	...

8000d250 <_calloc_r>:
8000d250:	27bdffe8 	addiu	sp,sp,-24
8000d254:	afb00010 	sw	s0,16(sp)
8000d258:	afbf0014 	sw	ra,20(sp)
8000d25c:	0c0001cc 	jal	80000730 <_malloc_r>
8000d260:	70a62802 	mul	a1,a1,a2
8000d264:	00408021 	move	s0,v0
8000d268:	1200001c 	beqz	s0,8000d2dc <_calloc_r+0x8c>
8000d26c:	00001021 	move	v0,zero
8000d270:	8e05fffc 	lw	a1,-4(s0)
8000d274:	2402fffc 	li	v0,-4
8000d278:	00a22024 	and	a0,a1,v0
8000d27c:	2486fffc 	addiu	a2,a0,-4
8000d280:	2cc20025 	sltiu	v0,a2,37
8000d284:	10400019 	beqz	v0,8000d2ec <_calloc_r+0x9c>
8000d288:	2cc30014 	sltiu	v1,a2,20
8000d28c:	1460000e 	bnez	v1,8000d2c8 <_calloc_r+0x78>
8000d290:	02002021 	move	a0,s0
8000d294:	2cc7001c 	sltiu	a3,a2,28
8000d298:	ae000000 	sw	zero,0(s0)
8000d29c:	ae000004 	sw	zero,4(s0)
8000d2a0:	14e00009 	bnez	a3,8000d2c8 <_calloc_r+0x78>
8000d2a4:	26040008 	addiu	a0,s0,8
8000d2a8:	2cc80024 	sltiu	t0,a2,36
8000d2ac:	ae000008 	sw	zero,8(s0)
8000d2b0:	ae00000c 	sw	zero,12(s0)
8000d2b4:	15000004 	bnez	t0,8000d2c8 <_calloc_r+0x78>
8000d2b8:	26040010 	addiu	a0,s0,16
8000d2bc:	ae000010 	sw	zero,16(s0)
8000d2c0:	ae000014 	sw	zero,20(s0)
8000d2c4:	26040018 	addiu	a0,s0,24
8000d2c8:	24860004 	addiu	a2,a0,4
8000d2cc:	ac800000 	sw	zero,0(a0)
8000d2d0:	acc00004 	sw	zero,4(a2)
8000d2d4:	acc00000 	sw	zero,0(a2)
8000d2d8:	02001021 	move	v0,s0
8000d2dc:	8fbf0014 	lw	ra,20(sp)
8000d2e0:	8fb00010 	lw	s0,16(sp)
8000d2e4:	03e00008 	jr	ra
8000d2e8:	27bd0018 	addiu	sp,sp,24
8000d2ec:	02002021 	move	a0,s0
8000d2f0:	0c0008d0 	jal	80002340 <memset>
8000d2f4:	00002821 	move	a1,zero
8000d2f8:	080034b7 	j	8000d2dc <_calloc_r+0x8c>
8000d2fc:	02001021 	move	v0,s0

8000d300 <_fstat_r>:
8000d300:	27bdffe0 	addiu	sp,sp,-32
8000d304:	00a03821 	move	a3,a1
8000d308:	afb10014 	sw	s1,20(sp)
8000d30c:	afb00010 	sw	s0,16(sp)
8000d310:	00c02821 	move	a1,a2
8000d314:	00808821 	move	s1,a0
8000d318:	3c108001 	lui	s0,0x8001
8000d31c:	00e02021 	move	a0,a3
8000d320:	afbf0018 	sw	ra,24(sp)
8000d324:	0c0034d8 	jal	8000d360 <fstat>
8000d328:	ae00f708 	sw	zero,-2296(s0)
8000d32c:	2405ffff 	li	a1,-1
8000d330:	10450006 	beq	v0,a1,8000d34c <_fstat_r+0x4c>
8000d334:	8e03f708 	lw	v1,-2296(s0)
8000d338:	8fbf0018 	lw	ra,24(sp)
8000d33c:	8fb10014 	lw	s1,20(sp)
8000d340:	8fb00010 	lw	s0,16(sp)
8000d344:	03e00008 	jr	ra
8000d348:	27bd0020 	addiu	sp,sp,32
8000d34c:	5460fffa 	bnezl	v1,8000d338 <_fstat_r+0x38>
8000d350:	ae230000 	sw	v1,0(s1)
8000d354:	080034cf 	j	8000d33c <_fstat_r+0x3c>
8000d358:	8fbf0018 	lw	ra,24(sp)
8000d35c:	00000000 	nop

8000d360 <fstat>:
8000d360:	3c068001 	lui	a2,0x8001
8000d364:	8cc6e7b0 	lw	a2,-6224(a2)
8000d368:	27bdffe8 	addiu	sp,sp,-24
8000d36c:	afb00010 	sw	s0,16(sp)
8000d370:	00c4182b 	sltu	v1,a2,a0
8000d374:	afbf0014 	sw	ra,20(sp)
8000d378:	14600029 	bnez	v1,8000d420 <fstat+0xc0>
8000d37c:	2410ffff 	li	s0,-1
8000d380:	04800027 	bltz	a0,8000d420 <fstat+0xc0>
8000d384:	00000000 	nop
8000d388:	10a00020 	beqz	a1,8000d40c <fstat+0xac>
8000d38c:	000450c0 	sll	t2,a0,0x3
8000d390:	01444823 	subu	t1,t2,a0
8000d394:	00094080 	sll	t0,t1,0x2
8000d398:	01043823 	subu	a3,t0,a0
8000d39c:	00071880 	sll	v1,a3,0x2
8000d3a0:	3c028001 	lui	v0,0x8001
8000d3a4:	244208d8 	addiu	v0,v0,2264
8000d3a8:	00431021 	addu	v0,v0,v1
8000d3ac:	24430030 	addiu	v1,v0,48
8000d3b0:	8c440000 	lw	a0,0(v0)
8000d3b4:	8c460004 	lw	a2,4(v0)
8000d3b8:	8c470008 	lw	a3,8(v0)
8000d3bc:	8c48000c 	lw	t0,12(v0)
8000d3c0:	aca40000 	sw	a0,0(a1)
8000d3c4:	aca60004 	sw	a2,4(a1)
8000d3c8:	aca70008 	sw	a3,8(a1)
8000d3cc:	aca8000c 	sw	t0,12(a1)
8000d3d0:	24420010 	addiu	v0,v0,16
8000d3d4:	1443fff6 	bne	v0,v1,8000d3b0 <fstat+0x50>
8000d3d8:	24a50010 	addiu	a1,a1,16
8000d3dc:	8c430000 	lw	v1,0(v0)
8000d3e0:	8c440004 	lw	a0,4(v0)
8000d3e4:	8c460008 	lw	a2,8(v0)
8000d3e8:	aca30000 	sw	v1,0(a1)
8000d3ec:	aca40004 	sw	a0,4(a1)
8000d3f0:	00008021 	move	s0,zero
8000d3f4:	aca60008 	sw	a2,8(a1)
8000d3f8:	02001021 	move	v0,s0
8000d3fc:	8fbf0014 	lw	ra,20(sp)
8000d400:	8fb00010 	lw	s0,16(sp)
8000d404:	03e00008 	jr	ra
8000d408:	27bd0018 	addiu	sp,sp,24
8000d40c:	0c0037b8 	jal	8000dee0 <__errno>
8000d410:	00000000 	nop
8000d414:	2403000e 	li	v1,14
8000d418:	080034fe 	j	8000d3f8 <fstat+0x98>
8000d41c:	ac430000 	sw	v1,0(v0)
8000d420:	0c0037b8 	jal	8000dee0 <__errno>
8000d424:	00000000 	nop
8000d428:	08003506 	j	8000d418 <fstat+0xb8>
8000d42c:	24030009 	li	v1,9

8000d430 <isatty>:
8000d430:	3c058001 	lui	a1,0x8001
8000d434:	8ca5e7b0 	lw	a1,-6224(a1)
8000d438:	27bdffe8 	addiu	sp,sp,-24
8000d43c:	afbf0014 	sw	ra,20(sp)
8000d440:	00a4182b 	sltu	v1,a1,a0
8000d444:	14600019 	bnez	v1,8000d4ac <isatty+0x7c>
8000d448:	afb00010 	sw	s0,16(sp)
8000d44c:	04800017 	bltz	a0,8000d4ac <isatty+0x7c>
8000d450:	000410c0 	sll	v0,a0,0x3
8000d454:	00444823 	subu	t1,v0,a0
8000d458:	00094080 	sll	t0,t1,0x2
8000d45c:	01043823 	subu	a3,t0,a0
8000d460:	00071880 	sll	v1,a3,0x2
8000d464:	3c068001 	lui	a2,0x8001
8000d468:	00c33021 	addu	a2,a2,v1
8000d46c:	8cc608dc 	lw	a2,2268(a2)
8000d470:	30c4f000 	andi	a0,a2,0xf000
8000d474:	38822000 	xori	v0,a0,0x2000
8000d478:	2c500001 	sltiu	s0,v0,1
8000d47c:	12000006 	beqz	s0,8000d498 <isatty+0x68>
8000d480:	00000000 	nop
8000d484:	02001021 	move	v0,s0
8000d488:	8fbf0014 	lw	ra,20(sp)
8000d48c:	8fb00010 	lw	s0,16(sp)
8000d490:	03e00008 	jr	ra
8000d494:	27bd0018 	addiu	sp,sp,24
8000d498:	0c0037b8 	jal	8000dee0 <__errno>
8000d49c:	00000000 	nop
8000d4a0:	24030019 	li	v1,25
8000d4a4:	08003521 	j	8000d484 <isatty+0x54>
8000d4a8:	ac430000 	sw	v1,0(v0)
8000d4ac:	0c0037b8 	jal	8000dee0 <__errno>
8000d4b0:	00000000 	nop
8000d4b4:	08003529 	j	8000d4a4 <isatty+0x74>
8000d4b8:	24030009 	li	v1,9
8000d4bc:	00000000 	nop

8000d4c0 <lseek>:
8000d4c0:	24030058 	li	v1,88
8000d4c4:	3c018001 	lui	at,0x8001
8000d4c8:	ac23f708 	sw	v1,-2296(at)
8000d4cc:	03e00008 	jr	ra
8000d4d0:	2402ffff 	li	v0,-1
	...

8000d4e0 <exceptions_init>:
8000d4e0:	27bdffe8 	addiu	sp,sp,-24
8000d4e4:	afbf0010 	sw	ra,16(sp)
8000d4e8:	40076000 	mfc0	a3,$12
8000d4ec:	40026800 	mfc0	v0,$13
8000d4f0:	3c058001 	lui	a1,0x8001
8000d4f4:	24a5e950 	addiu	a1,a1,-5808
8000d4f8:	8ca60000 	lw	a2,0(a1)
8000d4fc:	30e90002 	andi	t1,a3,0x2
8000d500:	00072582 	srl	a0,a3,0x16
8000d504:	000245c2 	srl	t0,v0,0x17
8000d508:	30870001 	andi	a3,a0,0x1
8000d50c:	00092042 	srl	a0,t1,0x1
8000d510:	10c0000c 	beqz	a2,8000d544 <exceptions_init+0x64>
8000d514:	31090001 	andi	t1,t0,0x1
8000d518:	3c030080 	lui	v1,0x80
8000d51c:	3c0b3c04 	lui	t3,0x3c04
8000d520:	3c0a3484 	lui	t2,0x3484
8000d524:	34680008 	ori	t0,v1,0x8
8000d528:	8cac0008 	lw	t4,8(a1)
8000d52c:	51870012 	beql	t4,a3,8000d578 <exceptions_init+0x98>
8000d530:	8cad000c 	lw	t5,12(a1)
8000d534:	24a50014 	addiu	a1,a1,20
8000d538:	8cad0000 	lw	t5,0(a1)
8000d53c:	15a0fffa 	bnez	t5,8000d528 <exceptions_init+0x48>
8000d540:	01a03021 	move	a2,t5
8000d544:	3c048001 	lui	a0,0x8001
8000d548:	24840a00 	addiu	a0,a0,2560
8000d54c:	00002821 	move	a1,zero
8000d550:	0c0008d0 	jal	80002340 <memset>
8000d554:	3406a000 	li	a2,0xa000
8000d558:	3c048002 	lui	a0,0x8002
8000d55c:	2484aa00 	addiu	a0,a0,-22016
8000d560:	00002821 	move	a1,zero
8000d564:	0c0008d0 	jal	80002340 <memset>
8000d568:	24063000 	li	a2,12288
8000d56c:	8fbf0010 	lw	ra,16(sp)
8000d570:	03e00008 	jr	ra
8000d574:	27bd0018 	addiu	sp,sp,24
8000d578:	55a4ffef 	bnel	t5,a0,8000d538 <exceptions_init+0x58>
8000d57c:	24a50014 	addiu	a1,a1,20
8000d580:	8cae0010 	lw	t6,16(a1)
8000d584:	55c9ffec 	bnel	t6,t1,8000d538 <exceptions_init+0x58>
8000d588:	24a50014 	addiu	a1,a1,20
8000d58c:	8cac0004 	lw	t4,4(a1)
8000d590:	acc0000c 	sw	zero,12(a2)
8000d594:	acc80008 	sw	t0,8(a2)
8000d598:	3199ffff 	andi	t9,t4,0xffff
8000d59c:	000c1c02 	srl	v1,t4,0x10
8000d5a0:	006bc025 	or	t8,v1,t3
8000d5a4:	032a7825 	or	t7,t9,t2
8000d5a8:	acd80000 	sw	t8,0(a2)
8000d5ac:	0800354d 	j	8000d534 <exceptions_init+0x54>
8000d5b0:	accf0004 	sw	t7,4(a2)

8000d5b4 <interrupt_handler>:
8000d5b4:	3c048001 	lui	a0,0x8001
8000d5b8:	8c84e9d0 	lw	a0,-5680(a0)
8000d5bc:	27bdffe0 	addiu	sp,sp,-32
8000d5c0:	afbf0018 	sw	ra,24(sp)
8000d5c4:	afb10014 	sw	s1,20(sp)
8000d5c8:	0c0035c4 	jal	8000d710 <detect_exception_type>
8000d5cc:	afb00010 	sw	s0,16(sp)
8000d5d0:	3c048001 	lui	a0,0x8001
8000d5d4:	8c84e9c8 	lw	a0,-5688(a0)
8000d5d8:	10800009 	beqz	a0,8000d600 <interrupt_handler+0x4c>
8000d5dc:	24040001 	li	a0,1
8000d5e0:	24030001 	li	v1,1
8000d5e4:	3c018001 	lui	at,0x8001
8000d5e8:	ac23e9cc 	sw	v1,-5684(at)
8000d5ec:	8fbf0018 	lw	ra,24(sp)
8000d5f0:	8fb10014 	lw	s1,20(sp)
8000d5f4:	8fb00010 	lw	s0,16(sp)
8000d5f8:	03e00008 	jr	ra
8000d5fc:	27bd0020 	addiu	sp,sp,32
8000d600:	3c018001 	lui	at,0x8001
8000d604:	ac24e9c8 	sw	a0,-5688(at)
8000d608:	3c018001 	lui	at,0x8001
8000d60c:	ac20e9d0 	sw	zero,-5680(at)
8000d610:	1044001c 	beq	v0,a0,8000d684 <interrupt_handler+0xd0>
8000d614:	00026880 	sll	t5,v0,0x2
8000d618:	01a26021 	addu	t4,t5,v0
8000d61c:	000c5a00 	sll	t3,t4,0x8
8000d620:	3c108001 	lui	s0,0x8001
8000d624:	26100a04 	addiu	s0,s0,2564
8000d628:	020b8021 	addu	s0,s0,t3
8000d62c:	00008821 	move	s1,zero
8000d630:	8e030000 	lw	v1,0(s0)
8000d634:	26310001 	addiu	s1,s1,1
8000d638:	1060000e 	beqz	v1,8000d674 <interrupt_handler+0xc0>
8000d63c:	26100014 	addiu	s0,s0,20
8000d640:	3c198001 	lui	t9,0x8001
8000d644:	8f39e9d0 	lw	t9,-5680(t9)
8000d648:	0019c040 	sll	t8,t9,0x1
8000d64c:	03197821 	addu	t7,t8,t9
8000d650:	000f7180 	sll	t6,t7,0x6
8000d654:	3c048002 	lui	a0,0x8002
8000d658:	2484aa00 	addiu	a0,a0,-22016
8000d65c:	0060f809 	jalr	v1
8000d660:	008e2021 	addu	a0,a0,t6
8000d664:	10400003 	beqz	v0,8000d674 <interrupt_handler+0xc0>
8000d668:	2a230040 	slti	v1,s1,64
8000d66c:	5460fff1 	bnezl	v1,8000d634 <interrupt_handler+0x80>
8000d670:	8e030000 	lw	v1,0(s0)
8000d674:	3c018001 	lui	at,0x8001
8000d678:	ac20e9c8 	sw	zero,-5688(at)
8000d67c:	0800357c 	j	8000d5f0 <interrupt_handler+0x3c>
8000d680:	8fbf0018 	lw	ra,24(sp)
8000d684:	0c0035b7 	jal	8000d6dc <detect_device_interrupt>
8000d688:	00002021 	move	a0,zero
8000d68c:	0440fff9 	bltz	v0,8000d674 <interrupt_handler+0xc0>
8000d690:	00023880 	sll	a3,v0,0x2
8000d694:	00e23021 	addu	a2,a3,v0
8000d698:	00062880 	sll	a1,a2,0x2
8000d69c:	3c038001 	lui	v1,0x8001
8000d6a0:	00651821 	addu	v1,v1,a1
8000d6a4:	8c630f04 	lw	v1,3844(v1)
8000d6a8:	1060fff2 	beqz	v1,8000d674 <interrupt_handler+0xc0>
8000d6ac:	00000000 	nop
8000d6b0:	3c0a8001 	lui	t2,0x8001
8000d6b4:	8d4ae9d0 	lw	t2,-5680(t2)
8000d6b8:	000a4840 	sll	t1,t2,0x1
8000d6bc:	012a4021 	addu	t0,t1,t2
8000d6c0:	00081180 	sll	v0,t0,0x6
8000d6c4:	3c048002 	lui	a0,0x8002
8000d6c8:	2484aa00 	addiu	a0,a0,-22016
8000d6cc:	0060f809 	jalr	v1
8000d6d0:	00822021 	addu	a0,a0,v0
8000d6d4:	0800359d 	j	8000d674 <interrupt_handler+0xc0>
8000d6d8:	00000000 	nop

8000d6dc <detect_device_interrupt>:
8000d6dc:	00042840 	sll	a1,a0,0x1
8000d6e0:	00a41821 	addu	v1,a1,a0
8000d6e4:	00031180 	sll	v0,v1,0x6
8000d6e8:	27bdffe8 	addiu	sp,sp,-24
8000d6ec:	3c048002 	lui	a0,0x8002
8000d6f0:	2484aa00 	addiu	a0,a0,-22016
8000d6f4:	00822021 	addu	a0,a0,v0
8000d6f8:	afbf0010 	sw	ra,16(sp)
8000d6fc:	0c003718 	jal	8000dc60 <board_interrupt_2_device>
8000d700:	00000000 	nop
8000d704:	8fbf0010 	lw	ra,16(sp)
8000d708:	03e00008 	jr	ra
8000d70c:	27bd0018 	addiu	sp,sp,24

8000d710 <detect_exception_type>:
8000d710:	00043040 	sll	a2,a0,0x1
8000d714:	00c42821 	addu	a1,a2,a0
8000d718:	00051980 	sll	v1,a1,0x6
8000d71c:	3c048002 	lui	a0,0x8002
8000d720:	00832021 	addu	a0,a0,v1
8000d724:	8c84aa04 	lw	a0,-22012(a0)
8000d728:	3082007c 	andi	v0,a0,0x7c
8000d72c:	00021882 	srl	v1,v0,0x2
8000d730:	2c64001f 	sltiu	a0,v1,31
8000d734:	1080002c 	beqz	a0,8000d7e8 <detect_exception_type+0xd8>
8000d738:	00034080 	sll	t0,v1,0x2
8000d73c:	3c078001 	lui	a3,0x8001
8000d740:	00e83821 	addu	a3,a3,t0
8000d744:	8ce7f610 	lw	a3,-2544(a3)
8000d748:	00e00008 	jr	a3
8000d74c:	00000000 	nop
8000d750:	03e00008 	jr	ra
8000d754:	24020001 	li	v0,1
8000d758:	03e00008 	jr	ra
8000d75c:	24020002 	li	v0,2
8000d760:	03e00008 	jr	ra
8000d764:	24020003 	li	v0,3
8000d768:	03e00008 	jr	ra
8000d76c:	24020004 	li	v0,4
8000d770:	03e00008 	jr	ra
8000d774:	24020005 	li	v0,5
8000d778:	03e00008 	jr	ra
8000d77c:	24020006 	li	v0,6
8000d780:	03e00008 	jr	ra
8000d784:	24020007 	li	v0,7
8000d788:	03e00008 	jr	ra
8000d78c:	24020008 	li	v0,8
8000d790:	03e00008 	jr	ra
8000d794:	24020009 	li	v0,9
8000d798:	03e00008 	jr	ra
8000d79c:	2402000a 	li	v0,10
8000d7a0:	03e00008 	jr	ra
8000d7a4:	2402000b 	li	v0,11
8000d7a8:	03e00008 	jr	ra
8000d7ac:	2402000c 	li	v0,12
8000d7b0:	03e00008 	jr	ra
8000d7b4:	2402000d 	li	v0,13
8000d7b8:	03e00008 	jr	ra
8000d7bc:	2402000e 	li	v0,14
8000d7c0:	03e00008 	jr	ra
8000d7c4:	2402000f 	li	v0,15
8000d7c8:	03e00008 	jr	ra
8000d7cc:	24020010 	li	v0,16
8000d7d0:	03e00008 	jr	ra
8000d7d4:	24020011 	li	v0,17
8000d7d8:	03e00008 	jr	ra
8000d7dc:	24020012 	li	v0,18
8000d7e0:	03e00008 	jr	ra
8000d7e4:	24020014 	li	v0,20
8000d7e8:	03e00008 	jr	ra
8000d7ec:	00001021 	move	v0,zero
8000d7f0:	03e00008 	jr	ra
8000d7f4:	24020013 	li	v0,19

8000d7f8 <tlb_refill_handler>:
8000d7f8:	27bdffe8 	addiu	sp,sp,-24
8000d7fc:	0800004d 	j	80000134 <_start>
8000d800:	afbf0010 	sw	ra,16(sp)
8000d804:	0c000108 	jal	80000420 <exit>
8000d808:	00002021 	move	a0,zero
	...

8000d814 <main_handler>:
8000d814:	03a0d021 	move	k0,sp
8000d818:	3c1d8002 	lui	sp,0x8002
8000d81c:	27bdaa00 	addiu	sp,sp,-22016
8000d820:	afba00ac 	sw	k0,172(sp)
8000d824:	afa30044 	sw	v1,68(sp)
8000d828:	40036000 	mfc0	v1,$12
8000d82c:	afa20040 	sw	v0,64(sp)
8000d830:	afa30008 	sw	v1,8(sp)
8000d834:	afa40048 	sw	a0,72(sp)
8000d838:	24020004 	li	v0,4
8000d83c:	00622024 	and	a0,v1,v0
8000d840:	40037000 	mfc0	v1,$14
8000d844:	14440003 	bne	v0,a0,8000d854 <do_nothing>
8000d848:	afa5004c 	sw	a1,76(sp)
8000d84c:	00000000 	nop
8000d850:	4083f000 	mtc0	v1,$30

8000d854 <do_nothing>:
8000d854:	afa30000 	sw	v1,0(sp)
8000d858:	afa60050 	sw	a2,80(sp)
8000d85c:	afa70054 	sw	a3,84(sp)
8000d860:	40036800 	mfc0	v1,$13
8000d864:	afa30004 	sw	v1,4(sp)
8000d868:	afb9009c 	sw	t9,156(sp)
8000d86c:	afbc00a8 	sw	gp,168(sp)
8000d870:	afbf00b4 	sw	ra,180(sp)
8000d874:	37bc1fff 	ori	gp,sp,0x1fff
8000d878:	3b9c1fff 	xori	gp,gp,0x1fff
8000d87c:	afa1003c 	sw	at,60(sp)
8000d880:	00001810 	mfhi	v1
8000d884:	afa80058 	sw	t0,88(sp)
8000d888:	afa9005c 	sw	t1,92(sp)
8000d88c:	afa300bc 	sw	v1,188(sp)
8000d890:	00001812 	mflo	v1
8000d894:	afaa0060 	sw	t2,96(sp)
8000d898:	afab0064 	sw	t3,100(sp)
8000d89c:	afa300b8 	sw	v1,184(sp)
8000d8a0:	afac0068 	sw	t4,104(sp)
8000d8a4:	afad006c 	sw	t5,108(sp)
8000d8a8:	afae0070 	sw	t6,112(sp)
8000d8ac:	afaf0074 	sw	t7,116(sp)
8000d8b0:	afb80098 	sw	t8,152(sp)
8000d8b4:	afb00078 	sw	s0,120(sp)
8000d8b8:	afb1007c 	sw	s1,124(sp)
8000d8bc:	afb20080 	sw	s2,128(sp)
8000d8c0:	afb30084 	sw	s3,132(sp)
8000d8c4:	afb40088 	sw	s4,136(sp)
8000d8c8:	afb5008c 	sw	s5,140(sp)
8000d8cc:	afb60090 	sw	s6,144(sp)
8000d8d0:	afb70094 	sw	s7,148(sp)
8000d8d4:	afbe00b0 	sw	s8,176(sp)
8000d8d8:	3c1d8001 	lui	sp,0x8001
8000d8dc:	27bd0770 	addiu	sp,sp,1904
8000d8e0:	0c00356d 	jal	8000d5b4 <interrupt_handler>
8000d8e4:	00000000 	nop
8000d8e8:	00000000 	nop
8000d8ec:	3c1d8002 	lui	sp,0x8002
8000d8f0:	27bdaa00 	addiu	sp,sp,-22016
8000d8f4:	8fa20008 	lw	v0,8(sp)
8000d8f8:	40826000 	mtc0	v0,$12
8000d8fc:	8fa30000 	lw	v1,0(sp)
8000d900:	40837000 	mtc0	v1,$14
8000d904:	8fbf00b4 	lw	ra,180(sp)
8000d908:	8fbc00a8 	lw	gp,168(sp)
8000d90c:	8fb9009c 	lw	t9,156(sp)
8000d910:	8fa70054 	lw	a3,84(sp)
8000d914:	8fa60050 	lw	a2,80(sp)
8000d918:	8fa5004c 	lw	a1,76(sp)
8000d91c:	8fa40048 	lw	a0,72(sp)
8000d920:	8fa30044 	lw	v1,68(sp)
8000d924:	8fa20040 	lw	v0,64(sp)
8000d928:	8fa1003c 	lw	at,60(sp)
8000d92c:	8fb800b8 	lw	t8,184(sp)
8000d930:	8fa80058 	lw	t0,88(sp)
8000d934:	8fa9005c 	lw	t1,92(sp)
8000d938:	03000013 	mtlo	t8
8000d93c:	8fb800bc 	lw	t8,188(sp)
8000d940:	8faa0060 	lw	t2,96(sp)
8000d944:	8fab0064 	lw	t3,100(sp)
8000d948:	03000011 	mthi	t8
8000d94c:	8fac0068 	lw	t4,104(sp)
8000d950:	8fad006c 	lw	t5,108(sp)
8000d954:	8fae0070 	lw	t6,112(sp)
8000d958:	8faf0074 	lw	t7,116(sp)
8000d95c:	8fb80098 	lw	t8,152(sp)
8000d960:	8fb00078 	lw	s0,120(sp)
8000d964:	8fb1007c 	lw	s1,124(sp)
8000d968:	8fb20080 	lw	s2,128(sp)
8000d96c:	8fb30084 	lw	s3,132(sp)
8000d970:	8fb40088 	lw	s4,136(sp)
8000d974:	8fb5008c 	lw	s5,140(sp)
8000d978:	8fb60090 	lw	s6,144(sp)
8000d97c:	8fb70094 	lw	s7,148(sp)
8000d980:	8fbe00b0 	lw	s8,176(sp)
8000d984:	8fbd00ac 	lw	sp,172(sp)
8000d988:	42000018 	eret
8000d98c:	00000000 	nop

8000d990 <set_new_handler>:
8000d990:	00054080 	sll	t0,a1,0x2
8000d994:	01053821 	addu	a3,t0,a1
8000d998:	00071a00 	sll	v1,a3,0x8
8000d99c:	00805821 	move	t3,a0
8000d9a0:	24040001 	li	a0,1
8000d9a4:	3c0a8001 	lui	t2,0x8001
8000d9a8:	254a0a00 	addiu	t2,t2,2560
8000d9ac:	01435021 	addu	t2,t2,v1
8000d9b0:	2407ffff 	li	a3,-1
8000d9b4:	10a40048 	beq	a1,a0,8000dad8 <set_new_handler+0x148>
8000d9b8:	30c3003f 	andi	v1,a2,0x3f
8000d9bc:	3c05c000 	lui	a1,0xc000
8000d9c0:	00c52024 	and	a0,a2,a1
8000d9c4:	50800011 	beqzl	a0,8000da0c <set_new_handler+0x7c>
8000d9c8:	00603821 	move	a3,v1
8000d9cc:	3c098000 	lui	t1,0x8000
8000d9d0:	3c024000 	lui	v0,0x4000
8000d9d4:	00c92824 	and	a1,a2,t1
8000d9d8:	00004021 	move	t0,zero
8000d9dc:	00c23024 	and	a2,a2,v0
8000d9e0:	00087880 	sll	t7,t0,0x2
8000d9e4:	01e87021 	addu	t6,t7,t0
8000d9e8:	000e6880 	sll	t5,t6,0x2
8000d9ec:	01aa2021 	addu	a0,t5,t2
8000d9f0:	8c8c0004 	lw	t4,4(a0)
8000d9f4:	1180000e 	beqz	t4,8000da30 <set_new_handler+0xa0>
8000d9f8:	00000000 	nop
8000d9fc:	25080001 	addiu	t0,t0,1
8000da00:	29090040 	slti	t1,t0,64
8000da04:	1520fff7 	bnez	t1,8000d9e4 <set_new_handler+0x54>
8000da08:	00087880 	sll	t7,t0,0x2
8000da0c:	04e00006 	bltz	a3,8000da28 <set_new_handler+0x98>
8000da10:	00000000 	nop
8000da14:	00072080 	sll	a0,a3,0x2
8000da18:	0087c821 	addu	t9,a0,a3
8000da1c:	00193080 	sll	a2,t9,0x2
8000da20:	00ca4021 	addu	t0,a2,t2
8000da24:	ad0b0004 	sw	t3,4(t0)
8000da28:	03e00008 	jr	ra
8000da2c:	00e01021 	move	v0,a3
8000da30:	10c00013 	beqz	a2,8000da80 <set_new_handler+0xf0>
8000da34:	01003821 	move	a3,t0
8000da38:	5900fff4 	blezl	t0,8000da0c <set_new_handler+0x7c>
8000da3c:	00003821 	move	a3,zero
8000da40:	00803821 	move	a3,a0
8000da44:	8ce3ffec 	lw	v1,-20(a3)
8000da48:	8ce4fff0 	lw	a0,-16(a3)
8000da4c:	8cf9fff4 	lw	t9,-12(a3)
8000da50:	8ce6fff8 	lw	a2,-8(a3)
8000da54:	8cf8fffc 	lw	t8,-4(a3)
8000da58:	2508ffff 	addiu	t0,t0,-1
8000da5c:	ace30000 	sw	v1,0(a3)
8000da60:	ace40004 	sw	a0,4(a3)
8000da64:	acf90008 	sw	t9,8(a3)
8000da68:	ace6000c 	sw	a2,12(a3)
8000da6c:	acf80010 	sw	t8,16(a3)
8000da70:	1d00fff4 	bgtz	t0,8000da44 <set_new_handler+0xb4>
8000da74:	24e7ffec 	addiu	a3,a3,-20
8000da78:	08003683 	j	8000da0c <set_new_handler+0x7c>
8000da7c:	00003821 	move	a3,zero
8000da80:	10a0ffe2 	beqz	a1,8000da0c <set_new_handler+0x7c>
8000da84:	00000000 	nop
8000da88:	29050040 	slti	a1,t0,64
8000da8c:	10a0ffdf 	beqz	a1,8000da0c <set_new_handler+0x7c>
8000da90:	2407003f 	li	a3,63
8000da94:	00804821 	move	t1,a0
8000da98:	8d38ffec 	lw	t8,-20(t1)
8000da9c:	8d2ffff0 	lw	t7,-16(t1)
8000daa0:	8d2efff4 	lw	t6,-12(t1)
8000daa4:	8d2dfff8 	lw	t5,-8(t1)
8000daa8:	8d27fffc 	lw	a3,-4(t1)
8000daac:	25080001 	addiu	t0,t0,1
8000dab0:	290c0040 	slti	t4,t0,64
8000dab4:	ad380000 	sw	t8,0(t1)
8000dab8:	ad2f0004 	sw	t7,4(t1)
8000dabc:	ad2e0008 	sw	t6,8(t1)
8000dac0:	ad2d000c 	sw	t5,12(t1)
8000dac4:	ad270010 	sw	a3,16(t1)
8000dac8:	1580fff3 	bnez	t4,8000da98 <set_new_handler+0x108>
8000dacc:	25290014 	addiu	t1,t1,20
8000dad0:	08003683 	j	8000da0c <set_new_handler+0x7c>
8000dad4:	2407003f 	li	a3,63
8000dad8:	08003683 	j	8000da0c <set_new_handler+0x7c>
8000dadc:	00603821 	move	a3,v1

8000dae0 <enable_interrupt>:
8000dae0:	03e00008 	jr	ra
8000dae4:	00000000 	nop

8000dae8 <disable_interrupt>:
8000dae8:	03e00008 	jr	ra
8000daec:	00000000 	nop

8000daf0 <read>:
8000daf0:	000458c0 	sll	t3,a0,0x3
8000daf4:	01645023 	subu	t2,t3,a0
8000daf8:	000a4080 	sll	t0,t2,0x2
8000dafc:	01043823 	subu	a3,t0,a0
8000db00:	27bdffe8 	addiu	sp,sp,-24
8000db04:	00071880 	sll	v1,a3,0x2
8000db08:	afbf0010 	sw	ra,16(sp)
8000db0c:	3c078001 	lui	a3,0x8001
8000db10:	24e708b0 	addiu	a3,a3,2224
8000db14:	00e33821 	addu	a3,a3,v1
8000db18:	18c00008 	blez	a2,8000db3c <read+0x4c>
8000db1c:	2408ffff 	li	t0,-1
8000db20:	8ce90068 	lw	t1,104(a3)
8000db24:	31240001 	andi	a0,t1,0x1
8000db28:	10800004 	beqz	a0,8000db3c <read+0x4c>
8000db2c:	240c0001 	li	t4,1
8000db30:	8ce2001c 	lw	v0,28(a3)
8000db34:	104c0005 	beq	v0,t4,8000db4c <read+0x5c>
8000db38:	00e02021 	move	a0,a3
8000db3c:	8fbf0010 	lw	ra,16(sp)
8000db40:	01001021 	move	v0,t0
8000db44:	03e00008 	jr	ra
8000db48:	27bd0018 	addiu	sp,sp,24
8000db4c:	8ce20014 	lw	v0,20(a3)
8000db50:	0040f809 	jalr	v0
8000db54:	00000000 	nop
8000db58:	080036cf 	j	8000db3c <read+0x4c>
8000db5c:	00404021 	move	t0,v0

8000db60 <write>:
8000db60:	000458c0 	sll	t3,a0,0x3
8000db64:	01645023 	subu	t2,t3,a0
8000db68:	000a4080 	sll	t0,t2,0x2
8000db6c:	01043823 	subu	a3,t0,a0
8000db70:	27bdffe8 	addiu	sp,sp,-24
8000db74:	00071880 	sll	v1,a3,0x2
8000db78:	afbf0010 	sw	ra,16(sp)
8000db7c:	3c078001 	lui	a3,0x8001
8000db80:	24e708b0 	addiu	a3,a3,2224
8000db84:	00e33821 	addu	a3,a3,v1
8000db88:	18c00008 	blez	a2,8000dbac <write+0x4c>
8000db8c:	2408ffff 	li	t0,-1
8000db90:	8ce90068 	lw	t1,104(a3)
8000db94:	31240002 	andi	a0,t1,0x2
8000db98:	10800004 	beqz	a0,8000dbac <write+0x4c>
8000db9c:	240c0001 	li	t4,1
8000dba0:	8ce2001c 	lw	v0,28(a3)
8000dba4:	104c0005 	beq	v0,t4,8000dbbc <write+0x5c>
8000dba8:	00e02021 	move	a0,a3
8000dbac:	8fbf0010 	lw	ra,16(sp)
8000dbb0:	01001021 	move	v0,t0
8000dbb4:	03e00008 	jr	ra
8000dbb8:	27bd0018 	addiu	sp,sp,24
8000dbbc:	8ce20018 	lw	v0,24(a3)
8000dbc0:	0040f809 	jalr	v0
8000dbc4:	00000000 	nop
8000dbc8:	080036eb 	j	8000dbac <write+0x4c>
8000dbcc:	00404021 	move	t0,v0

8000dbd0 <close>:
8000dbd0:	000438c0 	sll	a3,a0,0x3
8000dbd4:	00e43023 	subu	a2,a3,a0
8000dbd8:	00062880 	sll	a1,a2,0x2
8000dbdc:	00a41823 	subu	v1,a1,a0
8000dbe0:	27bdffe8 	addiu	sp,sp,-24
8000dbe4:	00032880 	sll	a1,v1,0x2
8000dbe8:	28830003 	slti	v1,a0,3
8000dbec:	afbf0010 	sw	ra,16(sp)
8000dbf0:	1060000e 	beqz	v1,8000dc2c <close+0x5c>
8000dbf4:	2402ffff 	li	v0,-1
8000dbf8:	3c098001 	lui	t1,0x8001
8000dbfc:	252908b4 	addiu	t1,t1,2228
8000dc00:	3c088001 	lui	t0,0x8001
8000dc04:	01054021 	addu	t0,t0,a1
8000dc08:	8d0808cc 	lw	t0,2252(t0)
8000dc0c:	2524fffc 	addiu	a0,t1,-4
8000dc10:	00a41021 	addu	v0,a1,a0
8000dc14:	1500000b 	bnez	t0,8000dc44 <close+0x74>
8000dc18:	00402021 	move	a0,v0
8000dc1c:	240a0009 	li	t2,9
8000dc20:	3c018001 	lui	at,0x8001
8000dc24:	ac2af708 	sw	t2,-2296(at)
8000dc28:	00001021 	move	v0,zero
8000dc2c:	8fbf0010 	lw	ra,16(sp)
8000dc30:	240b0009 	li	t3,9
8000dc34:	3c018001 	lui	at,0x8001
8000dc38:	ac2bf708 	sw	t3,-2296(at)
8000dc3c:	03e00008 	jr	ra
8000dc40:	27bd0018 	addiu	sp,sp,24
8000dc44:	8c420010 	lw	v0,16(v0)
8000dc48:	0040f809 	jalr	v0
8000dc4c:	00000000 	nop
8000dc50:	3c018001 	lui	at,0x8001
8000dc54:	ac20f708 	sw	zero,-2296(at)
8000dc58:	0800370b 	j	8000dc2c <close+0x5c>
8000dc5c:	00001021 	move	v0,zero

8000dc60 <board_interrupt_2_device>:
8000dc60:	3c04b82f 	lui	a0,0xb82f
8000dc64:	34834004 	ori	v1,a0,0x4004
8000dc68:	8c650000 	lw	a1,0(v1)
8000dc6c:	30a30001 	andi	v1,a1,0x1
8000dc70:	10600004 	beqz	v1,8000dc84 <board_interrupt_2_device+0x24>
8000dc74:	2406ffff 	li	a2,-1
8000dc78:	00003021 	move	a2,zero
8000dc7c:	03e00008 	jr	ra
8000dc80:	00c01021 	move	v0,a2
8000dc84:	30a70002 	andi	a3,a1,0x2
8000dc88:	50e00003 	beqzl	a3,8000dc98 <board_interrupt_2_device+0x38>
8000dc8c:	30a80004 	andi	t0,a1,0x4
8000dc90:	0800371f 	j	8000dc7c <board_interrupt_2_device+0x1c>
8000dc94:	24060001 	li	a2,1
8000dc98:	51000003 	beqzl	t0,8000dca8 <board_interrupt_2_device+0x48>
8000dc9c:	30a90008 	andi	t1,a1,0x8
8000dca0:	0800371f 	j	8000dc7c <board_interrupt_2_device+0x1c>
8000dca4:	24060002 	li	a2,2
8000dca8:	51200003 	beqzl	t1,8000dcb8 <board_interrupt_2_device+0x58>
8000dcac:	30aa0010 	andi	t2,a1,0x10
8000dcb0:	0800371f 	j	8000dc7c <board_interrupt_2_device+0x1c>
8000dcb4:	24060003 	li	a2,3
8000dcb8:	51400003 	beqzl	t2,8000dcc8 <board_interrupt_2_device+0x68>
8000dcbc:	30ab0020 	andi	t3,a1,0x20
8000dcc0:	0800371f 	j	8000dc7c <board_interrupt_2_device+0x1c>
8000dcc4:	24060004 	li	a2,4
8000dcc8:	51600003 	beqzl	t3,8000dcd8 <board_interrupt_2_device+0x78>
8000dccc:	30ac0040 	andi	t4,a1,0x40
8000dcd0:	0800371f 	j	8000dc7c <board_interrupt_2_device+0x1c>
8000dcd4:	24060005 	li	a2,5
8000dcd8:	51800003 	beqzl	t4,8000dce8 <board_interrupt_2_device+0x88>
8000dcdc:	30ad0080 	andi	t5,a1,0x80
8000dce0:	0800371f 	j	8000dc7c <board_interrupt_2_device+0x1c>
8000dce4:	24060006 	li	a2,6
8000dce8:	51a00003 	beqzl	t5,8000dcf8 <board_interrupt_2_device+0x98>
8000dcec:	30ae0100 	andi	t6,a1,0x100
8000dcf0:	0800371f 	j	8000dc7c <board_interrupt_2_device+0x1c>
8000dcf4:	24060007 	li	a2,7
8000dcf8:	55c0ffe0 	bnezl	t6,8000dc7c <board_interrupt_2_device+0x1c>
8000dcfc:	24060008 	li	a2,8
8000dd00:	30af0200 	andi	t7,a1,0x200
8000dd04:	51e00003 	beqzl	t7,8000dd14 <board_interrupt_2_device+0xb4>
8000dd08:	30b80400 	andi	t8,a1,0x400
8000dd0c:	0800371f 	j	8000dc7c <board_interrupt_2_device+0x1c>
8000dd10:	24060009 	li	a2,9
8000dd14:	53000003 	beqzl	t8,8000dd24 <board_interrupt_2_device+0xc4>
8000dd18:	30b90800 	andi	t9,a1,0x800
8000dd1c:	0800371f 	j	8000dc7c <board_interrupt_2_device+0x1c>
8000dd20:	2406000a 	li	a2,10
8000dd24:	53200003 	beqzl	t9,8000dd34 <board_interrupt_2_device+0xd4>
8000dd28:	30a31000 	andi	v1,a1,0x1000
8000dd2c:	0800371f 	j	8000dc7c <board_interrupt_2_device+0x1c>
8000dd30:	2406000b 	li	a2,11
8000dd34:	50600003 	beqzl	v1,8000dd44 <board_interrupt_2_device+0xe4>
8000dd38:	30a42000 	andi	a0,a1,0x2000
8000dd3c:	0800371f 	j	8000dc7c <board_interrupt_2_device+0x1c>
8000dd40:	24060008 	li	a2,8
8000dd44:	50800003 	beqzl	a0,8000dd54 <board_interrupt_2_device+0xf4>
8000dd48:	30a74000 	andi	a3,a1,0x4000
8000dd4c:	0800371f 	j	8000dc7c <board_interrupt_2_device+0x1c>
8000dd50:	2406000d 	li	a2,13
8000dd54:	50e00003 	beqzl	a3,8000dd64 <board_interrupt_2_device+0x104>
8000dd58:	3c090008 	lui	t1,0x8
8000dd5c:	0800371f 	j	8000dc7c <board_interrupt_2_device+0x1c>
8000dd60:	2406000e 	li	a2,14
8000dd64:	00a94024 	and	t0,a1,t1
8000dd68:	51000003 	beqzl	t0,8000dd78 <board_interrupt_2_device+0x118>
8000dd6c:	3c0b0020 	lui	t3,0x20
8000dd70:	0800371f 	j	8000dc7c <board_interrupt_2_device+0x1c>
8000dd74:	2406000f 	li	a2,15
8000dd78:	00ab5024 	and	t2,a1,t3
8000dd7c:	51400003 	beqzl	t2,8000dd8c <board_interrupt_2_device+0x12c>
8000dd80:	3c0d0040 	lui	t5,0x40
8000dd84:	0800371f 	j	8000dc7c <board_interrupt_2_device+0x1c>
8000dd88:	24060010 	li	a2,16
8000dd8c:	00ad6024 	and	t4,a1,t5
8000dd90:	51800003 	beqzl	t4,8000dda0 <board_interrupt_2_device+0x140>
8000dd94:	3c0f0080 	lui	t7,0x80
8000dd98:	0800371f 	j	8000dc7c <board_interrupt_2_device+0x1c>
8000dd9c:	24060011 	li	a2,17
8000dda0:	00af7024 	and	t6,a1,t7
8000dda4:	51c00003 	beqzl	t6,8000ddb4 <board_interrupt_2_device+0x154>
8000dda8:	3c190100 	lui	t9,0x100
8000ddac:	0800371f 	j	8000dc7c <board_interrupt_2_device+0x1c>
8000ddb0:	24060012 	li	a2,18
8000ddb4:	00b9c024 	and	t8,a1,t9
8000ddb8:	53000003 	beqzl	t8,8000ddc8 <board_interrupt_2_device+0x168>
8000ddbc:	3c0b8000 	lui	t3,0x8000
8000ddc0:	0800371f 	j	8000dc7c <board_interrupt_2_device+0x1c>
8000ddc4:	24060013 	li	a2,19
8000ddc8:	3c0a4000 	lui	t2,0x4000
8000ddcc:	00ab4824 	and	t1,a1,t3
8000ddd0:	00aa3824 	and	a3,a1,t2
8000ddd4:	3c042000 	lui	a0,0x2000
8000ddd8:	24080016 	li	t0,22
8000dddc:	00a41824 	and	v1,a1,a0
8000dde0:	0109300b 	movn	a2,t0,t1
8000dde4:	38e20000 	xori	v0,a3,0x0
8000dde8:	24050015 	li	a1,21
8000ddec:	1060ffa3 	beqz	v1,8000dc7c <board_interrupt_2_device+0x1c>
8000ddf0:	00a2300b 	movn	a2,a1,v0
8000ddf4:	0800371f 	j	8000dc7c <board_interrupt_2_device+0x1c>
8000ddf8:	24060014 	li	a2,20

8000ddfc <board_device_2_interrupt>:
8000ddfc:	2c830017 	sltiu	v1,a0,23
8000de00:	10600034 	beqz	v1,8000ded4 <board_device_2_interrupt+0xd8>
8000de04:	00041880 	sll	v1,a0,0x2
8000de08:	3c048001 	lui	a0,0x8001
8000de0c:	00832021 	addu	a0,a0,v1
8000de10:	8c84f690 	lw	a0,-2416(a0)
8000de14:	00800008 	jr	a0
8000de18:	00000000 	nop
8000de1c:	03e00008 	jr	ra
8000de20:	24020080 	li	v0,128
8000de24:	03e00008 	jr	ra
8000de28:	24020001 	li	v0,1
8000de2c:	03e00008 	jr	ra
8000de30:	24020002 	li	v0,2
8000de34:	03e00008 	jr	ra
8000de38:	24020004 	li	v0,4
8000de3c:	03e00008 	jr	ra
8000de40:	24020008 	li	v0,8
8000de44:	03e00008 	jr	ra
8000de48:	24020010 	li	v0,16
8000de4c:	03e00008 	jr	ra
8000de50:	24020020 	li	v0,32
8000de54:	03e00008 	jr	ra
8000de58:	24020040 	li	v0,64
8000de5c:	03e00008 	jr	ra
8000de60:	24020100 	li	v0,256
8000de64:	03e00008 	jr	ra
8000de68:	24020200 	li	v0,512
8000de6c:	03e00008 	jr	ra
8000de70:	24020400 	li	v0,1024
8000de74:	03e00008 	jr	ra
8000de78:	24020800 	li	v0,2048
8000de7c:	03e00008 	jr	ra
8000de80:	24021000 	li	v0,4096
8000de84:	03e00008 	jr	ra
8000de88:	24022000 	li	v0,8192
8000de8c:	03e00008 	jr	ra
8000de90:	24024000 	li	v0,16384
8000de94:	03e00008 	jr	ra
8000de98:	3c020008 	lui	v0,0x8
8000de9c:	03e00008 	jr	ra
8000dea0:	3c020020 	lui	v0,0x20
8000dea4:	03e00008 	jr	ra
8000dea8:	3c020040 	lui	v0,0x40
8000deac:	03e00008 	jr	ra
8000deb0:	3c020080 	lui	v0,0x80
8000deb4:	03e00008 	jr	ra
8000deb8:	3c020100 	lui	v0,0x100
8000debc:	03e00008 	jr	ra
8000dec0:	3c022000 	lui	v0,0x2000
8000dec4:	03e00008 	jr	ra
8000dec8:	3c024000 	lui	v0,0x4000
8000decc:	03e00008 	jr	ra
8000ded0:	3c028000 	lui	v0,0x8000
8000ded4:	03e00008 	jr	ra
8000ded8:	2402ffff 	li	v0,-1
8000dedc:	00000000 	nop

8000dee0 <__errno>:
8000dee0:	3c048001 	lui	a0,0x8001
8000dee4:	03e00008 	jr	ra
8000dee8:	8c82e348 	lw	v0,-7352(a0)
8000deec:	00000000 	nop

8000def0 <_init>:
8000def0:	27bdffe0 	addiu	sp,sp,-32
8000def4:	afbf0014 	sw	ra,20(sp)
8000def8:	0c00002a 	jal	800000a8 <frame_dummy>
8000defc:	00000000 	nop
8000df00:	0c0000dc 	jal	80000370 <__do_global_ctors_aux>
8000df04:	00000000 	nop
8000df08:	8fbf0014 	lw	ra,20(sp)
8000df0c:	27bd0020 	addiu	sp,sp,32
8000df10:	03e00008 	jr	ra
8000df14:	00000000 	nop

8000df18 <_fini>:
8000df18:	27bdffe0 	addiu	sp,sp,-32
8000df1c:	afbf0014 	sw	ra,20(sp)
8000df20:	0c000000 	jal	80000000 <__do_global_dtors_aux>
8000df24:	00000000 	nop
8000df28:	8fbf0014 	lw	ra,20(sp)
8000df2c:	27bd0020 	addiu	sp,sp,32
8000df30:	03e00008 	jr	ra
8000df34:	00000000 	nop
Disassembly of section .data:

8000df40 <__dso_handle>:
8000df40:	00000000 	nop

8000df44 <p.0>:
8000df44:	8000e9ec 	lb	zero,-5652(zero)
	...

8000df50 <impure_data>:
8000df50:	00000000 	nop
8000df54:	8000e23c 	lb	zero,-7620(zero)
8000df58:	8000e294 	lb	zero,-7532(zero)
8000df5c:	8000e2ec 	lb	zero,-7444(zero)
	...
8000df84:	8000ea00 	lb	zero,-5632(zero)
	...
8000dff8:	00000001 	movf	zero,zero,$fcc0
8000dffc:	00000000 	nop
8000e000:	abcd330e 	swl	t5,13070(s8)
8000e004:	e66d1234 	swc1	$f13,4660(s3)
8000e008:	0005deec 	0x5deec
8000e00c:	0000000b 	movn	zero,zero,zero
	...

8000e348 <_impure_ptr>:
8000e348:	8000df50 	lb	zero,-8368(zero)
8000e34c:	00000000 	nop

8000e350 <__malloc_av_>:
	...
8000e358:	8000e350 	lb	zero,-7344(zero)
8000e35c:	8000e350 	lb	zero,-7344(zero)
8000e360:	8000e358 	lb	zero,-7336(zero)
8000e364:	8000e358 	lb	zero,-7336(zero)
8000e368:	8000e360 	lb	zero,-7328(zero)
8000e36c:	8000e360 	lb	zero,-7328(zero)
8000e370:	8000e368 	lb	zero,-7320(zero)
8000e374:	8000e368 	lb	zero,-7320(zero)
8000e378:	8000e370 	lb	zero,-7312(zero)
8000e37c:	8000e370 	lb	zero,-7312(zero)
8000e380:	8000e378 	lb	zero,-7304(zero)
8000e384:	8000e378 	lb	zero,-7304(zero)
8000e388:	8000e380 	lb	zero,-7296(zero)
8000e38c:	8000e380 	lb	zero,-7296(zero)
8000e390:	8000e388 	lb	zero,-7288(zero)
8000e394:	8000e388 	lb	zero,-7288(zero)
8000e398:	8000e390 	lb	zero,-7280(zero)
8000e39c:	8000e390 	lb	zero,-7280(zero)
8000e3a0:	8000e398 	lb	zero,-7272(zero)
8000e3a4:	8000e398 	lb	zero,-7272(zero)
8000e3a8:	8000e3a0 	lb	zero,-7264(zero)
8000e3ac:	8000e3a0 	lb	zero,-7264(zero)
8000e3b0:	8000e3a8 	lb	zero,-7256(zero)
8000e3b4:	8000e3a8 	lb	zero,-7256(zero)
8000e3b8:	8000e3b0 	lb	zero,-7248(zero)
8000e3bc:	8000e3b0 	lb	zero,-7248(zero)
8000e3c0:	8000e3b8 	lb	zero,-7240(zero)
8000e3c4:	8000e3b8 	lb	zero,-7240(zero)
8000e3c8:	8000e3c0 	lb	zero,-7232(zero)
8000e3cc:	8000e3c0 	lb	zero,-7232(zero)
8000e3d0:	8000e3c8 	lb	zero,-7224(zero)
8000e3d4:	8000e3c8 	lb	zero,-7224(zero)
8000e3d8:	8000e3d0 	lb	zero,-7216(zero)
8000e3dc:	8000e3d0 	lb	zero,-7216(zero)
8000e3e0:	8000e3d8 	lb	zero,-7208(zero)
8000e3e4:	8000e3d8 	lb	zero,-7208(zero)
8000e3e8:	8000e3e0 	lb	zero,-7200(zero)
8000e3ec:	8000e3e0 	lb	zero,-7200(zero)
8000e3f0:	8000e3e8 	lb	zero,-7192(zero)
8000e3f4:	8000e3e8 	lb	zero,-7192(zero)
8000e3f8:	8000e3f0 	lb	zero,-7184(zero)
8000e3fc:	8000e3f0 	lb	zero,-7184(zero)
8000e400:	8000e3f8 	lb	zero,-7176(zero)
8000e404:	8000e3f8 	lb	zero,-7176(zero)
8000e408:	8000e400 	lb	zero,-7168(zero)
8000e40c:	8000e400 	lb	zero,-7168(zero)
8000e410:	8000e408 	lb	zero,-7160(zero)
8000e414:	8000e408 	lb	zero,-7160(zero)
8000e418:	8000e410 	lb	zero,-7152(zero)
8000e41c:	8000e410 	lb	zero,-7152(zero)
8000e420:	8000e418 	lb	zero,-7144(zero)
8000e424:	8000e418 	lb	zero,-7144(zero)
8000e428:	8000e420 	lb	zero,-7136(zero)
8000e42c:	8000e420 	lb	zero,-7136(zero)
8000e430:	8000e428 	lb	zero,-7128(zero)
8000e434:	8000e428 	lb	zero,-7128(zero)
8000e438:	8000e430 	lb	zero,-7120(zero)
8000e43c:	8000e430 	lb	zero,-7120(zero)
8000e440:	8000e438 	lb	zero,-7112(zero)
8000e444:	8000e438 	lb	zero,-7112(zero)
8000e448:	8000e440 	lb	zero,-7104(zero)
8000e44c:	8000e440 	lb	zero,-7104(zero)
8000e450:	8000e448 	lb	zero,-7096(zero)
8000e454:	8000e448 	lb	zero,-7096(zero)
8000e458:	8000e450 	lb	zero,-7088(zero)
8000e45c:	8000e450 	lb	zero,-7088(zero)
8000e460:	8000e458 	lb	zero,-7080(zero)
8000e464:	8000e458 	lb	zero,-7080(zero)
8000e468:	8000e460 	lb	zero,-7072(zero)
8000e46c:	8000e460 	lb	zero,-7072(zero)
8000e470:	8000e468 	lb	zero,-7064(zero)
8000e474:	8000e468 	lb	zero,-7064(zero)
8000e478:	8000e470 	lb	zero,-7056(zero)
8000e47c:	8000e470 	lb	zero,-7056(zero)
8000e480:	8000e478 	lb	zero,-7048(zero)
8000e484:	8000e478 	lb	zero,-7048(zero)
8000e488:	8000e480 	lb	zero,-7040(zero)
8000e48c:	8000e480 	lb	zero,-7040(zero)
8000e490:	8000e488 	lb	zero,-7032(zero)
8000e494:	8000e488 	lb	zero,-7032(zero)
8000e498:	8000e490 	lb	zero,-7024(zero)
8000e49c:	8000e490 	lb	zero,-7024(zero)
8000e4a0:	8000e498 	lb	zero,-7016(zero)
8000e4a4:	8000e498 	lb	zero,-7016(zero)
8000e4a8:	8000e4a0 	lb	zero,-7008(zero)
8000e4ac:	8000e4a0 	lb	zero,-7008(zero)
8000e4b0:	8000e4a8 	lb	zero,-7000(zero)
8000e4b4:	8000e4a8 	lb	zero,-7000(zero)
8000e4b8:	8000e4b0 	lb	zero,-6992(zero)
8000e4bc:	8000e4b0 	lb	zero,-6992(zero)
8000e4c0:	8000e4b8 	lb	zero,-6984(zero)
8000e4c4:	8000e4b8 	lb	zero,-6984(zero)
8000e4c8:	8000e4c0 	lb	zero,-6976(zero)
8000e4cc:	8000e4c0 	lb	zero,-6976(zero)
8000e4d0:	8000e4c8 	lb	zero,-6968(zero)
8000e4d4:	8000e4c8 	lb	zero,-6968(zero)
8000e4d8:	8000e4d0 	lb	zero,-6960(zero)
8000e4dc:	8000e4d0 	lb	zero,-6960(zero)
8000e4e0:	8000e4d8 	lb	zero,-6952(zero)
8000e4e4:	8000e4d8 	lb	zero,-6952(zero)
8000e4e8:	8000e4e0 	lb	zero,-6944(zero)
8000e4ec:	8000e4e0 	lb	zero,-6944(zero)
8000e4f0:	8000e4e8 	lb	zero,-6936(zero)
8000e4f4:	8000e4e8 	lb	zero,-6936(zero)
8000e4f8:	8000e4f0 	lb	zero,-6928(zero)
8000e4fc:	8000e4f0 	lb	zero,-6928(zero)
8000e500:	8000e4f8 	lb	zero,-6920(zero)
8000e504:	8000e4f8 	lb	zero,-6920(zero)
8000e508:	8000e500 	lb	zero,-6912(zero)
8000e50c:	8000e500 	lb	zero,-6912(zero)
8000e510:	8000e508 	lb	zero,-6904(zero)
8000e514:	8000e508 	lb	zero,-6904(zero)
8000e518:	8000e510 	lb	zero,-6896(zero)
8000e51c:	8000e510 	lb	zero,-6896(zero)
8000e520:	8000e518 	lb	zero,-6888(zero)
8000e524:	8000e518 	lb	zero,-6888(zero)
8000e528:	8000e520 	lb	zero,-6880(zero)
8000e52c:	8000e520 	lb	zero,-6880(zero)
8000e530:	8000e528 	lb	zero,-6872(zero)
8000e534:	8000e528 	lb	zero,-6872(zero)
8000e538:	8000e530 	lb	zero,-6864(zero)
8000e53c:	8000e530 	lb	zero,-6864(zero)
8000e540:	8000e538 	lb	zero,-6856(zero)
8000e544:	8000e538 	lb	zero,-6856(zero)
8000e548:	8000e540 	lb	zero,-6848(zero)
8000e54c:	8000e540 	lb	zero,-6848(zero)
8000e550:	8000e548 	lb	zero,-6840(zero)
8000e554:	8000e548 	lb	zero,-6840(zero)
8000e558:	8000e550 	lb	zero,-6832(zero)
8000e55c:	8000e550 	lb	zero,-6832(zero)
8000e560:	8000e558 	lb	zero,-6824(zero)
8000e564:	8000e558 	lb	zero,-6824(zero)
8000e568:	8000e560 	lb	zero,-6816(zero)
8000e56c:	8000e560 	lb	zero,-6816(zero)
8000e570:	8000e568 	lb	zero,-6808(zero)
8000e574:	8000e568 	lb	zero,-6808(zero)
8000e578:	8000e570 	lb	zero,-6800(zero)
8000e57c:	8000e570 	lb	zero,-6800(zero)
8000e580:	8000e578 	lb	zero,-6792(zero)
8000e584:	8000e578 	lb	zero,-6792(zero)
8000e588:	8000e580 	lb	zero,-6784(zero)
8000e58c:	8000e580 	lb	zero,-6784(zero)
8000e590:	8000e588 	lb	zero,-6776(zero)
8000e594:	8000e588 	lb	zero,-6776(zero)
8000e598:	8000e590 	lb	zero,-6768(zero)
8000e59c:	8000e590 	lb	zero,-6768(zero)
8000e5a0:	8000e598 	lb	zero,-6760(zero)
8000e5a4:	8000e598 	lb	zero,-6760(zero)
8000e5a8:	8000e5a0 	lb	zero,-6752(zero)
8000e5ac:	8000e5a0 	lb	zero,-6752(zero)
8000e5b0:	8000e5a8 	lb	zero,-6744(zero)
8000e5b4:	8000e5a8 	lb	zero,-6744(zero)
8000e5b8:	8000e5b0 	lb	zero,-6736(zero)
8000e5bc:	8000e5b0 	lb	zero,-6736(zero)
8000e5c0:	8000e5b8 	lb	zero,-6728(zero)
8000e5c4:	8000e5b8 	lb	zero,-6728(zero)
8000e5c8:	8000e5c0 	lb	zero,-6720(zero)
8000e5cc:	8000e5c0 	lb	zero,-6720(zero)
8000e5d0:	8000e5c8 	lb	zero,-6712(zero)
8000e5d4:	8000e5c8 	lb	zero,-6712(zero)
8000e5d8:	8000e5d0 	lb	zero,-6704(zero)
8000e5dc:	8000e5d0 	lb	zero,-6704(zero)
8000e5e0:	8000e5d8 	lb	zero,-6696(zero)
8000e5e4:	8000e5d8 	lb	zero,-6696(zero)
8000e5e8:	8000e5e0 	lb	zero,-6688(zero)
8000e5ec:	8000e5e0 	lb	zero,-6688(zero)
8000e5f0:	8000e5e8 	lb	zero,-6680(zero)
8000e5f4:	8000e5e8 	lb	zero,-6680(zero)
8000e5f8:	8000e5f0 	lb	zero,-6672(zero)
8000e5fc:	8000e5f0 	lb	zero,-6672(zero)
8000e600:	8000e5f8 	lb	zero,-6664(zero)
8000e604:	8000e5f8 	lb	zero,-6664(zero)
8000e608:	8000e600 	lb	zero,-6656(zero)
8000e60c:	8000e600 	lb	zero,-6656(zero)
8000e610:	8000e608 	lb	zero,-6648(zero)
8000e614:	8000e608 	lb	zero,-6648(zero)
8000e618:	8000e610 	lb	zero,-6640(zero)
8000e61c:	8000e610 	lb	zero,-6640(zero)
8000e620:	8000e618 	lb	zero,-6632(zero)
8000e624:	8000e618 	lb	zero,-6632(zero)
8000e628:	8000e620 	lb	zero,-6624(zero)
8000e62c:	8000e620 	lb	zero,-6624(zero)
8000e630:	8000e628 	lb	zero,-6616(zero)
8000e634:	8000e628 	lb	zero,-6616(zero)
8000e638:	8000e630 	lb	zero,-6608(zero)
8000e63c:	8000e630 	lb	zero,-6608(zero)
8000e640:	8000e638 	lb	zero,-6600(zero)
8000e644:	8000e638 	lb	zero,-6600(zero)
8000e648:	8000e640 	lb	zero,-6592(zero)
8000e64c:	8000e640 	lb	zero,-6592(zero)
8000e650:	8000e648 	lb	zero,-6584(zero)
8000e654:	8000e648 	lb	zero,-6584(zero)
8000e658:	8000e650 	lb	zero,-6576(zero)
8000e65c:	8000e650 	lb	zero,-6576(zero)
8000e660:	8000e658 	lb	zero,-6568(zero)
8000e664:	8000e658 	lb	zero,-6568(zero)
8000e668:	8000e660 	lb	zero,-6560(zero)
8000e66c:	8000e660 	lb	zero,-6560(zero)
8000e670:	8000e668 	lb	zero,-6552(zero)
8000e674:	8000e668 	lb	zero,-6552(zero)
8000e678:	8000e670 	lb	zero,-6544(zero)
8000e67c:	8000e670 	lb	zero,-6544(zero)
8000e680:	8000e678 	lb	zero,-6536(zero)
8000e684:	8000e678 	lb	zero,-6536(zero)
8000e688:	8000e680 	lb	zero,-6528(zero)
8000e68c:	8000e680 	lb	zero,-6528(zero)
8000e690:	8000e688 	lb	zero,-6520(zero)
8000e694:	8000e688 	lb	zero,-6520(zero)
8000e698:	8000e690 	lb	zero,-6512(zero)
8000e69c:	8000e690 	lb	zero,-6512(zero)
8000e6a0:	8000e698 	lb	zero,-6504(zero)
8000e6a4:	8000e698 	lb	zero,-6504(zero)
8000e6a8:	8000e6a0 	lb	zero,-6496(zero)
8000e6ac:	8000e6a0 	lb	zero,-6496(zero)
8000e6b0:	8000e6a8 	lb	zero,-6488(zero)
8000e6b4:	8000e6a8 	lb	zero,-6488(zero)
8000e6b8:	8000e6b0 	lb	zero,-6480(zero)
8000e6bc:	8000e6b0 	lb	zero,-6480(zero)
8000e6c0:	8000e6b8 	lb	zero,-6472(zero)
8000e6c4:	8000e6b8 	lb	zero,-6472(zero)
8000e6c8:	8000e6c0 	lb	zero,-6464(zero)
8000e6cc:	8000e6c0 	lb	zero,-6464(zero)
8000e6d0:	8000e6c8 	lb	zero,-6456(zero)
8000e6d4:	8000e6c8 	lb	zero,-6456(zero)
8000e6d8:	8000e6d0 	lb	zero,-6448(zero)
8000e6dc:	8000e6d0 	lb	zero,-6448(zero)
8000e6e0:	8000e6d8 	lb	zero,-6440(zero)
8000e6e4:	8000e6d8 	lb	zero,-6440(zero)
8000e6e8:	8000e6e0 	lb	zero,-6432(zero)
8000e6ec:	8000e6e0 	lb	zero,-6432(zero)
8000e6f0:	8000e6e8 	lb	zero,-6424(zero)
8000e6f4:	8000e6e8 	lb	zero,-6424(zero)
8000e6f8:	8000e6f0 	lb	zero,-6416(zero)
8000e6fc:	8000e6f0 	lb	zero,-6416(zero)
8000e700:	8000e6f8 	lb	zero,-6408(zero)
8000e704:	8000e6f8 	lb	zero,-6408(zero)
8000e708:	8000e700 	lb	zero,-6400(zero)
8000e70c:	8000e700 	lb	zero,-6400(zero)
8000e710:	8000e708 	lb	zero,-6392(zero)
8000e714:	8000e708 	lb	zero,-6392(zero)
8000e718:	8000e710 	lb	zero,-6384(zero)
8000e71c:	8000e710 	lb	zero,-6384(zero)
8000e720:	8000e718 	lb	zero,-6376(zero)
8000e724:	8000e718 	lb	zero,-6376(zero)
8000e728:	8000e720 	lb	zero,-6368(zero)
8000e72c:	8000e720 	lb	zero,-6368(zero)
8000e730:	8000e728 	lb	zero,-6360(zero)
8000e734:	8000e728 	lb	zero,-6360(zero)
8000e738:	8000e730 	lb	zero,-6352(zero)
8000e73c:	8000e730 	lb	zero,-6352(zero)
8000e740:	8000e738 	lb	zero,-6344(zero)
8000e744:	8000e738 	lb	zero,-6344(zero)
8000e748:	8000e740 	lb	zero,-6336(zero)
8000e74c:	8000e740 	lb	zero,-6336(zero)
8000e750:	8000e748 	lb	zero,-6328(zero)
8000e754:	8000e748 	lb	zero,-6328(zero)

8000e758 <__malloc_trim_threshold>:
8000e758:	00020000 	sll	zero,v0,0x0

8000e75c <__malloc_top_pad>:
8000e75c:	00000000 	nop

8000e760 <__malloc_sbrk_base>:
8000e760:	ffffffff 	sdc3	$31,-1(ra)

8000e764 <__malloc_max_sbrked_mem>:
8000e764:	00000000 	nop

8000e768 <__malloc_max_total_mem>:
8000e768:	00000000 	nop

8000e76c <__malloc_current_mallinfo>:
	...

8000e7a0 <heap_end.0>:
8000e7a0:	80025a10 	lb	v0,23056(zero)
	...

8000e7b0 <n_ports>:
8000e7b0:	00000003 	sra	zero,zero,0x0

8000e7b4 <file_desc>:
8000e7b4:	00000000 	nop

8000e7b8 <cpu_clocks_per_sec>:
	...

8000e7c0 <ext_oscilator_clock>:
8000e7c0:	00008000 	sll	s0,zero,0x0
8000e7c4:	00000000 	nop

8000e7c8 <live_seconds>:
	...

8000e7d0 <live_microseconds>:
	...

8000e7d8 <board_mask_register>:
8000e7d8:	b82f4000 	swr	t7,16384(at)
8000e7dc:	00000000 	nop

8000e7e0 <uart>:
	...
8000e7e8:	8000f740 	lb	zero,-2240(zero)
	...

8000e810 <sport0_ctrl>:
8000e810:	000001fb 	0x1fb
	...

8000e834 <sport1_ctrl>:
8000e834:	000001fb 	0x1fb
	...

8000e858 <sport0>:
	...
8000e860:	8000e810 	lb	zero,-6128(zero)
	...

8000e87c <sport1>:
8000e87c:	00000001 	movf	zero,zero,$fcc0
8000e880:	00000000 	nop
8000e884:	8000e834 	lb	zero,-6092(zero)
	...

8000e8a0 <prev_tzenv>:
8000e8a0:	00000000 	nop

8000e8a4 <_tzname>:
8000e8a4:	8000eb00 	lb	zero,-5376(zero)
8000e8a8:	8000eb00 	lb	zero,-5376(zero)

8000e8ac <_daylight>:
8000e8ac:	00000000 	nop

8000e8b0 <_timezone>:
8000e8b0:	00000000 	nop

8000e8b4 <__tzyear>:
8000e8b4:	00000000 	nop

8000e8b8 <__tznorth>:
8000e8b8:	00000001 	movf	zero,zero,$fcc0

8000e8bc <__tzrule>:
8000e8bc:	0000004a 	0x4a
	...
8000e8d8:	0000004a 	0x4a
	...

8000e900 <__ctype_ptr>:
8000e900:	8000ebe0 	lb	zero,-5152(zero)
	...

8000e910 <p_environ>:
8000e910:	8000e924 	lb	zero,-5852(zero)
	...

8000e920 <initial_env>:
8000e920:	00000000 	nop

8000e924 <environ>:
8000e924:	8000e920 	lb	zero,-5856(zero)
	...

8000e930 <__mb_cur_max>:
8000e930:	00000001 	movf	zero,zero,$fcc0

8000e934 <__nlocale_changed>:
8000e934:	00000000 	nop

8000e938 <__mlocale_changed>:
8000e938:	00000000 	nop

8000e93c <_PathLocale>:
8000e93c:	00000000 	nop

8000e940 <charset>:
8000e940:	8000f188 	lb	zero,-3704(zero)

8000e944 <__lc_ctype>:
8000e944:	00000043 	sra	zero,zero,0x1
	...

8000e950 <handlers>:
8000e950:	bfc00000 	cache	0x0,0(s8)
8000e954:	80000134 	lb	zero,308(zero)
	...
8000e964:	bfc00200 	cache	0x0,512(s8)
8000e968:	8000d7f8 	lb	zero,-10248(zero)
8000e96c:	00000001 	movf	zero,zero,$fcc0
	...
8000e978:	bfc00380 	cache	0x0,896(s8)
8000e97c:	8000d7f8 	lb	zero,-10248(zero)
8000e980:	00000001 	movf	zero,zero,$fcc0
8000e984:	00000001 	movf	zero,zero,$fcc0
8000e988:	00000000 	nop
8000e98c:	bfc00380 	cache	0x0,896(s8)
8000e990:	8000d814 	lb	zero,-10220(zero)
8000e994:	00000001 	movf	zero,zero,$fcc0
	...
8000e9a0:	bfc00400 	cache	0x0,1024(s8)
8000e9a4:	8000d814 	lb	zero,-10220(zero)
8000e9a8:	00000001 	movf	zero,zero,$fcc0
8000e9ac:	00000000 	nop
8000e9b0:	00000001 	movf	zero,zero,$fcc0
	...

8000e9c8 <in_except_mode>:
8000e9c8:	00000000 	nop

8000e9cc <flood_except_detect>:
8000e9cc:	00000000 	nop

8000e9d0 <except_num>:
	...
Disassembly of section .ctors:

8000e9e0 <__CTOR_LIST__>:
8000e9e0:	ffffffff 	sdc3	$31,-1(ra)

8000e9e4 <__CTOR_END__>:
8000e9e4:	00000000 	nop
Disassembly of section .dtors:

8000e9e8 <__DTOR_LIST__>:
8000e9e8:	ffffffff 	sdc3	$31,-1(ra)

8000e9ec <__DTOR_END__>:
8000e9ec:	00000000 	nop
Disassembly of section .eh_frame:

8000e9f0 <__EH_FRAME_BEGIN__>:
8000e9f0:	00000000 	nop
Disassembly of section .jcr:

8000e9f4 <__JCR_END__>:
8000e9f4:	00000000 	nop
Disassembly of section .reginfo:

8000f6f0 <.reginfo>:
8000f6f0:	a0000000 	sb	zero,0(zero)
	...
8000f704:	8000ea00 	lb	zero,-5632(zero)
Disassembly of section .DSP_text:

b8440000 <Start_DSP>:
b8440000:	0001ff00 	sll	ra,at,0x1c
b8440004:	00000001 	movf	zero,zero,$fcc0
b8440008:	0003ff00 	sll	ra,v1,0x1c
b844000c:	00000001 	movf	zero,zero,$fcc0
b8440010:	0005ff00 	sll	ra,a1,0x1c
b8440014:	00000001 	movf	zero,zero,$fcc0
b8440018:	0007ff00 	sll	ra,a3,0x1c
b844001c:	00000001 	movf	zero,zero,$fcc0
b8440020:	080001ed 	j	b00007b4 <_end+0x2ffdada4>
b8440024:	100101ed 	beq	zero,at,b84407dc <L3+0x6fc>
b8440028:	180201ed 	0x180201ed
b844002c:	600021ed 	0x600021ed
b8440030:	0011ff00 	sll	ra,s1,0x1c
b8440034:	00000000 	nop
b8440038:	0013ff00 	sll	ra,s3,0x1c
b844003c:	00000000 	nop
b8440040:	0000210d 	break	0x84
b8440044:	00000010 	mfhi	zero
b8440048:	00010780 	sll	zero,at,0x1e
b844004c:	00004220 	0x4220

b8440050 <L1>:
b8440050:	00000180 	sll	zero,zero,0x6
b8440054:	0000210d 	break	0x84
b8440058:	00000010 	mfhi	zero
b844005c:	00011780 	sll	v0,at,0x1e
b8440060:	00004420 	0x4420

b8440064 <L2>:
b8440064:	00000180 	sll	zero,zero,0x6
b8440068:	080001ed 	j	b00007b4 <_end+0x2ffdada4>
b844006c:	100101ed 	beq	zero,at,b8440824 <L3+0x744>
b8440070:	0000e10d 	break	0x384
b8440074:	00000002 	srl	zero,zero,0x0
b8440078:	0000c90d 	break	0x324
b844007c:	00000004 	sllv	zero,zero,zero
b8440080:	0019ff00 	sll	ra,t9,0x1c
b8440084:	00000000 	nop
b8440088:	0011ff00 	sll	ra,s1,0x1c
b844008c:	00000000 	nop
b8440090:	0013ff00 	sll	ra,s3,0x1c
b8440094:	00000000 	nop
b8440098:	0f801567 	jal	be00559c <L3+0x5bc54bc>
b844009c:	0f802467 	jal	be00919c <L3+0x5bc90bc>
b84400a0:	0000690d 	break	0x1a4
b84400a4:	00000004 	sllv	zero,zero,zero
b84400a8:	00011780 	sll	v0,at,0x1e
b84400ac:	00004320 	0x4320
b84400b0:	00012780 	sll	a0,at,0x1e
b84400b4:	00006920 	0x6920
b84400b8:	00000780 	sll	zero,zero,0x1e
b84400bc:	11880027 	beq	t4,t0,b844015c <L3+0x7c>
b84400c0:	578e5467 	bnel	gp,t6,b8455260 <L3+0x15180>
b84400c4:	00153e00 	sll	a3,s5,0x18
b84400c8:	321107b5 	andi	s1,s0,0x7b5
b84400cc:	00000020 	add	zero,zero,zero
b84400d0:	431278a4 	c0	0x11278a4

b84400d4 <L5>:
b84400d4:	00000180 	sll	zero,zero,0x6
b84400d8:	0799c267 	0x799c267

b84400dc <L4>:
b84400dc:	00000180 	sll	zero,zero,0x6

b84400e0 <L3>:
b84400e0:	00000180 	sll	zero,zero,0x6
b84400e4:	f80001be 	sdc2	$0,446(zero)
Disassembly of section .DSP_data:

b8400000 <Arr1>:
	...

b8400080 <Arr2>:
	...

b8400100 <Arr3>:
	...
Disassembly of section .rodata:

8000ea00 <_global_impure_ptr-0x4>:
8000ea00:	00000043 	sra	zero,zero,0x1

8000ea04 <_global_impure_ptr>:
8000ea04:	8000df50 	lb	zero,-8368(zero)
	...

8000ea10 <uart_name>:
8000ea10:	7665642f 	jalx	899590bc <_end+0x99336ac>
8000ea14:	7974742f 	0x7974742f
8000ea18:	00003053 	0x3053
8000ea1c:	00003931 	tgeu	zero,zero,0xe4
8000ea20:	00003530 	tge	zero,zero,0xd4
8000ea24:	00003231 	tgeu	zero,zero,0xc8
8000ea28:	00003635 	0x3635
8000ea2c:	00003933 	tltu	zero,zero,0xe4

8000ea30 <DAYS_IN_MONTH>:
8000ea30:	0000001f 	0x1f
8000ea34:	0000001c 	0x1c
8000ea38:	0000001f 	0x1f
8000ea3c:	0000001e 	0x1e
8000ea40:	0000001f 	0x1f
8000ea44:	0000001e 	0x1e
8000ea48:	0000001f 	0x1f
8000ea4c:	0000001f 	0x1f
8000ea50:	0000001e 	0x1e
8000ea54:	0000001f 	0x1f
8000ea58:	0000001e 	0x1e
8000ea5c:	0000001f 	0x1f

8000ea60 <_DAYS_BEFORE_MONTH>:
8000ea60:	00000000 	nop
8000ea64:	0000001f 	0x1f
8000ea68:	0000003b 	0x3b
8000ea6c:	0000005a 	0x5a
8000ea70:	00000078 	0x78
8000ea74:	00000097 	0x97
8000ea78:	000000b5 	0xb5
8000ea7c:	000000d4 	0xd4
8000ea80:	000000f3 	tltu	zero,zero,0x3
8000ea84:	00000111 	0x111
8000ea88:	00000130 	tge	zero,zero,0x4
8000ea8c:	0000014e 	0x14e

8000ea90 <mon_lengths>:
8000ea90:	0000001f 	0x1f
8000ea94:	0000001c 	0x1c
8000ea98:	0000001f 	0x1f
8000ea9c:	0000001e 	0x1e
8000eaa0:	0000001f 	0x1f
8000eaa4:	0000001e 	0x1e
8000eaa8:	0000001f 	0x1f
8000eaac:	0000001f 	0x1f
8000eab0:	0000001e 	0x1e
8000eab4:	0000001f 	0x1f
8000eab8:	0000001e 	0x1e
8000eabc:	0000001f 	0x1f
8000eac0:	0000001f 	0x1f
8000eac4:	0000001d 	0x1d
8000eac8:	0000001f 	0x1f
8000eacc:	0000001e 	0x1e
8000ead0:	0000001f 	0x1f
8000ead4:	0000001e 	0x1e
8000ead8:	0000001f 	0x1f
8000eadc:	0000001f 	0x1f
8000eae0:	0000001e 	0x1e
8000eae4:	0000001f 	0x1f
8000eae8:	0000001e 	0x1e
8000eaec:	0000001f 	0x1f

8000eaf0 <year_lengths>:
8000eaf0:	0000016d 	0x16d
8000eaf4:	0000016e 	0x16e
	...
8000eb00:	00544d47 	0x544d47
8000eb04:	00005a54 	0x5a54
8000eb08:	5b303125 	0x5b303125
8000eb0c:	392d305e 	xori	t5,t1,0x305e
8000eb10:	5d2d2b2c 	0x5d2d2b2c
8000eb14:	00006e25 	0x6e25
8000eb18:	25756825 	addiu	s5,t3,26661
8000eb1c:	68253a6e 	0x68253a6e
8000eb20:	3a6e2575 	xori	t6,s3,0x2575
8000eb24:	25756825 	addiu	s5,t3,26661
8000eb28:	0000006e 	0x6e
8000eb2c:	7568252f 	jalx	85a094bc <_end+0x59e3aac>
8000eb30:	253a6e25 	addiu	k0,t1,28197
8000eb34:	6e257568 	0x6e257568
8000eb38:	7568253a 	jalx	85a094e8 <_end+0x59e3ad8>
8000eb3c:	00006e25 	0x6e25
8000eb40:	7568254d 	jalx	85a09534 <_end+0x59e3b24>
8000eb44:	252e6e25 	addiu	t6,t1,28197
8000eb48:	6e257568 	0x6e257568
8000eb4c:	7568252e 	jalx	85a094b8 <_end+0x59e3aa8>
8000eb50:	00006e25 	0x6e25
	...

8000eb60 <_ctype_b>:
	...

8000ebdf <_ctype_>:
8000ebdf:	2000      	beqz	s0,8000ebe1 <_ctype_+0x2>
8000ebe1:	2020      	beqz	s0,8000ec23 <_ctype_+0x44>
8000ebe3:	2020      	beqz	s0,8000ec25 <_ctype_+0x46>
8000ebe5:	2020      	beqz	s0,8000ec27 <_ctype_+0x48>
8000ebe7:	2020      	beqz	s0,8000ec29 <_ctype_+0x4a>
8000ebe9:	2828      	bnez	s0,8000ec3b <_ctype_+0x5c>
8000ebeb:	2828      	bnez	s0,8000ec3d <_ctype_+0x5e>
8000ebed:	2028      	beqz	s0,8000ec3f <_ctype_+0x60>
8000ebef:	2020      	beqz	s0,8000ec31 <_ctype_+0x52>
8000ebf1:	2020      	beqz	s0,8000ec33 <_ctype_+0x54>
8000ebf3:	2020      	beqz	s0,8000ec35 <_ctype_+0x56>
8000ebf5:	2020      	beqz	s0,8000ec37 <_ctype_+0x58>
8000ebf7:	2020      	beqz	s0,8000ec39 <_ctype_+0x5a>
8000ebf9:	2020      	beqz	s0,8000ec3b <_ctype_+0x5c>
8000ebfb:	2020      	beqz	s0,8000ec3d <_ctype_+0x5e>
8000ebfd:	2020      	beqz	s0,8000ec3f <_ctype_+0x60>
8000ebff:	8820      	lh	s1,0(s0)
8000ec01:	1010      	b	8000ec23 <_ctype_+0x44>
8000ec03:	1010      	b	8000ec25 <_ctype_+0x46>
8000ec05:	1010      	b	8000ec27 <_ctype_+0x48>
8000ec07:	1010      	b	8000ec29 <_ctype_+0x4a>
8000ec09:	1010      	b	8000ec2b <_ctype_+0x4c>
8000ec0b:	1010      	b	8000ec2d <_ctype_+0x4e>
8000ec0d:	1010      	b	8000ec2f <_ctype_+0x50>
8000ec0f:	0410      	addiu	a0,$29,64
8000ec11:	0404      	addiu	a0,$29,16
8000ec13:	0404      	addiu	a0,$29,16
8000ec15:	0404      	addiu	a0,$29,16
8000ec17:	0404      	addiu	a0,$29,16
8000ec19:	1004      	b	8000ec23 <_ctype_+0x44>
8000ec1b:	1010      	b	8000ec3d <_ctype_+0x5e>
8000ec1d:	1010      	b	8000ec3f <_ctype_+0x60>
8000ec1f:	1010      	b	8000ec41 <_ctype_+0x62>
8000ec21:	4141      	addiu	v0,s1,1
8000ec23:	4141      	addiu	v0,s1,1
8000ec25:	4141      	addiu	v0,s1,1
8000ec27:	0101      	addiu	s1,$29,4
8000ec29:	0101      	addiu	s1,$29,4
8000ec2b:	0101      	addiu	s1,$29,4
8000ec2d:	0101      	addiu	s1,$29,4
8000ec2f:	0101      	addiu	s1,$29,4
8000ec31:	0101      	addiu	s1,$29,4
8000ec33:	0101      	addiu	s1,$29,4
8000ec35:	0101      	addiu	s1,$29,4
8000ec37:	0101      	addiu	s1,$29,4
8000ec39:	0101      	addiu	s1,$29,4
8000ec3b:	1010      	b	8000ec5d <_ctype_+0x7e>
8000ec3d:	1010      	b	8000ec5f <_ctype_+0x80>
8000ec3f:	1010      	b	8000ec61 <_ctype_+0x82>
8000ec41:	4242      	addiu	v0,v0,2
8000ec43:	4242      	addiu	v0,v0,2
8000ec45:	4242      	addiu	v0,v0,2
8000ec47:	0202      	addiu	v0,$29,8
8000ec49:	0202      	addiu	v0,$29,8
8000ec4b:	0202      	addiu	v0,$29,8
8000ec4d:	0202      	addiu	v0,$29,8
8000ec4f:	0202      	addiu	v0,$29,8
8000ec51:	0202      	addiu	v0,$29,8
8000ec53:	0202      	addiu	v0,$29,8
8000ec55:	0202      	addiu	v0,$29,8
8000ec57:	0202      	addiu	v0,$29,8
8000ec59:	0202      	addiu	v0,$29,8
8000ec5b:	1010      	b	8000ec7d <_ctype_+0x9e>
8000ec5d:	1010      	b	8000ec7f <_ctype_+0xa0>
8000ec5f:	0020      	addiu	s0,$29,128
	...

8000ece0 <basefix.0>:
8000ece0:	0001000a 	movz	zero,zero,at
8000ece4:	00030002 	srl	zero,v1,0x0
8000ece8:	00050004 	sllv	zero,a1,zero
8000ecec:	00070006 	srlv	zero,a3,zero
8000ecf0:	00090008 	0x90008
8000ecf4:	000b000a 	movz	zero,zero,t3
8000ecf8:	000d000c 	syscall	0x3400
8000ecfc:	000f000e 	0xf000e
8000ed00:	00000010 	mfhi	zero
8000ed04:	646c2565 	0x646c2565
8000ed08:	00000000 	nop
8000ed0c:	800045b4 	lb	zero,17844(zero)
8000ed10:	80005484 	lb	zero,21636(zero)
8000ed14:	80005484 	lb	zero,21636(zero)
8000ed18:	80005484 	lb	zero,21636(zero)
8000ed1c:	80005484 	lb	zero,21636(zero)
8000ed20:	80005484 	lb	zero,21636(zero)
8000ed24:	80005484 	lb	zero,21636(zero)
8000ed28:	80005484 	lb	zero,21636(zero)
8000ed2c:	80005484 	lb	zero,21636(zero)
8000ed30:	80005484 	lb	zero,21636(zero)
8000ed34:	80005484 	lb	zero,21636(zero)
8000ed38:	80005484 	lb	zero,21636(zero)
8000ed3c:	80005484 	lb	zero,21636(zero)
8000ed40:	80005484 	lb	zero,21636(zero)
8000ed44:	80005484 	lb	zero,21636(zero)
8000ed48:	80005484 	lb	zero,21636(zero)
8000ed4c:	80005484 	lb	zero,21636(zero)
8000ed50:	80005484 	lb	zero,21636(zero)
8000ed54:	80005484 	lb	zero,21636(zero)
8000ed58:	80005484 	lb	zero,21636(zero)
8000ed5c:	80005484 	lb	zero,21636(zero)
8000ed60:	80005484 	lb	zero,21636(zero)
8000ed64:	80005484 	lb	zero,21636(zero)
8000ed68:	80005484 	lb	zero,21636(zero)
8000ed6c:	80005484 	lb	zero,21636(zero)
8000ed70:	80005484 	lb	zero,21636(zero)
8000ed74:	80005484 	lb	zero,21636(zero)
8000ed78:	80005484 	lb	zero,21636(zero)
8000ed7c:	80005484 	lb	zero,21636(zero)
8000ed80:	80005484 	lb	zero,21636(zero)
8000ed84:	80005484 	lb	zero,21636(zero)
8000ed88:	80005484 	lb	zero,21636(zero)
8000ed8c:	80005484 	lb	zero,21636(zero)
8000ed90:	80005484 	lb	zero,21636(zero)
8000ed94:	80005484 	lb	zero,21636(zero)
8000ed98:	80005484 	lb	zero,21636(zero)
8000ed9c:	80005484 	lb	zero,21636(zero)
8000eda0:	8000450c 	lb	zero,17676(zero)
8000eda4:	80005484 	lb	zero,21636(zero)
8000eda8:	80005484 	lb	zero,21636(zero)
8000edac:	80005484 	lb	zero,21636(zero)
8000edb0:	80005484 	lb	zero,21636(zero)
8000edb4:	800045bc 	lb	zero,17852(zero)
8000edb8:	80005484 	lb	zero,21636(zero)
8000edbc:	80005484 	lb	zero,21636(zero)
8000edc0:	80005484 	lb	zero,21636(zero)
8000edc4:	80005484 	lb	zero,21636(zero)
8000edc8:	80005484 	lb	zero,21636(zero)
8000edcc:	800045c8 	lb	zero,17864(zero)
8000edd0:	800045c8 	lb	zero,17864(zero)
8000edd4:	800045c8 	lb	zero,17864(zero)
8000edd8:	800045c8 	lb	zero,17864(zero)
8000eddc:	800045c8 	lb	zero,17864(zero)
8000ede0:	800045c8 	lb	zero,17864(zero)
8000ede4:	800045c8 	lb	zero,17864(zero)
8000ede8:	800045c8 	lb	zero,17864(zero)
8000edec:	800045c8 	lb	zero,17864(zero)
8000edf0:	800045c8 	lb	zero,17864(zero)
8000edf4:	80005484 	lb	zero,21636(zero)
8000edf8:	80005484 	lb	zero,21636(zero)
8000edfc:	80005484 	lb	zero,21636(zero)
8000ee00:	80005484 	lb	zero,21636(zero)
8000ee04:	80005484 	lb	zero,21636(zero)
8000ee08:	80005484 	lb	zero,21636(zero)
8000ee0c:	80005484 	lb	zero,21636(zero)
8000ee10:	80005484 	lb	zero,21636(zero)
8000ee14:	80005484 	lb	zero,21636(zero)
8000ee18:	800045e4 	lb	zero,17892(zero)
8000ee1c:	80005300 	lb	zero,21248(zero)
8000ee20:	80005374 	lb	zero,21364(zero)
8000ee24:	80005484 	lb	zero,21636(zero)
8000ee28:	80005374 	lb	zero,21364(zero)
8000ee2c:	80005484 	lb	zero,21636(zero)
8000ee30:	80005484 	lb	zero,21636(zero)
8000ee34:	80005484 	lb	zero,21636(zero)
8000ee38:	80005484 	lb	zero,21636(zero)
8000ee3c:	80005320 	lb	zero,21280(zero)
8000ee40:	80005484 	lb	zero,21636(zero)
8000ee44:	80005484 	lb	zero,21636(zero)
8000ee48:	8000532c 	lb	zero,21292(zero)
8000ee4c:	80005484 	lb	zero,21636(zero)
8000ee50:	80005484 	lb	zero,21636(zero)
8000ee54:	80005484 	lb	zero,21636(zero)
8000ee58:	8000534c 	lb	zero,21324(zero)
8000ee5c:	80005484 	lb	zero,21636(zero)
8000ee60:	80005484 	lb	zero,21636(zero)
8000ee64:	80005484 	lb	zero,21636(zero)
8000ee68:	80005484 	lb	zero,21636(zero)
8000ee6c:	800054ac 	lb	zero,21676(zero)
8000ee70:	80005484 	lb	zero,21636(zero)
8000ee74:	80005484 	lb	zero,21636(zero)
8000ee78:	80005358 	lb	zero,21336(zero)
8000ee7c:	80005484 	lb	zero,21636(zero)
8000ee80:	80005484 	lb	zero,21636(zero)
8000ee84:	80005484 	lb	zero,21636(zero)
8000ee88:	80005484 	lb	zero,21636(zero)
8000ee8c:	80005484 	lb	zero,21636(zero)
8000ee90:	80005484 	lb	zero,21636(zero)
8000ee94:	80005484 	lb	zero,21636(zero)
8000ee98:	800045e8 	lb	zero,17896(zero)
8000ee9c:	80005304 	lb	zero,21252(zero)
8000eea0:	80005374 	lb	zero,21364(zero)
8000eea4:	80005374 	lb	zero,21364(zero)
8000eea8:	80005374 	lb	zero,21364(zero)
8000eeac:	8000537c 	lb	zero,21372(zero)
8000eeb0:	800053a4 	lb	zero,21412(zero)
8000eeb4:	80005484 	lb	zero,21636(zero)
8000eeb8:	80005484 	lb	zero,21636(zero)
8000eebc:	800053bc 	lb	zero,21436(zero)
8000eec0:	80005484 	lb	zero,21636(zero)
8000eec4:	800053dc 	lb	zero,21468(zero)
8000eec8:	80005330 	lb	zero,21296(zero)
8000eecc:	8000544c 	lb	zero,21580(zero)
8000eed0:	80005484 	lb	zero,21636(zero)
8000eed4:	80005484 	lb	zero,21636(zero)
8000eed8:	80005350 	lb	zero,21328(zero)
8000eedc:	80005484 	lb	zero,21636(zero)
8000eee0:	80005468 	lb	zero,21608(zero)
8000eee4:	80005484 	lb	zero,21636(zero)
8000eee8:	80005484 	lb	zero,21636(zero)
8000eeec:	800054ac 	lb	zero,21676(zero)
8000eef0:	8000468c 	lb	zero,18060(zero)
8000eef4:	80004850 	lb	zero,18512(zero)
8000eef8:	800049a8 	lb	zero,18856(zero)
8000eefc:	80004c90 	lb	zero,19600(zero)
8000ef00:	80004f60 	lb	zero,20320(zero)
8000ef04:	80004eb8 	lb	zero,20152(zero)
8000ef08:	80004d60 	lb	zero,19808(zero)
8000ef0c:	80004eb8 	lb	zero,20152(zero)
8000ef10:	80004d60 	lb	zero,19808(zero)
8000ef14:	80004d60 	lb	zero,19808(zero)
8000ef18:	80004ce8 	lb	zero,19688(zero)
8000ef1c:	80004ecc 	lb	zero,20172(zero)
8000ef20:	80004ecc 	lb	zero,20172(zero)
8000ef24:	80004ecc 	lb	zero,20172(zero)
8000ef28:	80004ecc 	lb	zero,20172(zero)
8000ef2c:	80004ecc 	lb	zero,20172(zero)
8000ef30:	80004ecc 	lb	zero,20172(zero)
8000ef34:	80004ecc 	lb	zero,20172(zero)
8000ef38:	80004ef4 	lb	zero,20212(zero)
8000ef3c:	80004ef4 	lb	zero,20212(zero)
8000ef40:	80004d60 	lb	zero,19808(zero)
8000ef44:	80004d60 	lb	zero,19808(zero)
8000ef48:	80004d60 	lb	zero,19808(zero)
8000ef4c:	80004d60 	lb	zero,19808(zero)
8000ef50:	80004d60 	lb	zero,19808(zero)
8000ef54:	80004d60 	lb	zero,19808(zero)
8000ef58:	80004d60 	lb	zero,19808(zero)
8000ef5c:	80004f20 	lb	zero,20256(zero)
8000ef60:	80004f20 	lb	zero,20256(zero)
8000ef64:	80004f20 	lb	zero,20256(zero)
8000ef68:	80004f20 	lb	zero,20256(zero)
8000ef6c:	80004f20 	lb	zero,20256(zero)
8000ef70:	80004f20 	lb	zero,20256(zero)
8000ef74:	80004d60 	lb	zero,19808(zero)
8000ef78:	80004d60 	lb	zero,19808(zero)
8000ef7c:	80004d60 	lb	zero,19808(zero)
8000ef80:	80004d60 	lb	zero,19808(zero)
8000ef84:	80004d60 	lb	zero,19808(zero)
8000ef88:	80004d60 	lb	zero,19808(zero)
8000ef8c:	80004d60 	lb	zero,19808(zero)
8000ef90:	80004d60 	lb	zero,19808(zero)
8000ef94:	80004d60 	lb	zero,19808(zero)
8000ef98:	80004d60 	lb	zero,19808(zero)
8000ef9c:	80004d60 	lb	zero,19808(zero)
8000efa0:	80004d60 	lb	zero,19808(zero)
8000efa4:	80004d60 	lb	zero,19808(zero)
8000efa8:	80004d60 	lb	zero,19808(zero)
8000efac:	80004d60 	lb	zero,19808(zero)
8000efb0:	80004d60 	lb	zero,19808(zero)
8000efb4:	80004d60 	lb	zero,19808(zero)
8000efb8:	80004f38 	lb	zero,20280(zero)
8000efbc:	80004d60 	lb	zero,19808(zero)
8000efc0:	80004d60 	lb	zero,19808(zero)
8000efc4:	80004d60 	lb	zero,19808(zero)
8000efc8:	80004d60 	lb	zero,19808(zero)
8000efcc:	80004d60 	lb	zero,19808(zero)
8000efd0:	80004d60 	lb	zero,19808(zero)
8000efd4:	80004d60 	lb	zero,19808(zero)
8000efd8:	80004d60 	lb	zero,19808(zero)
8000efdc:	80004f20 	lb	zero,20256(zero)
8000efe0:	80004f20 	lb	zero,20256(zero)
8000efe4:	80004f20 	lb	zero,20256(zero)
8000efe8:	80004f20 	lb	zero,20256(zero)
8000efec:	80004f20 	lb	zero,20256(zero)
8000eff0:	80004f20 	lb	zero,20256(zero)
8000eff4:	80004d60 	lb	zero,19808(zero)
8000eff8:	80004d60 	lb	zero,19808(zero)
8000effc:	80004d60 	lb	zero,19808(zero)
8000f000:	80004d60 	lb	zero,19808(zero)
8000f004:	80004d60 	lb	zero,19808(zero)
8000f008:	80004d60 	lb	zero,19808(zero)
8000f00c:	80004d60 	lb	zero,19808(zero)
8000f010:	80004d60 	lb	zero,19808(zero)
8000f014:	80004d60 	lb	zero,19808(zero)
8000f018:	80004d60 	lb	zero,19808(zero)
8000f01c:	80004d60 	lb	zero,19808(zero)
8000f020:	80004d60 	lb	zero,19808(zero)
8000f024:	80004d60 	lb	zero,19808(zero)
8000f028:	80004d60 	lb	zero,19808(zero)
8000f02c:	80004d60 	lb	zero,19808(zero)
8000f030:	80004d60 	lb	zero,19808(zero)
8000f034:	80004d60 	lb	zero,19808(zero)
8000f038:	80004f38 	lb	zero,20280(zero)
8000f03c:	80005210 	lb	zero,21008(zero)
8000f040:	80005018 	lb	zero,20504(zero)
8000f044:	80005210 	lb	zero,21008(zero)
8000f048:	80005224 	lb	zero,21028(zero)
8000f04c:	80005018 	lb	zero,20504(zero)
8000f050:	80004fc8 	lb	zero,20424(zero)
8000f054:	800051f8 	lb	zero,20984(zero)
8000f058:	800051f8 	lb	zero,20984(zero)
8000f05c:	800051f8 	lb	zero,20984(zero)
8000f060:	800051f8 	lb	zero,20984(zero)
8000f064:	800051f8 	lb	zero,20984(zero)
8000f068:	800051f8 	lb	zero,20984(zero)
8000f06c:	800051f8 	lb	zero,20984(zero)
8000f070:	800051f8 	lb	zero,20984(zero)
8000f074:	800051f8 	lb	zero,20984(zero)
8000f078:	80005018 	lb	zero,20504(zero)
8000f07c:	80005018 	lb	zero,20504(zero)
8000f080:	80005018 	lb	zero,20504(zero)
8000f084:	80005018 	lb	zero,20504(zero)
8000f088:	80005018 	lb	zero,20504(zero)
8000f08c:	80005018 	lb	zero,20504(zero)
8000f090:	80005018 	lb	zero,20504(zero)
8000f094:	8000523c 	lb	zero,21052(zero)
8000f098:	80005018 	lb	zero,20504(zero)
8000f09c:	80005018 	lb	zero,20504(zero)
8000f0a0:	80005018 	lb	zero,20504(zero)
8000f0a4:	80005250 	lb	zero,21072(zero)
8000f0a8:	80005018 	lb	zero,20504(zero)
8000f0ac:	80005018 	lb	zero,20504(zero)
8000f0b0:	80005018 	lb	zero,20504(zero)
8000f0b4:	80005018 	lb	zero,20504(zero)
8000f0b8:	80005018 	lb	zero,20504(zero)
8000f0bc:	80005018 	lb	zero,20504(zero)
8000f0c0:	80005018 	lb	zero,20504(zero)
8000f0c4:	80005018 	lb	zero,20504(zero)
8000f0c8:	8000529c 	lb	zero,21148(zero)
8000f0cc:	80005018 	lb	zero,20504(zero)
8000f0d0:	80005018 	lb	zero,20504(zero)
8000f0d4:	80005018 	lb	zero,20504(zero)
8000f0d8:	80005018 	lb	zero,20504(zero)
8000f0dc:	80005018 	lb	zero,20504(zero)
8000f0e0:	80005018 	lb	zero,20504(zero)
8000f0e4:	80005018 	lb	zero,20504(zero)
8000f0e8:	80005018 	lb	zero,20504(zero)
8000f0ec:	80005018 	lb	zero,20504(zero)
8000f0f0:	80005018 	lb	zero,20504(zero)
8000f0f4:	80005018 	lb	zero,20504(zero)
8000f0f8:	80005018 	lb	zero,20504(zero)
8000f0fc:	80005018 	lb	zero,20504(zero)
8000f100:	80005018 	lb	zero,20504(zero)
8000f104:	80005018 	lb	zero,20504(zero)
8000f108:	80005018 	lb	zero,20504(zero)
8000f10c:	80005018 	lb	zero,20504(zero)
8000f110:	80005018 	lb	zero,20504(zero)
8000f114:	8000523c 	lb	zero,21052(zero)
8000f118:	80005018 	lb	zero,20504(zero)
8000f11c:	80005018 	lb	zero,20504(zero)
8000f120:	80005018 	lb	zero,20504(zero)
8000f124:	80005250 	lb	zero,21072(zero)
8000f128:	80005018 	lb	zero,20504(zero)
8000f12c:	80005018 	lb	zero,20504(zero)
8000f130:	80005018 	lb	zero,20504(zero)
8000f134:	80005018 	lb	zero,20504(zero)
8000f138:	80005018 	lb	zero,20504(zero)
8000f13c:	80005018 	lb	zero,20504(zero)
8000f140:	80005018 	lb	zero,20504(zero)
8000f144:	80005018 	lb	zero,20504(zero)
8000f148:	8000529c 	lb	zero,21148(zero)
8000f14c:	00000000 	nop
8000f150:	0000002e 	0x2e
8000f154:	00000000 	nop

8000f158 <lconv>:
8000f158:	8000f150 	lb	zero,-3760(zero)
8000f15c:	8000f154 	lb	zero,-3756(zero)
8000f160:	8000f154 	lb	zero,-3756(zero)
8000f164:	8000f154 	lb	zero,-3756(zero)
8000f168:	8000f154 	lb	zero,-3756(zero)
8000f16c:	8000f154 	lb	zero,-3756(zero)
8000f170:	8000f154 	lb	zero,-3756(zero)
8000f174:	8000f154 	lb	zero,-3756(zero)
8000f178:	8000f154 	lb	zero,-3756(zero)
8000f17c:	8000f154 	lb	zero,-3756(zero)
8000f180:	7f7f7f7f 	0x7f7f7f7f
8000f184:	7f7f7f7f 	0x7f7f7f7f
8000f188:	2d4f5349 	sltiu	t7,t2,21321
8000f18c:	39353838 	xori	s5,t1,0x3838
8000f190:	0000312d 	0x312d
8000f194:	00000043 	sra	zero,zero,0x1
	...
8000f1b0:	80006690 	lb	zero,26256(zero)
8000f1b4:	8000671c 	lb	zero,26396(zero)
8000f1b8:	8000671c 	lb	zero,26396(zero)
8000f1bc:	8000671c 	lb	zero,26396(zero)
8000f1c0:	8000671c 	lb	zero,26396(zero)
8000f1c4:	8000671c 	lb	zero,26396(zero)
8000f1c8:	8000671c 	lb	zero,26396(zero)
8000f1cc:	8000671c 	lb	zero,26396(zero)
8000f1d0:	8000671c 	lb	zero,26396(zero)
8000f1d4:	80007498 	lb	zero,29848(zero)
8000f1d8:	80007498 	lb	zero,29848(zero)
8000f1dc:	80007498 	lb	zero,29848(zero)
8000f1e0:	80007498 	lb	zero,29848(zero)
8000f1e4:	80007498 	lb	zero,29848(zero)
8000f1e8:	8000671c 	lb	zero,26396(zero)
8000f1ec:	8000671c 	lb	zero,26396(zero)
8000f1f0:	8000671c 	lb	zero,26396(zero)
8000f1f4:	8000671c 	lb	zero,26396(zero)
8000f1f8:	8000671c 	lb	zero,26396(zero)
8000f1fc:	8000671c 	lb	zero,26396(zero)
8000f200:	8000671c 	lb	zero,26396(zero)
8000f204:	8000671c 	lb	zero,26396(zero)
8000f208:	8000671c 	lb	zero,26396(zero)
8000f20c:	8000671c 	lb	zero,26396(zero)
8000f210:	8000671c 	lb	zero,26396(zero)
8000f214:	8000671c 	lb	zero,26396(zero)
8000f218:	8000671c 	lb	zero,26396(zero)
8000f21c:	8000671c 	lb	zero,26396(zero)
8000f220:	8000671c 	lb	zero,26396(zero)
8000f224:	8000671c 	lb	zero,26396(zero)
8000f228:	8000671c 	lb	zero,26396(zero)
8000f22c:	8000671c 	lb	zero,26396(zero)
8000f230:	80007498 	lb	zero,29848(zero)
8000f234:	8000671c 	lb	zero,26396(zero)
8000f238:	8000671c 	lb	zero,26396(zero)
8000f23c:	8000671c 	lb	zero,26396(zero)
8000f240:	8000671c 	lb	zero,26396(zero)
8000f244:	8000671c 	lb	zero,26396(zero)
8000f248:	8000671c 	lb	zero,26396(zero)
8000f24c:	8000671c 	lb	zero,26396(zero)
8000f250:	8000671c 	lb	zero,26396(zero)
8000f254:	8000671c 	lb	zero,26396(zero)
8000f258:	8000671c 	lb	zero,26396(zero)
8000f25c:	80006680 	lb	zero,26240(zero)
8000f260:	8000671c 	lb	zero,26396(zero)
8000f264:	80006678 	lb	zero,26232(zero)
8000f268:	94a03595 	lhu	zero,13717(a1)
8000f26c:	3fdfffff 	0x3fdfffff
8000f270:	35afe535 	ori	t7,t5,0xe535
8000f274:	3fe00000 	0x3fe00000
8000f278:	94a03595 	lhu	zero,13717(a1)
8000f27c:	3fcfffff 	0x3fcfffff

8000f280 <blanks.0>:
8000f280:	20202020 	addi	zero,at,8224
8000f284:	20202020 	addi	zero,at,8224
8000f288:	20202020 	addi	zero,at,8224
8000f28c:	20202020 	addi	zero,at,8224

8000f290 <zeroes.1>:
8000f290:	30303030 	andi	s0,at,0x3030
8000f294:	30303030 	andi	s0,at,0x3030
8000f298:	30303030 	andi	s0,at,0x3030
8000f29c:	30303030 	andi	s0,at,0x3030
8000f2a0:	20677562 	addi	a3,v1,30050
8000f2a4:	76206e69 	jalx	8881b9a4 <_end+0x87f5f94>
8000f2a8:	69727066 	0x69727066
8000f2ac:	3a66746e 	xori	a2,s3,0x746e
8000f2b0:	64616220 	0x64616220
8000f2b4:	73616220 	0x73616220
8000f2b8:	00000065 	0x65
8000f2bc:	00000030 	tge	zero,zero
8000f2c0:	0000002e 	0x2e
8000f2c4:	33323130 	andi	s2,t9,0x3130
8000f2c8:	37363534 	ori	s6,t9,0x3534
8000f2cc:	42413938 	c0	0x413938
8000f2d0:	46454443 	c1	0x454443
8000f2d4:	00000000 	nop
8000f2d8:	00666e49 	0x666e49
8000f2dc:	004e614e 	0x4e614e
8000f2e0:	33323130 	andi	s2,t9,0x3130
8000f2e4:	37363534 	ori	s6,t9,0x3534
8000f2e8:	62613938 	0x62613938
8000f2ec:	66656463 	0x66656463
8000f2f0:	00000000 	nop
8000f2f4:	6c756e28 	0x6c756e28
8000f2f8:	0000296c 	0x296c
8000f2fc:	80007a2c 	lb	zero,31276(zero)
8000f300:	80009318 	lb	zero,-27880(zero)
8000f304:	80009318 	lb	zero,-27880(zero)
8000f308:	80007a4c 	lb	zero,31308(zero)
8000f30c:	80009318 	lb	zero,-27880(zero)
8000f310:	80009318 	lb	zero,-27880(zero)
8000f314:	80009318 	lb	zero,-27880(zero)
8000f318:	80009318 	lb	zero,-27880(zero)
8000f31c:	80009318 	lb	zero,-27880(zero)
8000f320:	80009318 	lb	zero,-27880(zero)
8000f324:	80007a60 	lb	zero,31328(zero)
8000f328:	80007aa4 	lb	zero,31396(zero)
8000f32c:	80009318 	lb	zero,-27880(zero)
8000f330:	80007a90 	lb	zero,31376(zero)
8000f334:	80007ab0 	lb	zero,31408(zero)
8000f338:	80009318 	lb	zero,-27880(zero)
8000f33c:	80007b40 	lb	zero,31552(zero)
8000f340:	80007b50 	lb	zero,31568(zero)
8000f344:	80007b50 	lb	zero,31568(zero)
8000f348:	80007b50 	lb	zero,31568(zero)
8000f34c:	80007b50 	lb	zero,31568(zero)
8000f350:	80007b50 	lb	zero,31568(zero)
8000f354:	80007b50 	lb	zero,31568(zero)
8000f358:	80007b50 	lb	zero,31568(zero)
8000f35c:	80007b50 	lb	zero,31568(zero)
8000f360:	80007b50 	lb	zero,31568(zero)
8000f364:	80009318 	lb	zero,-27880(zero)
8000f368:	80009318 	lb	zero,-27880(zero)
8000f36c:	80009318 	lb	zero,-27880(zero)
8000f370:	80009318 	lb	zero,-27880(zero)
8000f374:	80009318 	lb	zero,-27880(zero)
8000f378:	80009318 	lb	zero,-27880(zero)
8000f37c:	80009318 	lb	zero,-27880(zero)
8000f380:	80009318 	lb	zero,-27880(zero)
8000f384:	80009318 	lb	zero,-27880(zero)
8000f388:	80008d64 	lb	zero,-29340(zero)
8000f38c:	80007b88 	lb	zero,31624(zero)
8000f390:	80008e18 	lb	zero,-29160(zero)
8000f394:	80009318 	lb	zero,-27880(zero)
8000f398:	80008e18 	lb	zero,-29160(zero)
8000f39c:	80009318 	lb	zero,-27880(zero)
8000f3a0:	80009318 	lb	zero,-27880(zero)
8000f3a4:	80009318 	lb	zero,-27880(zero)
8000f3a8:	80009318 	lb	zero,-27880(zero)
8000f3ac:	80008bf0 	lb	zero,-29712(zero)
8000f3b0:	80009318 	lb	zero,-27880(zero)
8000f3b4:	80009318 	lb	zero,-27880(zero)
8000f3b8:	80008c04 	lb	zero,-29692(zero)
8000f3bc:	80009318 	lb	zero,-27880(zero)
8000f3c0:	80009318 	lb	zero,-27880(zero)
8000f3c4:	80009318 	lb	zero,-27880(zero)
8000f3c8:	80009178 	lb	zero,-28296(zero)
8000f3cc:	80009318 	lb	zero,-27880(zero)
8000f3d0:	80008c74 	lb	zero,-29580(zero)
8000f3d4:	80009318 	lb	zero,-27880(zero)
8000f3d8:	80009318 	lb	zero,-27880(zero)
8000f3dc:	80008ce0 	lb	zero,-29472(zero)
8000f3e0:	80009318 	lb	zero,-27880(zero)
8000f3e4:	80009318 	lb	zero,-27880(zero)
8000f3e8:	80009318 	lb	zero,-27880(zero)
8000f3ec:	80009318 	lb	zero,-27880(zero)
8000f3f0:	80009318 	lb	zero,-27880(zero)
8000f3f4:	80009318 	lb	zero,-27880(zero)
8000f3f8:	80009318 	lb	zero,-27880(zero)
8000f3fc:	80009318 	lb	zero,-27880(zero)
8000f400:	80009318 	lb	zero,-27880(zero)
8000f404:	80009318 	lb	zero,-27880(zero)
8000f408:	80008d64 	lb	zero,-29340(zero)
8000f40c:	80007b94 	lb	zero,31636(zero)
8000f410:	80008e18 	lb	zero,-29160(zero)
8000f414:	80008e18 	lb	zero,-29160(zero)
8000f418:	80008e18 	lb	zero,-29160(zero)
8000f41c:	80009074 	lb	zero,-28556(zero)
8000f420:	80007b94 	lb	zero,31636(zero)
8000f424:	80009318 	lb	zero,-27880(zero)
8000f428:	80009318 	lb	zero,-27880(zero)
8000f42c:	80009084 	lb	zero,-28540(zero)
8000f430:	80009318 	lb	zero,-27880(zero)
8000f434:	800090b4 	lb	zero,-28492(zero)
8000f438:	80008c10 	lb	zero,-29680(zero)
8000f43c:	80009124 	lb	zero,-28380(zero)
8000f440:	80009168 	lb	zero,-28312(zero)
8000f444:	80009318 	lb	zero,-27880(zero)
8000f448:	80009178 	lb	zero,-28296(zero)
8000f44c:	80009318 	lb	zero,-27880(zero)
8000f450:	80008c80 	lb	zero,-29568(zero)
8000f454:	80009318 	lb	zero,-27880(zero)
8000f458:	80009318 	lb	zero,-27880(zero)
8000f45c:	80009360 	lb	zero,-27808(zero)
8000f460:	54552d43 	bnel	v0,s5,8001a970 <except_handlers+0x9f70>
8000f464:	00382d46 	0x382d46
8000f468:	4a532d43 	c2	0x532d43
8000f46c:	00005349 	0x5349
8000f470:	55452d43 	bnel	t2,a1,8001a980 <except_handlers+0x9f80>
8000f474:	00504a43 	0x504a43
8000f478:	494a2d43 	0x494a2d43
8000f47c:	00000053 	0x53
8000f480:	00000030 	tge	zero,zero
8000f484:	004e614e 	0x4e614e
8000f488:	69666e49 	0x69666e49
8000f48c:	7974696e 	0x7974696e
	...
8000f498:	636f4361 	0x636f4361
8000f49c:	3fd287a7 	0x3fd287a7
8000f4a0:	509f79fb 	beql	a0,ra,8002dc90 <_end+0x8280>
8000f4a4:	3fd34413 	0x3fd34413
8000f4a8:	8b60c8b3 	lwl	zero,-14157(k1)
8000f4ac:	3fc68a28 	0x3fc68a28
8000f4b0:	8000a230 	lb	zero,-24016(zero)
8000f4b4:	8000a230 	lb	zero,-24016(zero)
8000f4b8:	8000aef0 	lb	zero,-20752(zero)
8000f4bc:	8000af14 	lb	zero,-20716(zero)
8000f4c0:	8000aef4 	lb	zero,-20748(zero)
8000f4c4:	8000af18 	lb	zero,-20712(zero)
	...

8000f4d0 <p05.0>:
8000f4d0:	00000005 	0x5
8000f4d4:	00000019 	multu	zero,zero
8000f4d8:	0000007d 	0x7d
8000f4dc:	00000000 	nop

8000f4e0 <__mprec_tens>:
8000f4e0:	00000000 	nop
8000f4e4:	3ff00000 	0x3ff00000
8000f4e8:	00000000 	nop
8000f4ec:	40240000 	0x40240000
8000f4f0:	00000000 	nop
8000f4f4:	40590000 	cfc0	t9,$0
8000f4f8:	00000000 	nop
8000f4fc:	408f4000 	mtc0	t7,$8
8000f500:	00000000 	nop
8000f504:	40c38800 	ctc0	v1,$17
8000f508:	00000000 	nop
8000f50c:	40f86a00 	0x40f86a00
8000f510:	00000000 	nop
8000f514:	412e8480 	0x412e8480
8000f518:	00000000 	nop
8000f51c:	416312d0 	0x416312d0
8000f520:	00000000 	nop
8000f524:	4197d784 	0x4197d784
8000f528:	00000000 	nop
8000f52c:	41cdcd65 	0x41cdcd65
8000f530:	20000000 	addi	zero,zero,0
8000f534:	4202a05f 	c0	0x2a05f
8000f538:	e8000000 	swc2	$0,0(zero)
8000f53c:	42374876 	c0	0x374876
8000f540:	a2000000 	sb	zero,0(s0)
8000f544:	426d1a94 	c0	0x6d1a94
8000f548:	e5400000 	swc1	$f0,0(t2)
8000f54c:	42a2309c 	c0	0xa2309c
8000f550:	1e900000 	0x1e900000
8000f554:	42d6bcc4 	c0	0xd6bcc4
8000f558:	26340000 	addiu	s4,s1,0
8000f55c:	430c6bf5 	c0	0x10c6bf5
8000f560:	37e08000 	ori	zero,ra,0x8000
8000f564:	4341c379 	c0	0x141c379
8000f568:	85d8a000 	lh	t8,-24576(t6)
8000f56c:	43763457 	c0	0x1763457
8000f570:	674ec800 	0x674ec800
8000f574:	43abc16d 	c0	0x1abc16d
8000f578:	60913d00 	0x60913d00
8000f57c:	43e158e4 	c0	0x1e158e4
8000f580:	78b58c40 	0x78b58c40
8000f584:	4415af1d 	0x4415af1d
8000f588:	d6e2ef50 	ldc1	$f2,-4272(s7)
8000f58c:	444b1ae4 	0x444b1ae4
8000f590:	064dd592 	0x64dd592
8000f594:	4480f0cf 	0x4480f0cf
8000f598:	c7e14af6 	lwc1	$f1,19190(ra)
8000f59c:	44b52d02 	0x44b52d02
8000f5a0:	79d99db4 	0x79d99db4
8000f5a4:	44ea7843 	0x44ea7843

8000f5a8 <__mprec_bigtens>:
8000f5a8:	37e08000 	ori	zero,ra,0x8000
8000f5ac:	4341c379 	c0	0x141c379
8000f5b0:	b5056e17 	0xb5056e17
8000f5b4:	4693b8b5 	c1	0x93b8b5
8000f5b8:	e93ff9f5 	swc2	$31,-1547(t1)
8000f5bc:	4d384f03 	0x4d384f03
8000f5c0:	f9301d32 	sdc2	$16,7474(t1)
8000f5c4:	5a827748 	0x5a827748
8000f5c8:	7f73bf3c 	0x7f73bf3c
8000f5cc:	75154fdd 	jalx	84553f74 <_end+0x452e564>

8000f5d0 <__mprec_tinytens>:
8000f5d0:	97d889bc 	lhu	t8,-30276(s8)
8000f5d4:	3c9cd2b2 	0x3c9cd2b2
8000f5d8:	d5a8a733 	ldc1	$f8,-22733(t5)
8000f5dc:	3949f623 	xori	t1,t2,0xf623
8000f5e0:	44f4a73d 	0x44f4a73d
8000f5e4:	32a50ffd 	andi	a1,s5,0xffd
8000f5e8:	cf8c979d 	pref	0xc,-26723(gp)
8000f5ec:	255bba08 	addiu	k1,t2,-17912
8000f5f0:	64ac6f43 	0x64ac6f43
8000f5f4:	0ac80628 	j	8b2018a0 <_end+0xb1dbe90>
8000f5f8:	00000000 	nop
8000f5fc:	00000000 	nop

8000f600 <__infinity>:
8000f600:	00000000 	nop
8000f604:	7ff00000 	0x7ff00000
	...
8000f610:	8000d750 	lb	zero,-10416(zero)
8000f614:	8000d758 	lb	zero,-10408(zero)
8000f618:	8000d760 	lb	zero,-10400(zero)
8000f61c:	8000d768 	lb	zero,-10392(zero)
8000f620:	8000d770 	lb	zero,-10384(zero)
8000f624:	8000d778 	lb	zero,-10376(zero)
8000f628:	8000d780 	lb	zero,-10368(zero)
8000f62c:	8000d788 	lb	zero,-10360(zero)
8000f630:	8000d790 	lb	zero,-10352(zero)
8000f634:	8000d798 	lb	zero,-10344(zero)
8000f638:	8000d7a0 	lb	zero,-10336(zero)
8000f63c:	8000d7a8 	lb	zero,-10328(zero)
8000f640:	8000d7b0 	lb	zero,-10320(zero)
8000f644:	8000d7b8 	lb	zero,-10312(zero)
8000f648:	8000d7e8 	lb	zero,-10264(zero)
8000f64c:	8000d7c0 	lb	zero,-10304(zero)
8000f650:	8000d7e8 	lb	zero,-10264(zero)
8000f654:	8000d7e8 	lb	zero,-10264(zero)
8000f658:	8000d7c8 	lb	zero,-10296(zero)
8000f65c:	8000d7e8 	lb	zero,-10264(zero)
8000f660:	8000d7e8 	lb	zero,-10264(zero)
8000f664:	8000d7e8 	lb	zero,-10264(zero)
8000f668:	8000d7d0 	lb	zero,-10288(zero)
8000f66c:	8000d7d8 	lb	zero,-10280(zero)
8000f670:	8000d7e0 	lb	zero,-10272(zero)
8000f674:	8000d7e8 	lb	zero,-10264(zero)
8000f678:	8000d7e8 	lb	zero,-10264(zero)
8000f67c:	8000d7e8 	lb	zero,-10264(zero)
8000f680:	8000d7e8 	lb	zero,-10264(zero)
8000f684:	8000d7e8 	lb	zero,-10264(zero)
8000f688:	8000d7f0 	lb	zero,-10256(zero)
8000f68c:	00000000 	nop
8000f690:	8000de24 	lb	zero,-8668(zero)
8000f694:	8000de2c 	lb	zero,-8660(zero)
8000f698:	8000de34 	lb	zero,-8652(zero)
8000f69c:	8000de3c 	lb	zero,-8644(zero)
8000f6a0:	8000de44 	lb	zero,-8636(zero)
8000f6a4:	8000de4c 	lb	zero,-8628(zero)
8000f6a8:	8000de54 	lb	zero,-8620(zero)
8000f6ac:	8000de1c 	lb	zero,-8676(zero)
8000f6b0:	8000de5c 	lb	zero,-8612(zero)
8000f6b4:	8000de64 	lb	zero,-8604(zero)
8000f6b8:	8000de6c 	lb	zero,-8596(zero)
8000f6bc:	8000de74 	lb	zero,-8588(zero)
8000f6c0:	8000de7c 	lb	zero,-8580(zero)
8000f6c4:	8000de84 	lb	zero,-8572(zero)
8000f6c8:	8000de8c 	lb	zero,-8564(zero)
8000f6cc:	8000de94 	lb	zero,-8556(zero)
8000f6d0:	8000de9c 	lb	zero,-8548(zero)
8000f6d4:	8000dea4 	lb	zero,-8540(zero)
8000f6d8:	8000deac 	lb	zero,-8532(zero)
8000f6dc:	8000deb4 	lb	zero,-8524(zero)
8000f6e0:	8000debc 	lb	zero,-8516(zero)
8000f6e4:	8000dec4 	lb	zero,-8508(zero)
8000f6e8:	8000decc 	lb	zero,-8500(zero)
8000f6ec:	00000000 	nop
